
/Users/rs_mbpro14/RAL/EIGSEP_github/eigsep-sensors/eigsep_pico/build/pico_T_ctrl.elf:     file format elf32-littlearm

Sections:
Idx Name          Size      VMA       LMA       File off  Algn
  0 .text         000087f8  10000000  10000000  00001000  2**3
                  CONTENTS, ALLOC, LOAD, READONLY, CODE
  1 .rodata       0000048c  100087f8  100087f8  000097f8  2**3
                  CONTENTS, ALLOC, LOAD, READONLY, DATA
  2 .ARM.exidx    00000008  10008c84  10008c84  00009c84  2**2
                  CONTENTS, ALLOC, LOAD, READONLY, DATA
  3 .binary_info  00000020  10008c8c  10008c8c  00009c8c  2**2
                  CONTENTS, ALLOC, LOAD, READONLY, DATA
  4 .ram_vector_table 00000110  20000000  20000000  0000d000  2**2
                  ALLOC
  5 .uninitialized_data 00000000  20000110  20000110  0000c7d8  2**0
                  CONTENTS
  6 .data         00001b18  20000110  10008cac  0000a110  2**3
                  CONTENTS, ALLOC, LOAD, READONLY, CODE
  7 .tdata        00000000  20001c28  20001c28  0000c7d8  2**0
                  CONTENTS, ALLOC, LOAD, DATA, THREAD_LOCAL
  8 .tbss         00000000  20001c28  20001c28  00000000  2**0
                  ALLOC, THREAD_LOCAL
  9 .bss          00000de0  20001c28  1000a7c4  0000cc28  2**3
                  ALLOC
 10 .heap         00000800  20002a08  20002a08  0000c7d8  2**2
                  CONTENTS, READONLY
 11 .scratch_x    00000000  20080000  20080000  0000cfd8  2**0
                  CONTENTS
 12 .scratch_y    00000000  20081000  20081000  0000cfd8  2**0
                  CONTENTS
 13 .stack1_dummy 00000800  20080000  20080000  0000d000  2**2
                  ALLOC
 14 .stack_dummy  00000800  20081000  20081000  0000cfe0  2**5
                  CONTENTS, READONLY
 15 .flash_end    00000014  1000a7c4  1000a7c4  0000c7c4  2**2
                  CONTENTS, ALLOC, LOAD, READONLY, DATA
 16 .ARM.attributes 00000034  00000000  00000000  0000d7e0  2**0
                  CONTENTS, READONLY
 17 .comment      00000045  00000000  00000000  0000d814  2**0
                  CONTENTS, READONLY
 18 .debug_info   0003bd34  00000000  00000000  0000d859  2**0
                  CONTENTS, READONLY, DEBUGGING, OCTETS
 19 .debug_abbrev 00009fe5  00000000  00000000  0004958d  2**0
                  CONTENTS, READONLY, DEBUGGING, OCTETS
 20 .debug_loclists 0001e61c  00000000  00000000  00053572  2**0
                  CONTENTS, READONLY, DEBUGGING, OCTETS
 21 .debug_aranges 000015d0  00000000  00000000  00071b90  2**3
                  CONTENTS, READONLY, DEBUGGING, OCTETS
 22 .debug_rnglists 0000527a  00000000  00000000  00073160  2**0
                  CONTENTS, READONLY, DEBUGGING, OCTETS
 23 .debug_line   000262c8  00000000  00000000  000783da  2**0
                  CONTENTS, READONLY, DEBUGGING, OCTETS
 24 .debug_str    00009c3a  00000000  00000000  0009e6a2  2**0
                  CONTENTS, READONLY, DEBUGGING, OCTETS
 25 .debug_frame  00004254  00000000  00000000  000a82dc  2**2
                  CONTENTS, READONLY, DEBUGGING, OCTETS
 26 .debug_line_str 00000306  00000000  00000000  000ac530  2**0
                  CONTENTS, READONLY, DEBUGGING, OCTETS

/Users/rs_mbpro14/RAL/EIGSEP_github/eigsep-sensors/eigsep_pico/build/pico_T_ctrl.elf:     file format elf32-littlearm


Disassembly of section .text:

10000000 <__VECTOR_TABLE>:
10000000:	20082000 	.word	0x20082000
10000004:	1000015d 	.word	0x1000015d
10000008:	10000113 	.word	0x10000113
1000000c:	10000115 	.word	0x10000115
10000010:	10000111 	.word	0x10000111
10000014:	10000111 	.word	0x10000111
10000018:	10000111 	.word	0x10000111
1000001c:	10000111 	.word	0x10000111
10000020:	10000111 	.word	0x10000111
10000024:	10000111 	.word	0x10000111
10000028:	10000111 	.word	0x10000111
1000002c:	10000117 	.word	0x10000117
10000030:	10000111 	.word	0x10000111
10000034:	10000111 	.word	0x10000111
10000038:	10000119 	.word	0x10000119
1000003c:	1000011b 	.word	0x1000011b
10000040:	1000011d 	.word	0x1000011d
10000044:	1000011d 	.word	0x1000011d
10000048:	1000011d 	.word	0x1000011d
1000004c:	1000011d 	.word	0x1000011d
10000050:	1000011d 	.word	0x1000011d
10000054:	1000011d 	.word	0x1000011d
10000058:	1000011d 	.word	0x1000011d
1000005c:	1000011d 	.word	0x1000011d
10000060:	1000011d 	.word	0x1000011d
10000064:	1000011d 	.word	0x1000011d
10000068:	1000011d 	.word	0x1000011d
1000006c:	1000011d 	.word	0x1000011d
10000070:	1000011d 	.word	0x1000011d
10000074:	1000011d 	.word	0x1000011d
10000078:	1000011d 	.word	0x1000011d
1000007c:	1000011d 	.word	0x1000011d
10000080:	1000011d 	.word	0x1000011d
10000084:	1000011d 	.word	0x1000011d
10000088:	1000011d 	.word	0x1000011d
1000008c:	1000011d 	.word	0x1000011d
10000090:	1000011d 	.word	0x1000011d
10000094:	1000011d 	.word	0x1000011d
10000098:	1000011d 	.word	0x1000011d
1000009c:	1000011d 	.word	0x1000011d
100000a0:	1000011d 	.word	0x1000011d
100000a4:	1000011d 	.word	0x1000011d
100000a8:	1000011d 	.word	0x1000011d
100000ac:	1000011d 	.word	0x1000011d
100000b0:	1000011d 	.word	0x1000011d
100000b4:	1000011d 	.word	0x1000011d
100000b8:	1000011d 	.word	0x1000011d
100000bc:	1000011d 	.word	0x1000011d
100000c0:	1000011d 	.word	0x1000011d
100000c4:	1000011d 	.word	0x1000011d
100000c8:	1000011d 	.word	0x1000011d
100000cc:	1000011d 	.word	0x1000011d
100000d0:	1000011d 	.word	0x1000011d
100000d4:	1000011d 	.word	0x1000011d
100000d8:	1000011d 	.word	0x1000011d
100000dc:	1000011d 	.word	0x1000011d
100000e0:	1000011d 	.word	0x1000011d
100000e4:	1000011d 	.word	0x1000011d
100000e8:	1000011d 	.word	0x1000011d
100000ec:	1000011d 	.word	0x1000011d
100000f0:	1000011d 	.word	0x1000011d
100000f4:	1000011d 	.word	0x1000011d
100000f8:	1000011d 	.word	0x1000011d
100000fc:	1000011d 	.word	0x1000011d
10000100:	1000011d 	.word	0x1000011d
10000104:	1000011d 	.word	0x1000011d
10000108:	1000011d 	.word	0x1000011d
1000010c:	1000011d 	.word	0x1000011d

10000110 <isr_invalid>:
10000110:	be00      	bkpt	0x0000

10000112 <isr_nmi>:
10000112:	be00      	bkpt	0x0000

10000114 <isr_hardfault>:
10000114:	be00      	bkpt	0x0000

10000116 <isr_svcall>:
10000116:	be00      	bkpt	0x0000

10000118 <isr_pendsv>:
10000118:	be00      	bkpt	0x0000

1000011a <isr_systick>:
1000011a:	be00      	bkpt	0x0000

1000011c <__unhandled_user_irq>:
1000011c:	f3ef 8005 	mrs	r0, IPSR
10000120:	3810      	subs	r0, #16

10000122 <unhandled_user_irq_num_in_r0>:
10000122:	be00      	bkpt	0x0000

10000124 <binary_info_header>:
10000124:	7188ebf2 	.word	0x7188ebf2
10000128:	10008c8c 	.word	0x10008c8c
1000012c:	10008cac 	.word	0x10008cac
10000130:	100001a8 	.word	0x100001a8
10000134:	e71aa390 	.word	0xe71aa390

10000138 <__binary_info_header_end>:
10000138:	ffffded3 	.word	0xffffded3
1000013c:	10210142 	.word	0x10210142
10000140:	000001ff 	.word	0x000001ff
10000144:	0000a68c 	.word	0x0000a68c
10000148:	ab123579 	.word	0xab123579

1000014c <_entry_point>:
1000014c:	f04f 0000 	mov.w	r0, #0

10000150 <_enter_vtable_in_r0>:
10000150:	4920      	ldr	r1, [pc, #128]	@ (100001d4 <data_cpy_table+0x2c>)
10000152:	6008      	str	r0, [r1, #0]
10000154:	c806      	ldmia	r0!, {r1, r2}
10000156:	f381 8808 	msr	MSP, r1
1000015a:	4710      	bx	r2

1000015c <_reset_handler>:
1000015c:	f04f 4050 	mov.w	r0, #3489660928	@ 0xd0000000
10000160:	6800      	ldr	r0, [r0, #0]
10000162:	b110      	cbz	r0, 1000016a <hold_non_core0_in_bootrom+0x6>

10000164 <hold_non_core0_in_bootrom>:
10000164:	f04f 0000 	mov.w	r0, #0
10000168:	e7f2      	b.n	10000150 <_enter_vtable_in_r0>
1000016a:	a40f      	add	r4, pc, #60	@ (adr r4, 100001a8 <data_cpy_table>)
1000016c:	cc0e      	ldmia	r4!, {r1, r2, r3}
1000016e:	2900      	cmp	r1, #0
10000170:	d002      	beq.n	10000178 <hold_non_core0_in_bootrom+0x14>
10000172:	f000 f815 	bl	100001a0 <data_cpy>
10000176:	e7f9      	b.n	1000016c <hold_non_core0_in_bootrom+0x8>
10000178:	4917      	ldr	r1, [pc, #92]	@ (100001d8 <data_cpy_table+0x30>)
1000017a:	4a18      	ldr	r2, [pc, #96]	@ (100001dc <data_cpy_table+0x34>)
1000017c:	2000      	movs	r0, #0
1000017e:	e000      	b.n	10000182 <bss_fill_test>

10000180 <bss_fill_loop>:
10000180:	c101      	stmia	r1!, {r0}

10000182 <bss_fill_test>:
10000182:	4291      	cmp	r1, r2
10000184:	d1fc      	bne.n	10000180 <bss_fill_loop>

10000186 <platform_entry>:
10000186:	2000      	movs	r0, #0
10000188:	f380 880a 	msr	MSPLIM, r0
1000018c:	4914      	ldr	r1, [pc, #80]	@ (100001e0 <data_cpy_table+0x38>)
1000018e:	4788      	blx	r1
10000190:	4914      	ldr	r1, [pc, #80]	@ (100001e4 <data_cpy_table+0x3c>)
10000192:	4788      	blx	r1
10000194:	4914      	ldr	r1, [pc, #80]	@ (100001e8 <data_cpy_table+0x40>)
10000196:	4788      	blx	r1
10000198:	be00      	bkpt	0x0000
1000019a:	e7fd      	b.n	10000198 <platform_entry+0x12>

1000019c <data_cpy_loop>:
1000019c:	c901      	ldmia	r1!, {r0}
1000019e:	c201      	stmia	r2!, {r0}

100001a0 <data_cpy>:
100001a0:	429a      	cmp	r2, r3
100001a2:	d3fb      	bcc.n	1000019c <data_cpy_loop>
100001a4:	4770      	bx	lr
100001a6:	bf00      	nop

100001a8 <data_cpy_table>:
100001a8:	10008cac 	.word	0x10008cac
100001ac:	20000110 	.word	0x20000110
100001b0:	20001c28 	.word	0x20001c28
100001b4:	1000a7c4 	.word	0x1000a7c4
100001b8:	20080000 	.word	0x20080000
100001bc:	20080000 	.word	0x20080000
100001c0:	1000a7c4 	.word	0x1000a7c4
100001c4:	20081000 	.word	0x20081000
100001c8:	20081000 	.word	0x20081000
100001cc:	00000000 	.word	0x00000000
100001d0:	4770      	bx	lr
100001d2:	0000      	.short	0x0000
100001d4:	e000ed08 	.word	0xe000ed08
100001d8:	20001c28 	.word	0x20001c28
100001dc:	20002a08 	.word	0x20002a08
100001e0:	100047c9 	.word	0x100047c9
100001e4:	100003f9 	.word	0x100003f9
100001e8:	100047c1 	.word	0x100047c1

100001ec <_init>:
100001ec:	b5f8      	push	{r3, r4, r5, r6, r7, lr}
100001ee:	bf00      	nop

100001f0 <register_tm_clones>:
100001f0:	4b06      	ldr	r3, [pc, #24]	@ (1000020c <register_tm_clones+0x1c>)
100001f2:	4907      	ldr	r1, [pc, #28]	@ (10000210 <register_tm_clones+0x20>)
100001f4:	1ac9      	subs	r1, r1, r3
100001f6:	1089      	asrs	r1, r1, #2
100001f8:	bf48      	it	mi
100001fa:	3101      	addmi	r1, #1
100001fc:	1049      	asrs	r1, r1, #1
100001fe:	d003      	beq.n	10000208 <register_tm_clones+0x18>
10000200:	4b04      	ldr	r3, [pc, #16]	@ (10000214 <register_tm_clones+0x24>)
10000202:	b10b      	cbz	r3, 10000208 <register_tm_clones+0x18>
10000204:	4801      	ldr	r0, [pc, #4]	@ (1000020c <register_tm_clones+0x1c>)
10000206:	4718      	bx	r3
10000208:	4770      	bx	lr
1000020a:	bf00      	nop
1000020c:	20001c28 	.word	0x20001c28
10000210:	20001c28 	.word	0x20001c28
10000214:	00000000 	.word	0x00000000

10000218 <frame_dummy>:
10000218:	b508      	push	{r3, lr}
1000021a:	4b05      	ldr	r3, [pc, #20]	@ (10000230 <frame_dummy+0x18>)
1000021c:	b11b      	cbz	r3, 10000226 <frame_dummy+0xe>
1000021e:	4905      	ldr	r1, [pc, #20]	@ (10000234 <frame_dummy+0x1c>)
10000220:	4805      	ldr	r0, [pc, #20]	@ (10000238 <frame_dummy+0x20>)
10000222:	f3af 8000 	nop.w
10000226:	e8bd 4008 	ldmia.w	sp!, {r3, lr}
1000022a:	f7ff bfe1 	b.w	100001f0 <register_tm_clones>
1000022e:	bf00      	nop
10000230:	00000000 	.word	0x00000000
10000234:	20002998 	.word	0x20002998
10000238:	100087f8 	.word	0x100087f8

1000023c <control_temperature>:
1000023c:	b500      	push	{lr}
1000023e:	b083      	sub	sp, #12
10000240:	f007 f8bc 	bl	100073bc <adc_init>
10000244:	2202      	movs	r2, #2
10000246:	ed9f 8a12 	vldr	s16, [pc, #72]	@ 10000290 <control_temperature+0x54>
1000024a:	4b12      	ldr	r3, [pc, #72]	@ (10000294 <control_temperature+0x58>)
1000024c:	4e12      	ldr	r6, [pc, #72]	@ (10000298 <control_temperature+0x5c>)
1000024e:	601a      	str	r2, [r3, #0]
10000250:	2000      	movs	r0, #0
10000252:	f007 fdf9 	bl	10007e48 <time>
10000256:	460c      	mov	r4, r1
10000258:	4605      	mov	r5, r0
1000025a:	f000 f981 	bl	10000560 <read_peltier_thermistor>
1000025e:	462a      	mov	r2, r5
10000260:	4623      	mov	r3, r4
10000262:	9000      	str	r0, [sp, #0]
10000264:	4630      	mov	r0, r6
10000266:	f000 f919 	bl	1000049c <hbridge_update_T>
1000026a:	4630      	mov	r0, r6
1000026c:	f000 f928 	bl	100004c0 <hbridge_smart_drive>
10000270:	edd6 7a09 	vldr	s15, [r6, #36]	@ 0x24
10000274:	eeb6 7a00 	vmov.f32	s14, #96	@ 0x3f000000  0.5
10000278:	ee67 7a88 	vmul.f32	s15, s15, s16
1000027c:	ee67 7a87 	vmul.f32	s15, s15, s14
10000280:	eefc 7ae7 	vcvt.u32.f32	s15, s15
10000284:	ee17 0a90 	vmov	r0, s15
10000288:	f001 f856 	bl	10001338 <sleep_ms>
1000028c:	e7e0      	b.n	10000250 <control_temperature+0x14>
1000028e:	bf00      	nop
10000290:	447a0000 	.word	0x447a0000
10000294:	400a2000 	.word	0x400a2000
10000298:	20001db0 	.word	0x20001db0

1000029c <usb_serial_request_reply>:
1000029c:	e92d 4ff0 	stmdb	sp!, {r4, r5, r6, r7, r8, r9, sl, fp, lr}
100002a0:	b099      	sub	sp, #100	@ 0x64
100002a2:	f004 fbf7 	bl	10004a94 <stdio_init_all>
100002a6:	2300      	movs	r3, #0
100002a8:	4949      	ldr	r1, [pc, #292]	@ (100003d0 <usb_serial_request_reply+0x134>)
100002aa:	2202      	movs	r2, #2
100002ac:	6809      	ldr	r1, [r1, #0]
100002ae:	6888      	ldr	r0, [r1, #8]
100002b0:	4619      	mov	r1, r3
100002b2:	f007 fbdb 	bl	10007a6c <setvbuf>
100002b6:	f004 ff87 	bl	100051c8 <stdio_usb_connected>
100002ba:	2800      	cmp	r0, #0
100002bc:	d0fb      	beq.n	100002b6 <usb_serial_request_reply+0x1a>
100002be:	4845      	ldr	r0, [pc, #276]	@ (100003d4 <usb_serial_request_reply+0x138>)
100002c0:	f004 fc72 	bl	10004ba8 <__wrap_puts>
100002c4:	2400      	movs	r4, #0
100002c6:	f04f 0b00 	mov.w	fp, #0
100002ca:	4e43      	ldr	r6, [pc, #268]	@ (100003d8 <usb_serial_request_reply+0x13c>)
100002cc:	4f43      	ldr	r7, [pc, #268]	@ (100003dc <usb_serial_request_reply+0x140>)
100002ce:	4844      	ldr	r0, [pc, #272]	@ (100003e0 <usb_serial_request_reply+0x144>)
100002d0:	f004 fbe2 	bl	10004a98 <stdio_getchar_timeout_us>
100002d4:	1c83      	adds	r3, r0, #2
100002d6:	2b0f      	cmp	r3, #15
100002d8:	d822      	bhi.n	10000320 <usb_serial_request_reply+0x84>
100002da:	a201      	add	r2, pc, #4	@ (adr r2, 100002e0 <usb_serial_request_reply+0x44>)
100002dc:	f852 f023 	ldr.w	pc, [r2, r3, lsl #2]
100002e0:	100002cf 	.word	0x100002cf
100002e4:	10000321 	.word	0x10000321
100002e8:	10000321 	.word	0x10000321
100002ec:	10000321 	.word	0x10000321
100002f0:	10000321 	.word	0x10000321
100002f4:	10000355 	.word	0x10000355
100002f8:	10000321 	.word	0x10000321
100002fc:	10000321 	.word	0x10000321
10000300:	10000321 	.word	0x10000321
10000304:	10000321 	.word	0x10000321
10000308:	10000321 	.word	0x10000321
1000030c:	10000321 	.word	0x10000321
10000310:	10000333 	.word	0x10000333
10000314:	10000321 	.word	0x10000321
10000318:	10000321 	.word	0x10000321
1000031c:	10000333 	.word	0x10000333
10000320:	f104 0360 	add.w	r3, r4, #96	@ 0x60
10000324:	2c1e      	cmp	r4, #30
10000326:	446b      	add	r3, sp
10000328:	dcd1      	bgt.n	100002ce <usb_serial_request_reply+0x32>
1000032a:	f803 0c50 	strb.w	r0, [r3, #-80]
1000032e:	3401      	adds	r4, #1
10000330:	e7cd      	b.n	100002ce <usb_serial_request_reply+0x32>
10000332:	2300      	movs	r3, #0
10000334:	446c      	add	r4, sp
10000336:	7423      	strb	r3, [r4, #16]
10000338:	9b04      	ldr	r3, [sp, #16]
1000033a:	42b3      	cmp	r3, r6
1000033c:	d011      	beq.n	10000362 <usb_serial_request_reply+0xc6>
1000033e:	42bb      	cmp	r3, r7
10000340:	d03f      	beq.n	100003c2 <usb_serial_request_reply+0x126>
10000342:	f89d 3010 	ldrb.w	r3, [sp, #16]
10000346:	b11b      	cbz	r3, 10000350 <usb_serial_request_reply+0xb4>
10000348:	4826      	ldr	r0, [pc, #152]	@ (100003e4 <usb_serial_request_reply+0x148>)
1000034a:	a904      	add	r1, sp, #16
1000034c:	f004 fcac 	bl	10004ca8 <__wrap_printf>
10000350:	2400      	movs	r4, #0
10000352:	e7bc      	b.n	100002ce <usb_serial_request_reply+0x32>
10000354:	4b24      	ldr	r3, [pc, #144]	@ (100003e8 <usb_serial_request_reply+0x14c>)
10000356:	4825      	ldr	r0, [pc, #148]	@ (100003ec <usb_serial_request_reply+0x150>)
10000358:	f8c3 b028 	str.w	fp, [r3, #40]	@ 0x28
1000035c:	f004 fc24 	bl	10004ba8 <__wrap_puts>
10000360:	e7b5      	b.n	100002ce <usb_serial_request_reply+0x32>
10000362:	f3ef 8c10 	mrs	ip, PRIMASK
10000366:	b672      	cpsid	i
10000368:	4d1f      	ldr	r5, [pc, #124]	@ (100003e8 <usb_serial_request_reply+0x14c>)
1000036a:	ac0c      	add	r4, sp, #48	@ 0x30
1000036c:	cd0f      	ldmia	r5!, {r0, r1, r2, r3}
1000036e:	c40f      	stmia	r4!, {r0, r1, r2, r3}
10000370:	cd0f      	ldmia	r5!, {r0, r1, r2, r3}
10000372:	c40f      	stmia	r4!, {r0, r1, r2, r3}
10000374:	e895 000f 	ldmia.w	r5, {r0, r1, r2, r3}
10000378:	e884 000f 	stmia.w	r4, {r0, r1, r2, r3}
1000037c:	9d0d      	ldr	r5, [sp, #52]	@ 0x34
1000037e:	f8dd a038 	ldr.w	sl, [sp, #56]	@ 0x38
10000382:	f8dd 8050 	ldr.w	r8, [sp, #80]	@ 0x50
10000386:	f8dd 9058 	ldr.w	r9, [sp, #88]	@ 0x58
1000038a:	f38c 8810 	msr	PRIMASK, ip
1000038e:	4628      	mov	r0, r5
10000390:	f008 f9e2 	bl	10008758 <____aeabi_f2d_veneer>
10000394:	4604      	mov	r4, r0
10000396:	4648      	mov	r0, r9
10000398:	460d      	mov	r5, r1
1000039a:	f008 f9dd 	bl	10008758 <____aeabi_f2d_veneer>
1000039e:	4602      	mov	r2, r0
100003a0:	460b      	mov	r3, r1
100003a2:	4640      	mov	r0, r8
100003a4:	e9cd 2302 	strd	r2, r3, [sp, #8]
100003a8:	f008 f9d6 	bl	10008758 <____aeabi_f2d_veneer>
100003ac:	4680      	mov	r8, r0
100003ae:	4689      	mov	r9, r1
100003b0:	4622      	mov	r2, r4
100003b2:	462b      	mov	r3, r5
100003b4:	4651      	mov	r1, sl
100003b6:	e9cd 8900 	strd	r8, r9, [sp]
100003ba:	480d      	ldr	r0, [pc, #52]	@ (100003f0 <usb_serial_request_reply+0x154>)
100003bc:	f004 fc74 	bl	10004ca8 <__wrap_printf>
100003c0:	e7c6      	b.n	10000350 <usb_serial_request_reply+0xb4>
100003c2:	480c      	ldr	r0, [pc, #48]	@ (100003f4 <usb_serial_request_reply+0x158>)
100003c4:	f004 fbf0 	bl	10004ba8 <__wrap_puts>
100003c8:	b019      	add	sp, #100	@ 0x64
100003ca:	e8bd 8ff0 	ldmia.w	sp!, {r4, r5, r6, r7, r8, r9, sl, fp, pc}
100003ce:	bf00      	nop
100003d0:	20001ad4 	.word	0x20001ad4
100003d4:	100087f8 	.word	0x100087f8
100003d8:	00514552 	.word	0x00514552
100003dc:	00444e45 	.word	0x00444e45
100003e0:	000186a0 	.word	0x000186a0
100003e4:	10008880 	.word	0x10008880
100003e8:	20001db0 	.word	0x20001db0
100003ec:	10008830 	.word	0x10008830
100003f0:	10008850 	.word	0x10008850
100003f4:	1000886c 	.word	0x1000886c

100003f8 <main>:
100003f8:	b508      	push	{r3, lr}
100003fa:	4a06      	ldr	r2, [pc, #24]	@ (10000414 <main+0x1c>)
100003fc:	4b06      	ldr	r3, [pc, #24]	@ (10000418 <main+0x20>)
100003fe:	4907      	ldr	r1, [pc, #28]	@ (1000041c <main+0x24>)
10000400:	4807      	ldr	r0, [pc, #28]	@ (10000420 <main+0x28>)
10000402:	f000 f811 	bl	10000428 <hbridge_init>
10000406:	4807      	ldr	r0, [pc, #28]	@ (10000424 <main+0x2c>)
10000408:	f007 f83c 	bl	10007484 <multicore_launch_core1>
1000040c:	f7ff ff46 	bl	1000029c <usb_serial_request_reply>
10000410:	2000      	movs	r0, #0
10000412:	bd08      	pop	{r3, pc}
10000414:	41200000 	.word	0x41200000
10000418:	3f333333 	.word	0x3f333333
1000041c:	420c0000 	.word	0x420c0000
10000420:	20001db0 	.word	0x20001db0
10000424:	1000023d 	.word	0x1000023d

10000428 <hbridge_init>:
10000428:	e92d 47f0 	stmdb	sp!, {r4, r5, r6, r7, r8, r9, sl, lr}
1000042c:	4604      	mov	r4, r0
1000042e:	460f      	mov	r7, r1
10000430:	2010      	movs	r0, #16
10000432:	2104      	movs	r1, #4
10000434:	2600      	movs	r6, #0
10000436:	4692      	mov	sl, r2
10000438:	4699      	mov	r9, r3
1000043a:	f04f 0801 	mov.w	r8, #1
1000043e:	f000 f90d 	bl	1000065c <gpio_set_function>
10000442:	f44f 727a 	mov.w	r2, #1000	@ 0x3e8
10000446:	2310      	movs	r3, #16
10000448:	4d13      	ldr	r5, [pc, #76]	@ (10000498 <hbridge_init+0x70>)
1000044a:	6026      	str	r6, [r4, #0]
1000044c:	2012      	movs	r0, #18
1000044e:	602e      	str	r6, [r5, #0]
10000450:	60ae      	str	r6, [r5, #8]
10000452:	60ee      	str	r6, [r5, #12]
10000454:	612a      	str	r2, [r5, #16]
10000456:	606b      	str	r3, [r5, #4]
10000458:	f8c5 8000 	str.w	r8, [r5]
1000045c:	f000 f91c 	bl	10000698 <gpio_init>
10000460:	2312      	movs	r3, #18
10000462:	ec48 3044 	gpioc_bit_oe_put r3, r8
10000466:	2013      	movs	r0, #19
10000468:	f000 f916 	bl	10000698 <gpio_init>
1000046c:	2313      	movs	r3, #19
1000046e:	ec48 3044 	gpioc_bit_oe_put r3, r8
10000472:	4630      	mov	r0, r6
10000474:	6227      	str	r7, [r4, #32]
10000476:	6067      	str	r7, [r4, #4]
10000478:	6127      	str	r7, [r4, #16]
1000047a:	f8c4 a024 	str.w	sl, [r4, #36]	@ 0x24
1000047e:	f007 fce3 	bl	10007e48 <time>
10000482:	2300      	movs	r3, #0
10000484:	e9c4 0102 	strd	r0, r1, [r4, #8]
10000488:	e9c4 0106 	strd	r0, r1, [r4, #24]
1000048c:	f8c4 902c 	str.w	r9, [r4, #44]	@ 0x2c
10000490:	62a3      	str	r3, [r4, #40]	@ 0x28
10000492:	e8bd 87f0 	ldmia.w	sp!, {r4, r5, r6, r7, r8, r9, sl, pc}
10000496:	bf00      	nop
10000498:	400a8000 	.word	0x400a8000

1000049c <hbridge_update_T>:
1000049c:	b430      	push	{r4, r5}
1000049e:	ed90 7b02 	vldr	d7, [r0, #8]
100004a2:	4614      	mov	r4, r2
100004a4:	461d      	mov	r5, r3
100004a6:	9a02      	ldr	r2, [sp, #8]
100004a8:	6843      	ldr	r3, [r0, #4]
100004aa:	e9c0 4502 	strd	r4, r5, [r0, #8]
100004ae:	bc30      	pop	{r4, r5}
100004b0:	ed80 7b06 	vstr	d7, [r0, #24]
100004b4:	6042      	str	r2, [r0, #4]
100004b6:	6103      	str	r3, [r0, #16]
100004b8:	4770      	bx	lr
100004ba:	bf00      	nop
100004bc:	0000      	movs	r0, r0
	...

100004c0 <hbridge_smart_drive>:
100004c0:	b510      	push	{r4, lr}
100004c2:	edd0 7a01 	vldr	s15, [r0, #4]
100004c6:	ed2d 8b02 	vpush	{d8}
100004ca:	ed90 8a08 	vldr	s16, [r0, #32]
100004ce:	ee38 8a67 	vsub.f32	s16, s16, s15
100004d2:	4604      	mov	r4, r0
100004d4:	ee18 0a10 	vmov	r0, s16
100004d8:	f008 f93e 	bl	10008758 <____aeabi_f2d_veneer>
100004dc:	a31e      	add	r3, pc, #120	@ (adr r3, 10000558 <hbridge_smart_drive+0x98>)
100004de:	e9d3 2300 	ldrd	r2, r3, [r3]
100004e2:	eeb5 8ac0 	vcmpe.f32	s16, #0.0
100004e6:	eef1 fa10 	vmrs	APSR_nzcv, fpscr
100004ea:	dd24      	ble.n	10000536 <hbridge_smart_drive+0x76>
100004ec:	f002 f8e8 	bl	100026c0 <__wrap___aeabi_dcmpgt>
100004f0:	b168      	cbz	r0, 1000050e <hbridge_smart_drive+0x4e>
100004f2:	2300      	movs	r3, #0
100004f4:	4a14      	ldr	r2, [pc, #80]	@ (10000548 <hbridge_smart_drive+0x88>)
100004f6:	62a2      	str	r2, [r4, #40]	@ 0x28
100004f8:	2212      	movs	r2, #18
100004fa:	ec43 2040 	gpioc_bit_out_put r2, r3
100004fe:	2213      	movs	r2, #19
10000500:	f083 0301 	eor.w	r3, r3, #1
10000504:	ec43 2040 	gpioc_bit_out_put r2, r3
10000508:	f44f 71d2 	mov.w	r1, #420	@ 0x1a4
1000050c:	e00a      	b.n	10000524 <hbridge_smart_drive+0x64>
1000050e:	2100      	movs	r1, #0
10000510:	2212      	movs	r2, #18
10000512:	f04f 0300 	mov.w	r3, #0
10000516:	62a1      	str	r1, [r4, #40]	@ 0x28
10000518:	ec43 2040 	gpioc_bit_out_put r2, r3
1000051c:	2213      	movs	r2, #19
1000051e:	ec43 2040 	gpioc_bit_out_put r2, r3
10000522:	2100      	movs	r1, #0
10000524:	ecbd 8b02 	vpop	{d8}
10000528:	4b08      	ldr	r3, [pc, #32]	@ (1000054c <hbridge_smart_drive+0x8c>)
1000052a:	4a09      	ldr	r2, [pc, #36]	@ (10000550 <hbridge_smart_drive+0x90>)
1000052c:	68db      	ldr	r3, [r3, #12]
1000052e:	404b      	eors	r3, r1
10000530:	b29b      	uxth	r3, r3
10000532:	60d3      	str	r3, [r2, #12]
10000534:	bd10      	pop	{r4, pc}
10000536:	f002 f887 	bl	10002648 <__wrap___aeabi_dcmplt>
1000053a:	2800      	cmp	r0, #0
1000053c:	d0e7      	beq.n	1000050e <hbridge_smart_drive+0x4e>
1000053e:	2301      	movs	r3, #1
10000540:	4a04      	ldr	r2, [pc, #16]	@ (10000554 <hbridge_smart_drive+0x94>)
10000542:	e7d8      	b.n	100004f6 <hbridge_smart_drive+0x36>
10000544:	f3af 8000 	nop.w
10000548:	be4ccccd 	.word	0xbe4ccccd
1000054c:	400a8000 	.word	0x400a8000
10000550:	400a9000 	.word	0x400a9000
10000554:	3e4ccccd 	.word	0x3e4ccccd
10000558:	9999999a 	.word	0x9999999a
1000055c:	3fb99999 	.word	0x3fb99999

10000560 <read_peltier_thermistor>:
10000560:	2004      	movs	r0, #4
10000562:	4a37      	ldr	r2, [pc, #220]	@ (10000640 <read_peltier_thermistor+0xe0>)
10000564:	b5f8      	push	{r3, r4, r5, r6, r7, lr}
10000566:	6813      	ldr	r3, [r2, #0]
10000568:	4c36      	ldr	r4, [pc, #216]	@ (10000644 <read_peltier_thermistor+0xe4>)
1000056a:	4937      	ldr	r1, [pc, #220]	@ (10000648 <read_peltier_thermistor+0xe8>)
1000056c:	f403 4370 	and.w	r3, r3, #61440	@ 0xf000
10000570:	6023      	str	r3, [r4, #0]
10000572:	6008      	str	r0, [r1, #0]
10000574:	6813      	ldr	r3, [r2, #0]
10000576:	05db      	lsls	r3, r3, #23
10000578:	d5fc      	bpl.n	10000574 <read_peltier_thermistor+0x14>
1000057a:	6853      	ldr	r3, [r2, #4]
1000057c:	ed9f 6a33 	vldr	s12, [pc, #204]	@ 1000064c <read_peltier_thermistor+0xec>
10000580:	b29b      	uxth	r3, r3
10000582:	ee07 3a90 	vmov	s15, r3
10000586:	eef8 7ae7 	vcvt.f32.s32	s15, s15
1000058a:	ed9f 7a31 	vldr	s14, [pc, #196]	@ 10000650 <read_peltier_thermistor+0xf0>
1000058e:	ee67 7a86 	vmul.f32	s15, s15, s12
10000592:	ee37 7a67 	vsub.f32	s14, s14, s15
10000596:	eddf 6a2f 	vldr	s13, [pc, #188]	@ 10000654 <read_peltier_thermistor+0xf4>
1000059a:	ee87 6a87 	vdiv.f32	s12, s15, s14
1000059e:	ee66 7a26 	vmul.f32	s15, s12, s13
100005a2:	ee17 0a90 	vmov	r0, s15
100005a6:	f002 fc53 	bl	10002e50 <__wrap_logf>
100005aa:	f008 f8d5 	bl	10008758 <____aeabi_f2d_veneer>
100005ae:	2200      	movs	r2, #0
100005b0:	4b29      	ldr	r3, [pc, #164]	@ (10000658 <read_peltier_thermistor+0xf8>)
100005b2:	4604      	mov	r4, r0
100005b4:	460d      	mov	r5, r1
100005b6:	f001 fda1 	bl	100020fc <__wrap_pow>
100005ba:	a319      	add	r3, pc, #100	@ (adr r3, 10000620 <read_peltier_thermistor+0xc0>)
100005bc:	e9d3 2300 	ldrd	r2, r3, [r3]
100005c0:	4606      	mov	r6, r0
100005c2:	460f      	mov	r7, r1
100005c4:	4620      	mov	r0, r4
100005c6:	4629      	mov	r1, r5
100005c8:	f001 ff50 	bl	1000246c <__wrap___aeabi_dmul>
100005cc:	a316      	add	r3, pc, #88	@ (adr r3, 10000628 <read_peltier_thermistor+0xc8>)
100005ce:	e9d3 2300 	ldrd	r2, r3, [r3]
100005d2:	f001 ff23 	bl	1000241c <__wrap___aeabi_dadd>
100005d6:	a316      	add	r3, pc, #88	@ (adr r3, 10000630 <read_peltier_thermistor+0xd0>)
100005d8:	e9d3 2300 	ldrd	r2, r3, [r3]
100005dc:	4604      	mov	r4, r0
100005de:	460d      	mov	r5, r1
100005e0:	4630      	mov	r0, r6
100005e2:	4639      	mov	r1, r7
100005e4:	f001 ff42 	bl	1000246c <__wrap___aeabi_dmul>
100005e8:	4602      	mov	r2, r0
100005ea:	460b      	mov	r3, r1
100005ec:	4620      	mov	r0, r4
100005ee:	4629      	mov	r1, r5
100005f0:	f001 ff14 	bl	1000241c <__wrap___aeabi_dadd>
100005f4:	f001 ffae 	bl	10002554 <__wrap___aeabi_d2f>
100005f8:	eeb7 7a00 	vmov.f32	s14, #112	@ 0x3f800000  1.0
100005fc:	ee07 0a90 	vmov	s15, r0
10000600:	eec7 7a27 	vdiv.f32	s15, s14, s15
10000604:	ee17 0a90 	vmov	r0, s15
10000608:	f008 f8a6 	bl	10008758 <____aeabi_f2d_veneer>
1000060c:	a30a      	add	r3, pc, #40	@ (adr r3, 10000638 <read_peltier_thermistor+0xd8>)
1000060e:	e9d3 2300 	ldrd	r2, r3, [r3]
10000612:	f001 ff17 	bl	10002444 <__wrap___aeabi_dsub>
10000616:	f001 ff9d 	bl	10002554 <__wrap___aeabi_d2f>
1000061a:	bdf8      	pop	{r3, r4, r5, r6, r7, pc}
1000061c:	f3af 8000 	nop.w
10000620:	0d2d3a20 	.word	0x0d2d3a20
10000624:	3f305436 	.word	0x3f305436
10000628:	12091700 	.word	0x12091700
1000062c:	3f512480 	.word	0x3f512480
10000630:	ade6df5f 	.word	0xade6df5f
10000634:	3e51a5e4 	.word	0x3e51a5e4
10000638:	66666666 	.word	0x66666666
1000063c:	40711266 	.word	0x40711266
10000640:	400a0000 	.word	0x400a0000
10000644:	400a1000 	.word	0x400a1000
10000648:	400a2000 	.word	0x400a2000
1000064c:	3a533333 	.word	0x3a533333
10000650:	40533333 	.word	0x40533333
10000654:	461c4000 	.word	0x461c4000
10000658:	40080000 	.word	0x40080000

1000065c <gpio_set_function>:
1000065c:	b410      	push	{r4}
1000065e:	f44f 7480 	mov.w	r4, #256	@ 0x100
10000662:	4b0c      	ldr	r3, [pc, #48]	@ (10000694 <gpio_set_function+0x38>)
10000664:	f853 2020 	ldr.w	r2, [r3, r0, lsl #2]
10000668:	eb03 0380 	add.w	r3, r3, r0, lsl #2
1000066c:	00c0      	lsls	r0, r0, #3
1000066e:	f082 0240 	eor.w	r2, r2, #64	@ 0x40
10000672:	f100 4080 	add.w	r0, r0, #1073741824	@ 0x40000000
10000676:	f503 5c80 	add.w	ip, r3, #4096	@ 0x1000
1000067a:	f002 02c0 	and.w	r2, r2, #192	@ 0xc0
1000067e:	f500 3020 	add.w	r0, r0, #163840	@ 0x28000
10000682:	f503 5340 	add.w	r3, r3, #12288	@ 0x3000
10000686:	f8cc 2000 	str.w	r2, [ip]
1000068a:	6041      	str	r1, [r0, #4]
1000068c:	601c      	str	r4, [r3, #0]
1000068e:	f85d 4b04 	ldr.w	r4, [sp], #4
10000692:	4770      	bx	lr
10000694:	40038004 	.word	0x40038004

10000698 <gpio_init>:
10000698:	b430      	push	{r4, r5}
1000069a:	f04f 0300 	mov.w	r3, #0
1000069e:	ec43 0044 	gpioc_bit_oe_put r0, r3
100006a2:	ec43 0040 	gpioc_bit_out_put r0, r3
100006a6:	2505      	movs	r5, #5
100006a8:	f44f 7480 	mov.w	r4, #256	@ 0x100
100006ac:	4b0b      	ldr	r3, [pc, #44]	@ (100006dc <gpio_init+0x44>)
100006ae:	00c2      	lsls	r2, r0, #3
100006b0:	f853 1020 	ldr.w	r1, [r3, r0, lsl #2]
100006b4:	eb03 0080 	add.w	r0, r3, r0, lsl #2
100006b8:	f081 0140 	eor.w	r1, r1, #64	@ 0x40
100006bc:	f102 4380 	add.w	r3, r2, #1073741824	@ 0x40000000
100006c0:	f503 3320 	add.w	r3, r3, #163840	@ 0x28000
100006c4:	f001 02c0 	and.w	r2, r1, #192	@ 0xc0
100006c8:	f500 5180 	add.w	r1, r0, #4096	@ 0x1000
100006cc:	f500 5040 	add.w	r0, r0, #12288	@ 0x3000
100006d0:	600a      	str	r2, [r1, #0]
100006d2:	605d      	str	r5, [r3, #4]
100006d4:	6004      	str	r4, [r0, #0]
100006d6:	bc30      	pop	{r4, r5}
100006d8:	4770      	bx	lr
100006da:	bf00      	nop
100006dc:	40038004 	.word	0x40038004

100006e0 <panic>:
100006e0:	b40f      	push	{r0, r1, r2, r3}
100006e2:	b500      	push	{lr}
100006e4:	b083      	sub	sp, #12
100006e6:	9c04      	ldr	r4, [sp, #16]
100006e8:	4807      	ldr	r0, [pc, #28]	@ (10000708 <panic+0x28>)
100006ea:	f004 fa5d 	bl	10004ba8 <__wrap_puts>
100006ee:	b13c      	cbz	r4, 10000700 <panic+0x20>
100006f0:	a905      	add	r1, sp, #20
100006f2:	4620      	mov	r0, r4
100006f4:	9101      	str	r1, [sp, #4]
100006f6:	f003 ffef 	bl	100046d8 <weak_raw_vprintf>
100006fa:	4804      	ldr	r0, [pc, #16]	@ (1000070c <panic+0x2c>)
100006fc:	f004 fa54 	bl	10004ba8 <__wrap_puts>
10000700:	2001      	movs	r0, #1
10000702:	f004 f801 	bl	10004708 <_exit>
10000706:	bf00      	nop
10000708:	10008898 	.word	0x10008898
1000070c:	100088a8 	.word	0x100088a8

10000710 <hw_claim_or_assert>:
10000710:	b570      	push	{r4, r5, r6, lr}
10000712:	4686      	mov	lr, r0
10000714:	f3ef 8510 	mrs	r5, PRIMASK
10000718:	b672      	cpsid	i
1000071a:	4c12      	ldr	r4, [pc, #72]	@ (10000764 <hw_claim_or_assert+0x54>)
1000071c:	e8d4 6fcf 	ldaexb	r6, [r4]
10000720:	2001      	movs	r0, #1
10000722:	2e00      	cmp	r6, #0
10000724:	d1fa      	bne.n	1000071c <hw_claim_or_assert+0xc>
10000726:	e8c4 0f46 	strexb	r6, r0, [r4]
1000072a:	2e00      	cmp	r6, #0
1000072c:	d1f6      	bne.n	1000071c <hw_claim_or_assert+0xc>
1000072e:	f3bf 8f5f 	dmb	sy
10000732:	f04f 0c01 	mov.w	ip, #1
10000736:	08c8      	lsrs	r0, r1, #3
10000738:	f001 0307 	and.w	r3, r1, #7
1000073c:	fa0c f303 	lsl.w	r3, ip, r3
10000740:	f81e c000 	ldrb.w	ip, [lr, r0]
10000744:	ea1c 0603 	ands.w	r6, ip, r3
10000748:	d108      	bne.n	1000075c <hw_claim_or_assert+0x4c>
1000074a:	ea4c 0c03 	orr.w	ip, ip, r3
1000074e:	f80e c000 	strb.w	ip, [lr, r0]
10000752:	e8c4 6f8f 	stlb	r6, [r4]
10000756:	f385 8810 	msr	PRIMASK, r5
1000075a:	bd70      	pop	{r4, r5, r6, pc}
1000075c:	4610      	mov	r0, r2
1000075e:	f7ff ffbf 	bl	100006e0 <panic>
10000762:	bf00      	nop
10000764:	2000210f 	.word	0x2000210f

10000768 <hw_claim_unused_from_range>:
10000768:	b5f8      	push	{r3, r4, r5, r6, r7, lr}
1000076a:	f3ef 8710 	mrs	r7, PRIMASK
1000076e:	b672      	cpsid	i
10000770:	4e1c      	ldr	r6, [pc, #112]	@ (100007e4 <hw_claim_unused_from_range+0x7c>)
10000772:	e8d6 5fcf 	ldaexb	r5, [r6]
10000776:	2401      	movs	r4, #1
10000778:	2d00      	cmp	r5, #0
1000077a:	d1fa      	bne.n	10000772 <hw_claim_unused_from_range+0xa>
1000077c:	e8c6 4f45 	strexb	r5, r4, [r6]
10000780:	2d00      	cmp	r5, #0
10000782:	d1f6      	bne.n	10000772 <hw_claim_unused_from_range+0xa>
10000784:	f3bf 8f5f 	dmb	sy
10000788:	429a      	cmp	r2, r3
1000078a:	d81b      	bhi.n	100007c4 <hw_claim_unused_from_range+0x5c>
1000078c:	2501      	movs	r5, #1
1000078e:	e002      	b.n	10000796 <hw_claim_unused_from_range+0x2e>
10000790:	3201      	adds	r2, #1
10000792:	4293      	cmp	r3, r2
10000794:	d322      	bcc.n	100007dc <hw_claim_unused_from_range+0x74>
10000796:	08d4      	lsrs	r4, r2, #3
10000798:	f810 e004 	ldrb.w	lr, [r0, r4]
1000079c:	f002 0c07 	and.w	ip, r2, #7
100007a0:	fa05 fc0c 	lsl.w	ip, r5, ip
100007a4:	ea1e 0f0c 	tst.w	lr, ip
100007a8:	d1f2      	bne.n	10000790 <hw_claim_unused_from_range+0x28>
100007aa:	ea4e 0e0c 	orr.w	lr, lr, ip
100007ae:	f800 e004 	strb.w	lr, [r0, r4]
100007b2:	4610      	mov	r0, r2
100007b4:	2300      	movs	r3, #0
100007b6:	e8c6 3f8f 	stlb	r3, [r6]
100007ba:	f387 8810 	msr	PRIMASK, r7
100007be:	4298      	cmp	r0, r3
100007c0:	db07      	blt.n	100007d2 <hw_claim_unused_from_range+0x6a>
100007c2:	bdf8      	pop	{r3, r4, r5, r6, r7, pc}
100007c4:	2300      	movs	r3, #0
100007c6:	e8c6 3f8f 	stlb	r3, [r6]
100007ca:	f387 8810 	msr	PRIMASK, r7
100007ce:	f04f 30ff 	mov.w	r0, #4294967295	@ 0xffffffff
100007d2:	2900      	cmp	r1, #0
100007d4:	d0f5      	beq.n	100007c2 <hw_claim_unused_from_range+0x5a>
100007d6:	9806      	ldr	r0, [sp, #24]
100007d8:	f7ff ff82 	bl	100006e0 <panic>
100007dc:	f04f 30ff 	mov.w	r0, #4294967295	@ 0xffffffff
100007e0:	e7e8      	b.n	100007b4 <hw_claim_unused_from_range+0x4c>
100007e2:	bf00      	nop
100007e4:	2000210f 	.word	0x2000210f

100007e8 <next_striped_spin_lock_num>:
100007e8:	4a04      	ldr	r2, [pc, #16]	@ (100007fc <next_striped_spin_lock_num+0x14>)
100007ea:	7810      	ldrb	r0, [r2, #0]
100007ec:	1c43      	adds	r3, r0, #1
100007ee:	b2db      	uxtb	r3, r3
100007f0:	2b18      	cmp	r3, #24
100007f2:	bf28      	it	cs
100007f4:	2310      	movcs	r3, #16
100007f6:	7013      	strb	r3, [r2, #0]
100007f8:	4770      	bx	lr
100007fa:	bf00      	nop
100007fc:	20001618 	.word	0x20001618

10000800 <spin_lock_claim_unused>:
10000800:	b510      	push	{r4, lr}
10000802:	4c05      	ldr	r4, [pc, #20]	@ (10000818 <spin_lock_claim_unused+0x18>)
10000804:	b082      	sub	sp, #8
10000806:	4601      	mov	r1, r0
10000808:	231f      	movs	r3, #31
1000080a:	2218      	movs	r2, #24
1000080c:	9400      	str	r4, [sp, #0]
1000080e:	4803      	ldr	r0, [pc, #12]	@ (1000081c <spin_lock_claim_unused+0x1c>)
10000810:	f7ff ffaa 	bl	10000768 <hw_claim_unused_from_range>
10000814:	b002      	add	sp, #8
10000816:	bd10      	pop	{r4, pc}
10000818:	100088ac 	.word	0x100088ac
1000081c:	20002520 	.word	0x20002520

10000820 <spinlock_set_extexclall>:
10000820:	f04f 22e0 	mov.w	r2, #3758153728	@ 0xe000e000
10000824:	6893      	ldr	r3, [r2, #8]
10000826:	f043 5300 	orr.w	r3, r3, #536870912	@ 0x20000000
1000082a:	6093      	str	r3, [r2, #8]
1000082c:	4770      	bx	lr
1000082e:	bf00      	nop

10000830 <spin_locks_reset>:
10000830:	2100      	movs	r1, #0
10000832:	4b04      	ldr	r3, [pc, #16]	@ (10000844 <spin_locks_reset+0x14>)
10000834:	f103 0220 	add.w	r2, r3, #32
10000838:	e8c3 1f8f 	stlb	r1, [r3]
1000083c:	3301      	adds	r3, #1
1000083e:	4293      	cmp	r3, r2
10000840:	d1fa      	bne.n	10000838 <spin_locks_reset+0x8>
10000842:	4770      	bx	lr
10000844:	20002104 	.word	0x20002104

10000848 <runtime_init_per_core_irq_priorities>:
10000848:	f04f 23e0 	mov.w	r3, #3758153728	@ 0xe000e000
1000084c:	f04f 3280 	mov.w	r2, #2155905152	@ 0x80808080
10000850:	f8c3 2400 	str.w	r2, [r3, #1024]	@ 0x400
10000854:	f8c3 2404 	str.w	r2, [r3, #1028]	@ 0x404
10000858:	f8c3 2408 	str.w	r2, [r3, #1032]	@ 0x408
1000085c:	f8c3 240c 	str.w	r2, [r3, #1036]	@ 0x40c
10000860:	f8c3 2410 	str.w	r2, [r3, #1040]	@ 0x410
10000864:	f8c3 2414 	str.w	r2, [r3, #1044]	@ 0x414
10000868:	f8c3 2418 	str.w	r2, [r3, #1048]	@ 0x418
1000086c:	f8c3 241c 	str.w	r2, [r3, #1052]	@ 0x41c
10000870:	f8c3 2420 	str.w	r2, [r3, #1056]	@ 0x420
10000874:	f8c3 2424 	str.w	r2, [r3, #1060]	@ 0x424
10000878:	f8c3 2428 	str.w	r2, [r3, #1064]	@ 0x428
1000087c:	f8c3 242c 	str.w	r2, [r3, #1068]	@ 0x42c
10000880:	f8c3 2430 	str.w	r2, [r3, #1072]	@ 0x430
10000884:	4770      	bx	lr
10000886:	bf00      	nop

10000888 <irq_set_enabled>:
10000888:	2301      	movs	r3, #1
1000088a:	f000 021f 	and.w	r2, r0, #31
1000088e:	4093      	lsls	r3, r2
10000890:	0940      	lsrs	r0, r0, #5
10000892:	b141      	cbz	r1, 100008a6 <irq_set_enabled+0x1e>
10000894:	0080      	lsls	r0, r0, #2
10000896:	f100 4060 	add.w	r0, r0, #3758096384	@ 0xe0000000
1000089a:	f500 4061 	add.w	r0, r0, #57600	@ 0xe100
1000089e:	f8c0 3180 	str.w	r3, [r0, #384]	@ 0x180
100008a2:	6003      	str	r3, [r0, #0]
100008a4:	4770      	bx	lr
100008a6:	4a02      	ldr	r2, [pc, #8]	@ (100008b0 <irq_set_enabled+0x28>)
100008a8:	3020      	adds	r0, #32
100008aa:	f842 3020 	str.w	r3, [r2, r0, lsl #2]
100008ae:	4770      	bx	lr
100008b0:	e000e100 	.word	0xe000e100

100008b4 <irq_is_enabled>:
100008b4:	2301      	movs	r3, #1
100008b6:	4a06      	ldr	r2, [pc, #24]	@ (100008d0 <irq_is_enabled+0x1c>)
100008b8:	0941      	lsrs	r1, r0, #5
100008ba:	f852 2021 	ldr.w	r2, [r2, r1, lsl #2]
100008be:	f000 001f 	and.w	r0, r0, #31
100008c2:	fa03 f000 	lsl.w	r0, r3, r0
100008c6:	4010      	ands	r0, r2
100008c8:	3800      	subs	r0, #0
100008ca:	bf18      	it	ne
100008cc:	2001      	movne	r0, #1
100008ce:	4770      	bx	lr
100008d0:	e000e100 	.word	0xe000e100

100008d4 <irq_set_pending>:
100008d4:	2201      	movs	r2, #1
100008d6:	0943      	lsrs	r3, r0, #5
100008d8:	4903      	ldr	r1, [pc, #12]	@ (100008e8 <irq_set_pending+0x14>)
100008da:	f000 001f 	and.w	r0, r0, #31
100008de:	4082      	lsls	r2, r0
100008e0:	3340      	adds	r3, #64	@ 0x40
100008e2:	f841 2023 	str.w	r2, [r1, r3, lsl #2]
100008e6:	4770      	bx	lr
100008e8:	e000e100 	.word	0xe000e100

100008ec <irq_has_shared_handler>:
100008ec:	4a05      	ldr	r2, [pc, #20]	@ (10000904 <irq_has_shared_handler+0x18>)
100008ee:	3010      	adds	r0, #16
100008f0:	6892      	ldr	r2, [r2, #8]
100008f2:	4b05      	ldr	r3, [pc, #20]	@ (10000908 <irq_has_shared_handler+0x1c>)
100008f4:	f852 0020 	ldr.w	r0, [r2, r0, lsl #2]
100008f8:	1ac0      	subs	r0, r0, r3
100008fa:	282f      	cmp	r0, #47	@ 0x2f
100008fc:	bf8c      	ite	hi
100008fe:	2000      	movhi	r0, #0
10000900:	2001      	movls	r0, #1
10000902:	4770      	bx	lr
10000904:	e000ed00 	.word	0xe000ed00
10000908:	2000161c 	.word	0x2000161c

1000090c <irq_set_exclusive_handler>:
1000090c:	b5f8      	push	{r3, r4, r5, r6, r7, lr}
1000090e:	460d      	mov	r5, r1
10000910:	f3ef 8710 	mrs	r7, PRIMASK
10000914:	b672      	cpsid	i
10000916:	4e12      	ldr	r6, [pc, #72]	@ (10000960 <irq_set_exclusive_handler+0x54>)
10000918:	e8d6 2fcf 	ldaexb	r2, [r6]
1000091c:	2301      	movs	r3, #1
1000091e:	2a00      	cmp	r2, #0
10000920:	d1fa      	bne.n	10000918 <irq_set_exclusive_handler+0xc>
10000922:	e8c6 3f42 	strexb	r2, r3, [r6]
10000926:	2a00      	cmp	r2, #0
10000928:	d1f6      	bne.n	10000918 <irq_set_exclusive_handler+0xc>
1000092a:	f3bf 8f5f 	dmb	sy
1000092e:	4b0d      	ldr	r3, [pc, #52]	@ (10000964 <irq_set_exclusive_handler+0x58>)
10000930:	f100 0410 	add.w	r4, r0, #16
10000934:	689b      	ldr	r3, [r3, #8]
10000936:	4a0c      	ldr	r2, [pc, #48]	@ (10000968 <irq_set_exclusive_handler+0x5c>)
10000938:	f853 3024 	ldr.w	r3, [r3, r4, lsl #2]
1000093c:	4293      	cmp	r3, r2
1000093e:	d003      	beq.n	10000948 <irq_set_exclusive_handler+0x3c>
10000940:	4299      	cmp	r1, r3
10000942:	d001      	beq.n	10000948 <irq_set_exclusive_handler+0x3c>
10000944:	f000 ffa6 	bl	10001894 <hard_assertion_failure>
10000948:	4b06      	ldr	r3, [pc, #24]	@ (10000964 <irq_set_exclusive_handler+0x58>)
1000094a:	689b      	ldr	r3, [r3, #8]
1000094c:	f843 5024 	str.w	r5, [r3, r4, lsl #2]
10000950:	f3bf 8f5f 	dmb	sy
10000954:	2300      	movs	r3, #0
10000956:	e8c6 3f8f 	stlb	r3, [r6]
1000095a:	f387 8810 	msr	PRIMASK, r7
1000095e:	bdf8      	pop	{r3, r4, r5, r6, r7, pc}
10000960:	2000210d 	.word	0x2000210d
10000964:	e000ed00 	.word	0xe000ed00
10000968:	1000011d 	.word	0x1000011d

1000096c <irq_add_shared_handler>:
1000096c:	e92d 4ff0 	stmdb	sp!, {r4, r5, r6, r7, r8, r9, sl, fp, lr}
10000970:	4681      	mov	r9, r0
10000972:	468b      	mov	fp, r1
10000974:	4616      	mov	r6, r2
10000976:	b083      	sub	sp, #12
10000978:	f3ef 8310 	mrs	r3, PRIMASK
1000097c:	b672      	cpsid	i
1000097e:	f8df a1d0 	ldr.w	sl, [pc, #464]	@ 10000b50 <irq_add_shared_handler+0x1e4>
10000982:	9300      	str	r3, [sp, #0]
10000984:	e8da 1fcf 	ldaexb	r1, [sl]
10000988:	2301      	movs	r3, #1
1000098a:	2900      	cmp	r1, #0
1000098c:	d1fa      	bne.n	10000984 <irq_add_shared_handler+0x18>
1000098e:	e8ca 3f41 	strexb	r1, r3, [sl]
10000992:	2900      	cmp	r1, #0
10000994:	d1f6      	bne.n	10000984 <irq_add_shared_handler+0x18>
10000996:	f3bf 8f5f 	dmb	sy
1000099a:	4b66      	ldr	r3, [pc, #408]	@ (10000b34 <irq_add_shared_handler+0x1c8>)
1000099c:	f993 4000 	ldrsb.w	r4, [r3]
100009a0:	2c00      	cmp	r4, #0
100009a2:	f2c0 80a0 	blt.w	10000ae6 <irq_add_shared_handler+0x17a>
100009a6:	4d64      	ldr	r5, [pc, #400]	@ (10000b38 <irq_add_shared_handler+0x1cc>)
100009a8:	eb04 0744 	add.w	r7, r4, r4, lsl #1
100009ac:	eb05 0887 	add.w	r8, r5, r7, lsl #2
100009b0:	f898 1006 	ldrb.w	r1, [r8, #6]
100009b4:	f109 0910 	add.w	r9, r9, #16
100009b8:	7019      	strb	r1, [r3, #0]
100009ba:	4b60      	ldr	r3, [pc, #384]	@ (10000b3c <irq_add_shared_handler+0x1d0>)
100009bc:	00bf      	lsls	r7, r7, #2
100009be:	689b      	ldr	r3, [r3, #8]
100009c0:	f853 0029 	ldr.w	r0, [r3, r9, lsl #2]
100009c4:	0063      	lsls	r3, r4, #1
100009c6:	1b41      	subs	r1, r0, r5
100009c8:	292f      	cmp	r1, #47	@ 0x2f
100009ca:	d92f      	bls.n	10000a2c <irq_add_shared_handler+0xc0>
100009cc:	495c      	ldr	r1, [pc, #368]	@ (10000b40 <irq_add_shared_handler+0x1d4>)
100009ce:	4288      	cmp	r0, r1
100009d0:	f040 80a4 	bne.w	10000b1c <irq_add_shared_handler+0x1b0>
100009d4:	441c      	add	r4, r3
100009d6:	4b5b      	ldr	r3, [pc, #364]	@ (10000b44 <irq_add_shared_handler+0x1d8>)
100009d8:	3702      	adds	r7, #2
100009da:	442f      	add	r7, r5
100009dc:	3b04      	subs	r3, #4
100009de:	1bdb      	subs	r3, r3, r7
100009e0:	f3c3 034a 	ubfx	r3, r3, #1, #11
100009e4:	ea6f 43c3 	mvn.w	r3, r3, lsl #19
100009e8:	f44f 4121 	mov.w	r1, #41216	@ 0xa100
100009ec:	ea6f 43d3 	mvn.w	r3, r3, lsr #19
100009f0:	f825 1024 	strh.w	r1, [r5, r4, lsl #2]
100009f4:	eb05 0484 	add.w	r4, r5, r4, lsl #2
100009f8:	8063      	strh	r3, [r4, #2]
100009fa:	f64b 5301 	movw	r3, #48385	@ 0xbd01
100009fe:	80a3      	strh	r3, [r4, #4]
10000a00:	23ff      	movs	r3, #255	@ 0xff
10000a02:	f048 0001 	orr.w	r0, r8, #1
10000a06:	71e6      	strb	r6, [r4, #7]
10000a08:	f8c4 b008 	str.w	fp, [r4, #8]
10000a0c:	71a3      	strb	r3, [r4, #6]
10000a0e:	4b4b      	ldr	r3, [pc, #300]	@ (10000b3c <irq_add_shared_handler+0x1d0>)
10000a10:	689b      	ldr	r3, [r3, #8]
10000a12:	f843 0029 	str.w	r0, [r3, r9, lsl #2]
10000a16:	f3bf 8f5f 	dmb	sy
10000a1a:	2300      	movs	r3, #0
10000a1c:	e8ca 3f8f 	stlb	r3, [sl]
10000a20:	9b00      	ldr	r3, [sp, #0]
10000a22:	f383 8810 	msr	PRIMASK, r3
10000a26:	b003      	add	sp, #12
10000a28:	e8bd 8ff0 	ldmia.w	sp!, {r4, r5, r6, r7, r8, r9, sl, fp, pc}
10000a2c:	f020 0e01 	bic.w	lr, r0, #1
10000a30:	f89e 1007 	ldrb.w	r1, [lr, #7]
10000a34:	42b1      	cmp	r1, r6
10000a36:	d82e      	bhi.n	10000a96 <irq_add_shared_handler+0x12a>
10000a38:	f44f 4321 	mov.w	r3, #41216	@ 0xa100
10000a3c:	53eb      	strh	r3, [r5, r7]
10000a3e:	4b41      	ldr	r3, [pc, #260]	@ (10000b44 <irq_add_shared_handler+0x1d8>)
10000a40:	1cb9      	adds	r1, r7, #2
10000a42:	4429      	add	r1, r5
10000a44:	3b04      	subs	r3, #4
10000a46:	3704      	adds	r7, #4
10000a48:	1a5b      	subs	r3, r3, r1
10000a4a:	442f      	add	r7, r5
10000a4c:	f1ae 0104 	sub.w	r1, lr, #4
10000a50:	1bc9      	subs	r1, r1, r7
10000a52:	f3c1 044a 	ubfx	r4, r1, #1, #11
10000a56:	493c      	ldr	r1, [pc, #240]	@ (10000b48 <irq_add_shared_handler+0x1dc>)
10000a58:	f3c3 034a 	ubfx	r3, r3, #1, #11
10000a5c:	430b      	orrs	r3, r1
10000a5e:	4321      	orrs	r1, r4
10000a60:	f8a8 1004 	strh.w	r1, [r8, #4]
10000a64:	4939      	ldr	r1, [pc, #228]	@ (10000b4c <irq_add_shared_handler+0x1e0>)
10000a66:	f8a8 3002 	strh.w	r3, [r8, #2]
10000a6a:	f64a 20aa 	movw	r0, #43690	@ 0xaaaa
10000a6e:	4673      	mov	r3, lr
10000a70:	1b5b      	subs	r3, r3, r5
10000a72:	415b      	adcs	r3, r3
10000a74:	4358      	muls	r0, r3
10000a76:	0d00      	lsrs	r0, r0, #20
10000a78:	f888 6007 	strb.w	r6, [r8, #7]
10000a7c:	f888 0006 	strb.w	r0, [r8, #6]
10000a80:	f8c8 b008 	str.w	fp, [r8, #8]
10000a84:	f048 0001 	orr.w	r0, r8, #1
10000a88:	f8ce 1000 	str.w	r1, [lr]
10000a8c:	e7bf      	b.n	10000a0e <irq_add_shared_handler+0xa2>
10000a8e:	79d1      	ldrb	r1, [r2, #7]
10000a90:	42b1      	cmp	r1, r6
10000a92:	d92e      	bls.n	10000af2 <irq_add_shared_handler+0x186>
10000a94:	4696      	mov	lr, r2
10000a96:	f99e c006 	ldrsb.w	ip, [lr, #6]
10000a9a:	eb0c 024c 	add.w	r2, ip, ip, lsl #1
10000a9e:	f1bc 0f00 	cmp.w	ip, #0
10000aa2:	eb05 0282 	add.w	r2, r5, r2, lsl #2
10000aa6:	daf2      	bge.n	10000a8e <irq_add_shared_handler+0x122>
10000aa8:	f64b 5101 	movw	r1, #48385	@ 0xbd01
10000aac:	f10e 0204 	add.w	r2, lr, #4
10000ab0:	f1a8 0704 	sub.w	r7, r8, #4
10000ab4:	1abf      	subs	r7, r7, r2
10000ab6:	f3c7 074a 	ubfx	r7, r7, #1, #11
10000aba:	ea6f 47c7 	mvn.w	r7, r7, lsl #19
10000abe:	ea6f 47d7 	mvn.w	r7, r7, lsr #19
10000ac2:	f88e 4006 	strb.w	r4, [lr, #6]
10000ac6:	eb03 0804 	add.w	r8, r3, r4
10000aca:	4c20      	ldr	r4, [pc, #128]	@ (10000b4c <irq_add_shared_handler+0x1e0>)
10000acc:	eb05 0388 	add.w	r3, r5, r8, lsl #2
10000ad0:	f8ae 7004 	strh.w	r7, [lr, #4]
10000ad4:	f845 4028 	str.w	r4, [r5, r8, lsl #2]
10000ad8:	8099      	strh	r1, [r3, #4]
10000ada:	f883 c006 	strb.w	ip, [r3, #6]
10000ade:	71de      	strb	r6, [r3, #7]
10000ae0:	f8c3 b008 	str.w	fp, [r3, #8]
10000ae4:	e793      	b.n	10000a0e <irq_add_shared_handler+0xa2>
10000ae6:	f000 fed5 	bl	10001894 <hard_assertion_failure>
10000aea:	4b12      	ldr	r3, [pc, #72]	@ (10000b34 <irq_add_shared_handler+0x1c8>)
10000aec:	f993 4000 	ldrsb.w	r4, [r3]
10000af0:	e759      	b.n	100009a6 <irq_add_shared_handler+0x3a>
10000af2:	4672      	mov	r2, lr
10000af4:	f832 1f04 	ldrh.w	r1, [r2, #4]!
10000af8:	0549      	lsls	r1, r1, #21
10000afa:	d414      	bmi.n	10000b26 <irq_add_shared_handler+0x1ba>
10000afc:	1549      	asrs	r1, r1, #21
10000afe:	3102      	adds	r1, #2
10000b00:	eb02 0141 	add.w	r1, r2, r1, lsl #1
10000b04:	9101      	str	r1, [sp, #4]
10000b06:	f06f 0107 	mvn.w	r1, #7
10000b0a:	1bc9      	subs	r1, r1, r7
10000b0c:	9f01      	ldr	r7, [sp, #4]
10000b0e:	1b49      	subs	r1, r1, r5
10000b10:	4439      	add	r1, r7
10000b12:	f3c1 014a 	ubfx	r1, r1, #1, #11
10000b16:	f441 4160 	orr.w	r1, r1, #57344	@ 0xe000
10000b1a:	e7c9      	b.n	10000ab0 <irq_add_shared_handler+0x144>
10000b1c:	9301      	str	r3, [sp, #4]
10000b1e:	f000 feb9 	bl	10001894 <hard_assertion_failure>
10000b22:	9b01      	ldr	r3, [sp, #4]
10000b24:	e756      	b.n	100009d4 <irq_add_shared_handler+0x68>
10000b26:	f501 11ff 	add.w	r1, r1, #2088960	@ 0x1fe000
10000b2a:	f501 51ff 	add.w	r1, r1, #8160	@ 0x1fe0
10000b2e:	311f      	adds	r1, #31
10000b30:	e7e4      	b.n	10000afc <irq_add_shared_handler+0x190>
10000b32:	bf00      	nop
10000b34:	20002a00 	.word	0x20002a00
10000b38:	2000161c 	.word	0x2000161c
10000b3c:	e000ed00 	.word	0xe000ed00
10000b40:	1000011d 	.word	0x1000011d
10000b44:	2000164c 	.word	0x2000164c
10000b48:	ffffe000 	.word	0xffffe000
10000b4c:	47804801 	.word	0x47804801
10000b50:	2000210d 	.word	0x2000210d

10000b54 <irq_add_tail_to_free_list>:
10000b54:	b5f0      	push	{r4, r5, r6, r7, lr}
10000b56:	f3ef 8505 	mrs	r5, IPSR
10000b5a:	b2ed      	uxtb	r5, r5
10000b5c:	f3ef 8c10 	mrs	ip, PRIMASK
10000b60:	b672      	cpsid	i
10000b62:	4926      	ldr	r1, [pc, #152]	@ (10000bfc <irq_add_tail_to_free_list+0xa8>)
10000b64:	e8d1 2fcf 	ldaexb	r2, [r1]
10000b68:	2301      	movs	r3, #1
10000b6a:	2a00      	cmp	r2, #0
10000b6c:	d1fa      	bne.n	10000b64 <irq_add_tail_to_free_list+0x10>
10000b6e:	e8c1 3f42 	strexb	r2, r3, [r1]
10000b72:	2a00      	cmp	r2, #0
10000b74:	d1f6      	bne.n	10000b64 <irq_add_tail_to_free_list+0x10>
10000b76:	f3bf 8f5f 	dmb	sy
10000b7a:	4e21      	ldr	r6, [pc, #132]	@ (10000c00 <irq_add_tail_to_free_list+0xac>)
10000b7c:	f040 0e01 	orr.w	lr, r0, #1
10000b80:	68b4      	ldr	r4, [r6, #8]
10000b82:	f64a 23aa 	movw	r3, #43690	@ 0xaaaa
10000b86:	f854 7025 	ldr.w	r7, [r4, r5, lsl #2]
10000b8a:	4a1e      	ldr	r2, [pc, #120]	@ (10000c04 <irq_add_tail_to_free_list+0xb0>)
10000b8c:	4604      	mov	r4, r0
10000b8e:	1aa4      	subs	r4, r4, r2
10000b90:	4164      	adcs	r4, r4
10000b92:	4363      	muls	r3, r4
10000b94:	0d1b      	lsrs	r3, r3, #20
10000b96:	4577      	cmp	r7, lr
10000b98:	b25b      	sxtb	r3, r3
10000b9a:	d01b      	beq.n	10000bd4 <irq_add_tail_to_free_list+0x80>
10000b9c:	f992 4006 	ldrsb.w	r4, [r2, #6]
10000ba0:	429c      	cmp	r4, r3
10000ba2:	d01c      	beq.n	10000bde <irq_add_tail_to_free_list+0x8a>
10000ba4:	f992 4012 	ldrsb.w	r4, [r2, #18]
10000ba8:	429c      	cmp	r4, r3
10000baa:	d023      	beq.n	10000bf4 <irq_add_tail_to_free_list+0xa0>
10000bac:	f992 401e 	ldrsb.w	r4, [r2, #30]
10000bb0:	429c      	cmp	r4, r3
10000bb2:	d021      	beq.n	10000bf8 <irq_add_tail_to_free_list+0xa4>
10000bb4:	f992 402a 	ldrsb.w	r4, [r2, #42]	@ 0x2a
10000bb8:	429c      	cmp	r4, r3
10000bba:	bf08      	it	eq
10000bbc:	2403      	moveq	r4, #3
10000bbe:	d00f      	beq.n	10000be0 <irq_add_tail_to_free_list+0x8c>
10000bc0:	4a11      	ldr	r2, [pc, #68]	@ (10000c08 <irq_add_tail_to_free_list+0xb4>)
10000bc2:	2400      	movs	r4, #0
10000bc4:	7815      	ldrb	r5, [r2, #0]
10000bc6:	7013      	strb	r3, [r2, #0]
10000bc8:	7185      	strb	r5, [r0, #6]
10000bca:	e8c1 4f8f 	stlb	r4, [r1]
10000bce:	f38c 8810 	msr	PRIMASK, ip
10000bd2:	bdf0      	pop	{r4, r5, r6, r7, pc}
10000bd4:	68b2      	ldr	r2, [r6, #8]
10000bd6:	4c0d      	ldr	r4, [pc, #52]	@ (10000c0c <irq_add_tail_to_free_list+0xb8>)
10000bd8:	f842 4025 	str.w	r4, [r2, r5, lsl #2]
10000bdc:	e7f0      	b.n	10000bc0 <irq_add_tail_to_free_list+0x6c>
10000bde:	2400      	movs	r4, #0
10000be0:	eb04 0444 	add.w	r4, r4, r4, lsl #1
10000be4:	eb02 0284 	add.w	r2, r2, r4, lsl #2
10000be8:	24ff      	movs	r4, #255	@ 0xff
10000bea:	7194      	strb	r4, [r2, #6]
10000bec:	f64b 5401 	movw	r4, #48385	@ 0xbd01
10000bf0:	8094      	strh	r4, [r2, #4]
10000bf2:	e7e5      	b.n	10000bc0 <irq_add_tail_to_free_list+0x6c>
10000bf4:	2401      	movs	r4, #1
10000bf6:	e7f3      	b.n	10000be0 <irq_add_tail_to_free_list+0x8c>
10000bf8:	2402      	movs	r4, #2
10000bfa:	e7f1      	b.n	10000be0 <irq_add_tail_to_free_list+0x8c>
10000bfc:	2000210d 	.word	0x2000210d
10000c00:	e000ed00 	.word	0xe000ed00
10000c04:	2000161c 	.word	0x2000161c
10000c08:	20002a00 	.word	0x20002a00
10000c0c:	1000011d 	.word	0x1000011d

10000c10 <user_irq_claim_unused>:
10000c10:	b510      	push	{r4, lr}
10000c12:	4c07      	ldr	r4, [pc, #28]	@ (10000c30 <user_irq_claim_unused+0x20>)
10000c14:	b082      	sub	sp, #8
10000c16:	4601      	mov	r1, r0
10000c18:	2305      	movs	r3, #5
10000c1a:	2200      	movs	r2, #0
10000c1c:	9400      	str	r4, [sp, #0]
10000c1e:	4805      	ldr	r0, [pc, #20]	@ (10000c34 <user_irq_claim_unused+0x24>)
10000c20:	f7ff fda2 	bl	10000768 <hw_claim_unused_from_range>
10000c24:	2800      	cmp	r0, #0
10000c26:	bfa8      	it	ge
10000c28:	f1c0 0033 	rsbge	r0, r0, #51	@ 0x33
10000c2c:	b002      	add	sp, #8
10000c2e:	bd10      	pop	{r4, pc}
10000c30:	100088c8 	.word	0x100088c8
10000c34:	20002a04 	.word	0x20002a04

10000c38 <lock_init>:
10000c38:	4b01      	ldr	r3, [pc, #4]	@ (10000c40 <lock_init+0x8>)
10000c3a:	440b      	add	r3, r1
10000c3c:	6003      	str	r3, [r0, #0]
10000c3e:	4770      	bx	lr
10000c40:	20002104 	.word	0x20002104

10000c44 <runtime_init_mutex>:
10000c44:	b570      	push	{r4, r5, r6, lr}
10000c46:	4c10      	ldr	r4, [pc, #64]	@ (10000c88 <runtime_init_mutex+0x44>)
10000c48:	4d10      	ldr	r5, [pc, #64]	@ (10000c8c <runtime_init_mutex+0x48>)
10000c4a:	42ac      	cmp	r4, r5
10000c4c:	d20e      	bcs.n	10000c6c <runtime_init_mutex+0x28>
10000c4e:	26ff      	movs	r6, #255	@ 0xff
10000c50:	6823      	ldr	r3, [r4, #0]
10000c52:	b163      	cbz	r3, 10000c6e <runtime_init_mutex+0x2a>
10000c54:	f7ff fdc8 	bl	100007e8 <next_striped_spin_lock_num>
10000c58:	4601      	mov	r1, r0
10000c5a:	4620      	mov	r0, r4
10000c5c:	f7ff ffec 	bl	10000c38 <lock_init>
10000c60:	80a6      	strh	r6, [r4, #4]
10000c62:	f3bf 8f5f 	dmb	sy
10000c66:	3408      	adds	r4, #8
10000c68:	42ac      	cmp	r4, r5
10000c6a:	d3f1      	bcc.n	10000c50 <runtime_init_mutex+0xc>
10000c6c:	bd70      	pop	{r4, r5, r6, pc}
10000c6e:	f7ff fdbb 	bl	100007e8 <next_striped_spin_lock_num>
10000c72:	4601      	mov	r1, r0
10000c74:	4620      	mov	r0, r4
10000c76:	f7ff ffdf 	bl	10000c38 <lock_init>
10000c7a:	7126      	strb	r6, [r4, #4]
10000c7c:	f3bf 8f5f 	dmb	sy
10000c80:	3408      	adds	r4, #8
10000c82:	42ac      	cmp	r4, r5
10000c84:	d3e4      	bcc.n	10000c50 <runtime_init_mutex+0xc>
10000c86:	bd70      	pop	{r4, r5, r6, pc}
10000c88:	20001c18 	.word	0x20001c18
10000c8c:	20001c28 	.word	0x20001c28

10000c90 <mutex_init>:
10000c90:	b510      	push	{r4, lr}
10000c92:	4604      	mov	r4, r0
10000c94:	f7ff fda8 	bl	100007e8 <next_striped_spin_lock_num>
10000c98:	4601      	mov	r1, r0
10000c9a:	4620      	mov	r0, r4
10000c9c:	f7ff ffcc 	bl	10000c38 <lock_init>
10000ca0:	23ff      	movs	r3, #255	@ 0xff
10000ca2:	7123      	strb	r3, [r4, #4]
10000ca4:	f3bf 8f5f 	dmb	sy
10000ca8:	bd10      	pop	{r4, pc}
10000caa:	bf00      	nop

10000cac <critical_section_init>:
10000cac:	b510      	push	{r4, lr}
10000cae:	4604      	mov	r4, r0
10000cb0:	2001      	movs	r0, #1
10000cb2:	f7ff fda5 	bl	10000800 <spin_lock_claim_unused>
10000cb6:	4b03      	ldr	r3, [pc, #12]	@ (10000cc4 <critical_section_init+0x18>)
10000cb8:	4403      	add	r3, r0
10000cba:	6023      	str	r3, [r4, #0]
10000cbc:	f3bf 8f5f 	dmb	sy
10000cc0:	bd10      	pop	{r4, pc}
10000cc2:	bf00      	nop
10000cc4:	20002104 	.word	0x20002104

10000cc8 <critical_section_init_with_lock_num>:
10000cc8:	4b02      	ldr	r3, [pc, #8]	@ (10000cd4 <critical_section_init_with_lock_num+0xc>)
10000cca:	440b      	add	r3, r1
10000ccc:	6003      	str	r3, [r0, #0]
10000cce:	f3bf 8f5f 	dmb	sy
10000cd2:	4770      	bx	lr
10000cd4:	20002104 	.word	0x20002104

10000cd8 <sleep_until_callback>:
10000cd8:	4b0d      	ldr	r3, [pc, #52]	@ (10000d10 <sleep_until_callback+0x38>)
10000cda:	681a      	ldr	r2, [r3, #0]
10000cdc:	f3ef 8110 	mrs	r1, PRIMASK
10000ce0:	b672      	cpsid	i
10000ce2:	e8d2 cfcf 	ldaexb	ip, [r2]
10000ce6:	2001      	movs	r0, #1
10000ce8:	f1bc 0f00 	cmp.w	ip, #0
10000cec:	d1f9      	bne.n	10000ce2 <sleep_until_callback+0xa>
10000cee:	e8c2 0f4c 	strexb	ip, r0, [r2]
10000cf2:	f1bc 0f00 	cmp.w	ip, #0
10000cf6:	d1f4      	bne.n	10000ce2 <sleep_until_callback+0xa>
10000cf8:	f3bf 8f5f 	dmb	sy
10000cfc:	2200      	movs	r2, #0
10000cfe:	681b      	ldr	r3, [r3, #0]
10000d00:	e8c3 2f8f 	stlb	r2, [r3]
10000d04:	f381 8810 	msr	PRIMASK, r1
10000d08:	bf40      	sev
10000d0a:	2000      	movs	r0, #0
10000d0c:	2100      	movs	r1, #0
10000d0e:	4770      	bx	lr
10000d10:	200029e0 	.word	0x200029e0
10000d14:	00000000 	.word	0x00000000

10000d18 <alarm_pool_irq_handler>:
10000d18:	e92d 4ff0 	stmdb	sp!, {r4, r5, r6, r7, r8, r9, sl, fp, lr}
10000d1c:	ed2d 8b02 	vpush	{d8}
10000d20:	b085      	sub	sp, #20
10000d22:	f3ef 8305 	mrs	r3, IPSR
10000d26:	b2db      	uxtb	r3, r3
10000d28:	3b10      	subs	r3, #16
10000d2a:	089a      	lsrs	r2, r3, #2
10000d2c:	bf18      	it	ne
10000d2e:	2201      	movne	r2, #1
10000d30:	f04f 0101 	mov.w	r1, #1
10000d34:	f003 0b03 	and.w	fp, r3, #3
10000d38:	bf18      	it	ne
10000d3a:	4daf      	ldrne	r5, [pc, #700]	@ (10000ff8 <alarm_pool_irq_handler+0x2e0>)
10000d3c:	4baf      	ldr	r3, [pc, #700]	@ (10000ffc <alarm_pool_irq_handler+0x2e4>)
10000d3e:	bf08      	it	eq
10000d40:	4daf      	ldreq	r5, [pc, #700]	@ (10001000 <alarm_pool_irq_handler+0x2e8>)
10000d42:	eb0b 0282 	add.w	r2, fp, r2, lsl #2
10000d46:	f853 6022 	ldr.w	r6, [r3, r2, lsl #2]
10000d4a:	fa01 f20b 	lsl.w	r2, r1, fp
10000d4e:	f505 5341 	add.w	r3, r5, #12352	@ 0x3040
10000d52:	ed9f 8ba7 	vldr	d8, [pc, #668]	@ 10000ff0 <alarm_pool_irq_handler+0x2d8>
10000d56:	9201      	str	r2, [sp, #4]
10000d58:	605a      	str	r2, [r3, #4]
10000d5a:	e02f      	b.n	10000dbc <alarm_pool_irq_handler+0xa4>
10000d5c:	88b3      	ldrh	r3, [r6, #4]
10000d5e:	041c      	lsls	r4, r3, #16
10000d60:	f140 8093 	bpl.w	10000e8a <alarm_pool_irq_handler+0x172>
10000d64:	79b3      	ldrb	r3, [r6, #6]
10000d66:	2b00      	cmp	r3, #0
10000d68:	f040 80dd 	bne.w	10000f26 <alarm_pool_irq_handler+0x20e>
10000d6c:	f9b6 2008 	ldrsh.w	r2, [r6, #8]
10000d70:	2a00      	cmp	r2, #0
10000d72:	f2c0 811e 	blt.w	10000fb2 <alarm_pool_irq_handler+0x29a>
10000d76:	6973      	ldr	r3, [r6, #20]
10000d78:	eb02 0242 	add.w	r2, r2, r2, lsl #1
10000d7c:	eb03 03c2 	add.w	r3, r3, r2, lsl #3
10000d80:	e9d3 4702 	ldrd	r4, r7, [r3, #8]
10000d84:	f1b7 3fff 	cmp.w	r7, #4294967295	@ 0xffffffff
10000d88:	bf08      	it	eq
10000d8a:	f1b4 3fff 	cmpeq.w	r4, #4294967295	@ 0xffffffff
10000d8e:	d00e      	beq.n	10000dae <alarm_pool_irq_handler+0x96>
10000d90:	eb05 018b 	add.w	r1, r5, fp, lsl #2
10000d94:	6aab      	ldr	r3, [r5, #40]	@ 0x28
10000d96:	690a      	ldr	r2, [r1, #16]
10000d98:	1ad2      	subs	r2, r2, r3
10000d9a:	1ae3      	subs	r3, r4, r3
10000d9c:	4293      	cmp	r3, r2
10000d9e:	d305      	bcc.n	10000dac <alarm_pool_irq_handler+0x94>
10000da0:	2301      	movs	r3, #1
10000da2:	6a2a      	ldr	r2, [r5, #32]
10000da4:	fa03 f30b 	lsl.w	r3, r3, fp
10000da8:	4213      	tst	r3, r2
10000daa:	d100      	bne.n	10000dae <alarm_pool_irq_handler+0x96>
10000dac:	610c      	str	r4, [r1, #16]
10000dae:	4628      	mov	r0, r5
10000db0:	f000 fbac 	bl	1000150c <timer_time_us_64>
10000db4:	42a0      	cmp	r0, r4
10000db6:	41b9      	sbcs	r1, r7
10000db8:	f2c0 80fb 	blt.w	10000fb2 <alarm_pool_irq_handler+0x29a>
10000dbc:	f9b6 3008 	ldrsh.w	r3, [r6, #8]
10000dc0:	9a01      	ldr	r2, [sp, #4]
10000dc2:	2b00      	cmp	r3, #0
10000dc4:	9300      	str	r3, [sp, #0]
10000dc6:	63ea      	str	r2, [r5, #60]	@ 0x3c
10000dc8:	dbc8      	blt.n	10000d5c <alarm_pool_irq_handler+0x44>
10000dca:	f8d6 8014 	ldr.w	r8, [r6, #20]
10000dce:	eb03 0943 	add.w	r9, r3, r3, lsl #1
10000dd2:	4628      	mov	r0, r5
10000dd4:	eb08 07c9 	add.w	r7, r8, r9, lsl #3
10000dd8:	e9d7 4a02 	ldrd	r4, sl, [r7, #8]
10000ddc:	f000 fb96 	bl	1000150c <timer_time_us_64>
10000de0:	42a0      	cmp	r0, r4
10000de2:	eb71 010a 	sbcs.w	r1, r1, sl
10000de6:	dbb9      	blt.n	10000d5c <alarm_pool_irq_handler+0x44>
10000de8:	f1ba 0f00 	cmp.w	sl, #0
10000dec:	f2c0 80c3 	blt.w	10000f76 <alarm_pool_irq_handler+0x25e>
10000df0:	e9d7 3104 	ldrd	r3, r1, [r7, #16]
10000df4:	4a83      	ldr	r2, [pc, #524]	@ (10001004 <alarm_pool_irq_handler+0x2ec>)
10000df6:	4293      	cmp	r3, r2
10000df8:	f000 80ed 	beq.w	10000fd6 <alarm_pool_irq_handler+0x2be>
10000dfc:	887a      	ldrh	r2, [r7, #2]
10000dfe:	f9b6 0008 	ldrsh.w	r0, [r6, #8]
10000e02:	b292      	uxth	r2, r2
10000e04:	ea42 4000 	orr.w	r0, r2, r0, lsl #16
10000e08:	4798      	blx	r3
10000e0a:	4602      	mov	r2, r0
10000e0c:	460b      	mov	r3, r1
10000e0e:	ea52 0103 	orrs.w	r1, r2, r3
10000e12:	f000 80b0 	beq.w	10000f76 <alarm_pool_irq_handler+0x25e>
10000e16:	2b00      	cmp	r3, #0
10000e18:	f280 80d1 	bge.w	10000fbe <alarm_pool_irq_handler+0x2a6>
10000e1c:	ebb4 0e02 	subs.w	lr, r4, r2
10000e20:	eb6a 0a03 	sbc.w	sl, sl, r3
10000e24:	f938 3039 	ldrsh.w	r3, [r8, r9, lsl #3]
10000e28:	e9c7 ea02 	strd	lr, sl, [r7, #8]
10000e2c:	2b00      	cmp	r3, #0
10000e2e:	db95      	blt.n	10000d5c <alarm_pool_irq_handler+0x44>
10000e30:	6971      	ldr	r1, [r6, #20]
10000e32:	eb03 0243 	add.w	r2, r3, r3, lsl #1
10000e36:	eb01 02c2 	add.w	r2, r1, r2, lsl #3
10000e3a:	e9d2 7002 	ldrd	r7, r0, [r2, #8]
10000e3e:	45be      	cmp	lr, r7
10000e40:	eb7a 0c00 	sbcs.w	ip, sl, r0
10000e44:	ea4f 0243 	mov.w	r2, r3, lsl #1
10000e48:	db88      	blt.n	10000d5c <alarm_pool_irq_handler+0x44>
10000e4a:	46b4      	mov	ip, r6
10000e4c:	f82c 3f08 	strh.w	r3, [ip, #8]!
10000e50:	e006      	b.n	10000e60 <alarm_pool_irq_handler+0x148>
10000e52:	eb03 0043 	add.w	r0, r3, r3, lsl #1
10000e56:	eb01 00c0 	add.w	r0, r1, r0, lsl #3
10000e5a:	005a      	lsls	r2, r3, #1
10000e5c:	e9d0 7002 	ldrd	r7, r0, [r0, #8]
10000e60:	45be      	cmp	lr, r7
10000e62:	441a      	add	r2, r3
10000e64:	eb7a 0000 	sbcs.w	r0, sl, r0
10000e68:	eb01 04c2 	add.w	r4, r1, r2, lsl #3
10000e6c:	db04      	blt.n	10000e78 <alarm_pool_irq_handler+0x160>
10000e6e:	f931 3032 	ldrsh.w	r3, [r1, r2, lsl #3]
10000e72:	46a4      	mov	ip, r4
10000e74:	2b00      	cmp	r3, #0
10000e76:	daec      	bge.n	10000e52 <alarm_pool_irq_handler+0x13a>
10000e78:	f828 3039 	strh.w	r3, [r8, r9, lsl #3]
10000e7c:	9b00      	ldr	r3, [sp, #0]
10000e7e:	f8ac 3000 	strh.w	r3, [ip]
10000e82:	88b3      	ldrh	r3, [r6, #4]
10000e84:	041c      	lsls	r4, r3, #16
10000e86:	f53f af6d 	bmi.w	10000d64 <alarm_pool_irq_handler+0x4c>
10000e8a:	6933      	ldr	r3, [r6, #16]
10000e8c:	f3ef 8210 	mrs	r2, PRIMASK
10000e90:	b672      	cpsid	i
10000e92:	e8d3 0fcf 	ldaexb	r0, [r3]
10000e96:	2101      	movs	r1, #1
10000e98:	2800      	cmp	r0, #0
10000e9a:	d1fa      	bne.n	10000e92 <alarm_pool_irq_handler+0x17a>
10000e9c:	e8c3 1f40 	strexb	r0, r1, [r3]
10000ea0:	2800      	cmp	r0, #0
10000ea2:	d1f6      	bne.n	10000e92 <alarm_pool_irq_handler+0x17a>
10000ea4:	f3bf 8f5f 	dmb	sy
10000ea8:	f64f 74ff 	movw	r4, #65535	@ 0xffff
10000eac:	88b0      	ldrh	r0, [r6, #4]
10000eae:	2300      	movs	r3, #0
10000eb0:	6931      	ldr	r1, [r6, #16]
10000eb2:	b200      	sxth	r0, r0
10000eb4:	80b4      	strh	r4, [r6, #4]
10000eb6:	e8c1 3f8f 	stlb	r3, [r1]
10000eba:	f382 8810 	msr	PRIMASK, r2
10000ebe:	4298      	cmp	r0, r3
10000ec0:	f6ff af50 	blt.w	10000d64 <alarm_pool_irq_handler+0x4c>
10000ec4:	4607      	mov	r7, r0
10000ec6:	46a9      	mov	r9, r5
10000ec8:	6974      	ldr	r4, [r6, #20]
10000eca:	f106 0808 	add.w	r8, r6, #8
10000ece:	eb07 0e47 	add.w	lr, r7, r7, lsl #1
10000ed2:	eb04 03ce 	add.w	r3, r4, lr, lsl #3
10000ed6:	e9d3 5002 	ldrd	r5, r0, [r3, #8]
10000eda:	f9b6 3008 	ldrsh.w	r3, [r6, #8]
10000ede:	46c4      	mov	ip, r8
10000ee0:	2b00      	cmp	r3, #0
10000ee2:	db13      	blt.n	10000f0c <alarm_pool_irq_handler+0x1f4>
10000ee4:	46b2      	mov	sl, r6
10000ee6:	9700      	str	r7, [sp, #0]
10000ee8:	e004      	b.n	10000ef4 <alarm_pool_irq_handler+0x1dc>
10000eea:	f934 3036 	ldrsh.w	r3, [r4, r6, lsl #3]
10000eee:	4694      	mov	ip, r2
10000ef0:	2b00      	cmp	r3, #0
10000ef2:	db09      	blt.n	10000f08 <alarm_pool_irq_handler+0x1f0>
10000ef4:	eb03 0643 	add.w	r6, r3, r3, lsl #1
10000ef8:	eb04 02c6 	add.w	r2, r4, r6, lsl #3
10000efc:	e9d2 7102 	ldrd	r7, r1, [r2, #8]
10000f00:	42bd      	cmp	r5, r7
10000f02:	eb70 0101 	sbcs.w	r1, r0, r1
10000f06:	daf0      	bge.n	10000eea <alarm_pool_irq_handler+0x1d2>
10000f08:	4656      	mov	r6, sl
10000f0a:	9f00      	ldr	r7, [sp, #0]
10000f0c:	f8ac 7000 	strh.w	r7, [ip]
10000f10:	f934 703e 	ldrsh.w	r7, [r4, lr, lsl #3]
10000f14:	f824 303e 	strh.w	r3, [r4, lr, lsl #3]
10000f18:	2f00      	cmp	r7, #0
10000f1a:	dad8      	bge.n	10000ece <alarm_pool_irq_handler+0x1b6>
10000f1c:	79b3      	ldrb	r3, [r6, #6]
10000f1e:	464d      	mov	r5, r9
10000f20:	2b00      	cmp	r3, #0
10000f22:	f43f af23 	beq.w	10000d6c <alarm_pool_irq_handler+0x54>
10000f26:	2300      	movs	r3, #0
10000f28:	71b3      	strb	r3, [r6, #6]
10000f2a:	f9b6 3008 	ldrsh.w	r3, [r6, #8]
10000f2e:	f106 0808 	add.w	r8, r6, #8
10000f32:	1c58      	adds	r0, r3, #1
10000f34:	d03d      	beq.n	10000fb2 <alarm_pool_irq_handler+0x29a>
10000f36:	461a      	mov	r2, r3
10000f38:	6977      	ldr	r7, [r6, #20]
10000f3a:	e003      	b.n	10000f44 <alarm_pool_irq_handler+0x22c>
10000f3c:	4680      	mov	r8, r0
10000f3e:	1c59      	adds	r1, r3, #1
10000f40:	f43f af16 	beq.w	10000d70 <alarm_pool_irq_handler+0x58>
10000f44:	eb03 0143 	add.w	r1, r3, r3, lsl #1
10000f48:	eb07 00c1 	add.w	r0, r7, r1, lsl #3
10000f4c:	f8b0 c002 	ldrh.w	ip, [r0, #2]
10000f50:	461c      	mov	r4, r3
10000f52:	f41c 4f00 	tst.w	ip, #32768	@ 0x8000
10000f56:	469e      	mov	lr, r3
10000f58:	f937 3031 	ldrsh.w	r3, [r7, r1, lsl #3]
10000f5c:	d0ee      	beq.n	10000f3c <alarm_pool_irq_handler+0x224>
10000f5e:	4294      	cmp	r4, r2
10000f60:	ed80 8b02 	vstr	d8, [r0, #8]
10000f64:	d005      	beq.n	10000f72 <alarm_pool_irq_handler+0x25a>
10000f66:	f8a8 3000 	strh.w	r3, [r8]
10000f6a:	8932      	ldrh	r2, [r6, #8]
10000f6c:	f827 2031 	strh.w	r2, [r7, r1, lsl #3]
10000f70:	8134      	strh	r4, [r6, #8]
10000f72:	4672      	mov	r2, lr
10000f74:	e7e3      	b.n	10000f3e <alarm_pool_irq_handler+0x226>
10000f76:	f838 3039 	ldrh.w	r3, [r8, r9, lsl #3]
10000f7a:	8133      	strh	r3, [r6, #8]
10000f7c:	6933      	ldr	r3, [r6, #16]
10000f7e:	f3ef 8210 	mrs	r2, PRIMASK
10000f82:	b672      	cpsid	i
10000f84:	e8d3 0fcf 	ldaexb	r0, [r3]
10000f88:	2101      	movs	r1, #1
10000f8a:	2800      	cmp	r0, #0
10000f8c:	d1fa      	bne.n	10000f84 <alarm_pool_irq_handler+0x26c>
10000f8e:	e8c3 1f40 	strexb	r0, r1, [r3]
10000f92:	2800      	cmp	r0, #0
10000f94:	d1f6      	bne.n	10000f84 <alarm_pool_irq_handler+0x26c>
10000f96:	f3bf 8f5f 	dmb	sy
10000f9a:	8873      	ldrh	r3, [r6, #2]
10000f9c:	6931      	ldr	r1, [r6, #16]
10000f9e:	f828 3039 	strh.w	r3, [r8, r9, lsl #3]
10000fa2:	9b00      	ldr	r3, [sp, #0]
10000fa4:	8073      	strh	r3, [r6, #2]
10000fa6:	2300      	movs	r3, #0
10000fa8:	e8c1 3f8f 	stlb	r3, [r1]
10000fac:	f382 8810 	msr	PRIMASK, r2
10000fb0:	e6d4      	b.n	10000d5c <alarm_pool_irq_handler+0x44>
10000fb2:	bf40      	sev
10000fb4:	b005      	add	sp, #20
10000fb6:	ecbd 8b02 	vpop	{d8}
10000fba:	e8bd 8ff0 	ldmia.w	sp!, {r4, r5, r6, r7, r8, r9, sl, fp, pc}
10000fbe:	4628      	mov	r0, r5
10000fc0:	e9cd 2302 	strd	r2, r3, [sp, #8]
10000fc4:	f000 faa2 	bl	1000150c <timer_time_us_64>
10000fc8:	9a02      	ldr	r2, [sp, #8]
10000fca:	9b03      	ldr	r3, [sp, #12]
10000fcc:	eb10 0e02 	adds.w	lr, r0, r2
10000fd0:	eb43 0a01 	adc.w	sl, r3, r1
10000fd4:	e726      	b.n	10000e24 <alarm_pool_irq_handler+0x10c>
10000fd6:	4608      	mov	r0, r1
10000fd8:	690b      	ldr	r3, [r1, #16]
10000fda:	9102      	str	r1, [sp, #8]
10000fdc:	4798      	blx	r3
10000fde:	2800      	cmp	r0, #0
10000fe0:	d0c9      	beq.n	10000f76 <alarm_pool_irq_handler+0x25e>
10000fe2:	9902      	ldr	r1, [sp, #8]
10000fe4:	e9d1 2300 	ldrd	r2, r3, [r1]
10000fe8:	e711      	b.n	10000e0e <alarm_pool_irq_handler+0xf6>
10000fea:	bf00      	nop
10000fec:	f3af 8000 	nop.w
10000ff0:	ffffffff 	.word	0xffffffff
10000ff4:	ffffffff 	.word	0xffffffff
10000ff8:	400b8000 	.word	0x400b8000
10000ffc:	200029b8 	.word	0x200029b8
10001000:	400b0000 	.word	0x400b0000
10001004:	10000d19 	.word	0x10000d19

10001008 <runtime_init_default_alarm_pool>:
10001008:	e92d 4ff8 	stmdb	sp!, {r3, r4, r5, r6, r7, r8, r9, sl, fp, lr}
1000100c:	4c36      	ldr	r4, [pc, #216]	@ (100010e8 <runtime_init_default_alarm_pool+0xe0>)
1000100e:	6925      	ldr	r5, [r4, #16]
10001010:	b12d      	cbz	r5, 1000101e <runtime_init_default_alarm_pool+0x16>
10001012:	e8bd 4ff8 	ldmia.w	sp!, {r3, r4, r5, r6, r7, r8, r9, sl, fp, lr}
10001016:	210a      	movs	r1, #10
10001018:	4834      	ldr	r0, [pc, #208]	@ (100010ec <runtime_init_default_alarm_pool+0xe4>)
1000101a:	f7ff be0d 	b.w	10000c38 <lock_init>
1000101e:	f8df 80e4 	ldr.w	r8, [pc, #228]	@ 10001104 <runtime_init_default_alarm_pool+0xfc>
10001022:	2103      	movs	r1, #3
10001024:	4640      	mov	r0, r8
10001026:	f000 fa5f 	bl	100014e8 <timer_hardware_alarm_claim>
1000102a:	2603      	movs	r6, #3
1000102c:	f8c4 800c 	str.w	r8, [r4, #12]
10001030:	f7ff fbda 	bl	100007e8 <next_striped_spin_lock_num>
10001034:	f04f 4c50 	mov.w	ip, #3489660928	@ 0xd0000000
10001038:	4b2d      	ldr	r3, [pc, #180]	@ (100010f0 <runtime_init_default_alarm_pool+0xe8>)
1000103a:	7026      	strb	r6, [r4, #0]
1000103c:	4403      	add	r3, r0
1000103e:	6123      	str	r3, [r4, #16]
10001040:	f8dc 3000 	ldr.w	r3, [ip]
10001044:	210f      	movs	r1, #15
10001046:	7063      	strb	r3, [r4, #1]
10001048:	6963      	ldr	r3, [r4, #20]
1000104a:	8061      	strh	r1, [r4, #2]
1000104c:	831d      	strh	r5, [r3, #24]
1000104e:	f04f 0504 	mov.w	r5, #4
10001052:	f8a3 5078 	strh.w	r5, [r3, #120]	@ 0x78
10001056:	f04f 0505 	mov.w	r5, #5
1000105a:	f8a3 5090 	strh.w	r5, [r3, #144]	@ 0x90
1000105e:	f04f 0506 	mov.w	r5, #6
10001062:	f8a3 50a8 	strh.w	r5, [r3, #168]	@ 0xa8
10001066:	f04f 0507 	mov.w	r5, #7
1000106a:	210e      	movs	r1, #14
1000106c:	f64f 72ff 	movw	r2, #65535	@ 0xffff
10001070:	2708      	movs	r7, #8
10001072:	f04f 0e0a 	mov.w	lr, #10
10001076:	f8a3 50c0 	strh.w	r5, [r3, #192]	@ 0xc0
1000107a:	f04f 0901 	mov.w	r9, #1
1000107e:	f04f 0c0c 	mov.w	ip, #12
10001082:	f04f 0b02 	mov.w	fp, #2
10001086:	f04f 0a09 	mov.w	sl, #9
1000108a:	200d      	movs	r0, #13
1000108c:	f04f 050b 	mov.w	r5, #11
10001090:	f8a3 1168 	strh.w	r1, [r3, #360]	@ 0x168
10001094:	4917      	ldr	r1, [pc, #92]	@ (100010f4 <runtime_init_default_alarm_pool+0xec>)
10001096:	80a2      	strh	r2, [r4, #4]
10001098:	f8a3 e108 	strh.w	lr, [r3, #264]	@ 0x108
1000109c:	60a1      	str	r1, [r4, #8]
1000109e:	f8a3 b048 	strh.w	fp, [r3, #72]	@ 0x48
100010a2:	f8a3 a0f0 	strh.w	sl, [r3, #240]	@ 0xf0
100010a6:	f8a3 5120 	strh.w	r5, [r3, #288]	@ 0x120
100010aa:	f8a3 c138 	strh.w	ip, [r3, #312]	@ 0x138
100010ae:	f8a3 0150 	strh.w	r0, [r3, #336]	@ 0x150
100010b2:	f8a3 9030 	strh.w	r9, [r3, #48]	@ 0x30
100010b6:	f8a3 6060 	strh.w	r6, [r3, #96]	@ 0x60
100010ba:	f8a3 70d8 	strh.w	r7, [r3, #216]	@ 0xd8
100010be:	801a      	strh	r2, [r3, #0]
100010c0:	4b0d      	ldr	r3, [pc, #52]	@ (100010f8 <runtime_init_default_alarm_pool+0xf0>)
100010c2:	4630      	mov	r0, r6
100010c4:	f8c8 7020 	str.w	r7, [r8, #32]
100010c8:	490c      	ldr	r1, [pc, #48]	@ (100010fc <runtime_init_default_alarm_pool+0xf4>)
100010ca:	60dc      	str	r4, [r3, #12]
100010cc:	f7ff fc1e 	bl	1000090c <irq_set_exclusive_handler>
100010d0:	4649      	mov	r1, r9
100010d2:	4630      	mov	r0, r6
100010d4:	f7ff fbd8 	bl	10000888 <irq_set_enabled>
100010d8:	4b09      	ldr	r3, [pc, #36]	@ (10001100 <runtime_init_default_alarm_pool+0xf8>)
100010da:	210a      	movs	r1, #10
100010dc:	641f      	str	r7, [r3, #64]	@ 0x40
100010de:	4803      	ldr	r0, [pc, #12]	@ (100010ec <runtime_init_default_alarm_pool+0xe4>)
100010e0:	e8bd 4ff8 	ldmia.w	sp!, {r3, r4, r5, r6, r7, r8, r9, sl, fp, lr}
100010e4:	f7ff bda8 	b.w	10000c38 <lock_init>
100010e8:	20001664 	.word	0x20001664
100010ec:	200029e0 	.word	0x200029e0
100010f0:	20002104 	.word	0x20002104
100010f4:	0010ffff 	.word	0x0010ffff
100010f8:	200029b8 	.word	0x200029b8
100010fc:	10000d19 	.word	0x10000d19
10001100:	400b2000 	.word	0x400b2000
10001104:	400b0000 	.word	0x400b0000

10001108 <alarm_pool_get_default>:
10001108:	4800      	ldr	r0, [pc, #0]	@ (1000110c <alarm_pool_get_default+0x4>)
1000110a:	4770      	bx	lr
1000110c:	20001664 	.word	0x20001664

10001110 <alarm_pool_add_alarm_at>:
10001110:	b5f8      	push	{r3, r4, r5, r6, r7, lr}
10001112:	f89d 5020 	ldrb.w	r5, [sp, #32]
10001116:	4604      	mov	r4, r0
10001118:	4617      	mov	r7, r2
1000111a:	461e      	mov	r6, r3
1000111c:	b935      	cbnz	r5, 1000112c <alarm_pool_add_alarm_at+0x1c>
1000111e:	f000 f9fd 	bl	1000151c <time_us_64>
10001122:	4287      	cmp	r7, r0
10001124:	eb66 0101 	sbc.w	r1, r6, r1
10001128:	2900      	cmp	r1, #0
1000112a:	db5c      	blt.n	100011e6 <alarm_pool_add_alarm_at+0xd6>
1000112c:	6921      	ldr	r1, [r4, #16]
1000112e:	f3ef 8310 	mrs	r3, PRIMASK
10001132:	b672      	cpsid	i
10001134:	e8d1 0fcf 	ldaexb	r0, [r1]
10001138:	2201      	movs	r2, #1
1000113a:	2800      	cmp	r0, #0
1000113c:	d1fa      	bne.n	10001134 <alarm_pool_add_alarm_at+0x24>
1000113e:	e8c1 2f40 	strexb	r0, r2, [r1]
10001142:	2800      	cmp	r0, #0
10001144:	d1f6      	bne.n	10001134 <alarm_pool_add_alarm_at+0x24>
10001146:	f3bf 8f5f 	dmb	sy
1000114a:	f9b4 2002 	ldrsh.w	r2, [r4, #2]
1000114e:	6965      	ldr	r5, [r4, #20]
10001150:	eb02 0142 	add.w	r1, r2, r2, lsl #1
10001154:	2a00      	cmp	r2, #0
10001156:	ea4f 0cc1 	mov.w	ip, r1, lsl #3
1000115a:	6920      	ldr	r0, [r4, #16]
1000115c:	eb05 01c1 	add.w	r1, r5, r1, lsl #3
10001160:	db39      	blt.n	100011d6 <alarm_pool_add_alarm_at+0xc6>
10001162:	f835 e00c 	ldrh.w	lr, [r5, ip]
10001166:	f8a4 e002 	strh.w	lr, [r4, #2]
1000116a:	f04f 0e00 	mov.w	lr, #0
1000116e:	e8c0 ef8f 	stlb	lr, [r0]
10001172:	f383 8810 	msr	PRIMASK, r3
10001176:	8848      	ldrh	r0, [r1, #2]
10001178:	9b06      	ldr	r3, [sp, #24]
1000117a:	3001      	adds	r0, #1
1000117c:	f3c0 000e 	ubfx	r0, r0, #0, #15
10001180:	2801      	cmp	r0, #1
10001182:	bf38      	it	cc
10001184:	2001      	movcc	r0, #1
10001186:	610b      	str	r3, [r1, #16]
10001188:	9b07      	ldr	r3, [sp, #28]
1000118a:	8048      	strh	r0, [r1, #2]
1000118c:	614b      	str	r3, [r1, #20]
1000118e:	e9c1 7602 	strd	r7, r6, [r1, #8]
10001192:	ea40 4002 	orr.w	r0, r0, r2, lsl #16
10001196:	6923      	ldr	r3, [r4, #16]
10001198:	f3ef 8110 	mrs	r1, PRIMASK
1000119c:	b672      	cpsid	i
1000119e:	e8d3 7fcf 	ldaexb	r7, [r3]
100011a2:	2601      	movs	r6, #1
100011a4:	2f00      	cmp	r7, #0
100011a6:	d1fa      	bne.n	1000119e <alarm_pool_add_alarm_at+0x8e>
100011a8:	e8c3 6f47 	strexb	r7, r6, [r3]
100011ac:	2f00      	cmp	r7, #0
100011ae:	d1f6      	bne.n	1000119e <alarm_pool_add_alarm_at+0x8e>
100011b0:	f3bf 8f5f 	dmb	sy
100011b4:	88a3      	ldrh	r3, [r4, #4]
100011b6:	f825 300c 	strh.w	r3, [r5, ip]
100011ba:	80a2      	strh	r2, [r4, #4]
100011bc:	6923      	ldr	r3, [r4, #16]
100011be:	e8c3 ef8f 	stlb	lr, [r3]
100011c2:	f381 8810 	msr	PRIMASK, r1
100011c6:	2201      	movs	r2, #1
100011c8:	68e3      	ldr	r3, [r4, #12]
100011ca:	7821      	ldrb	r1, [r4, #0]
100011cc:	f503 5301 	add.w	r3, r3, #8256	@ 0x2040
100011d0:	408a      	lsls	r2, r1
100011d2:	605a      	str	r2, [r3, #4]
100011d4:	bdf8      	pop	{r3, r4, r5, r6, r7, pc}
100011d6:	2200      	movs	r2, #0
100011d8:	e8c0 2f8f 	stlb	r2, [r0]
100011dc:	f383 8810 	msr	PRIMASK, r3
100011e0:	f04f 30ff 	mov.w	r0, #4294967295	@ 0xffffffff
100011e4:	bdf8      	pop	{r3, r4, r5, r6, r7, pc}
100011e6:	4628      	mov	r0, r5
100011e8:	bdf8      	pop	{r3, r4, r5, r6, r7, pc}
100011ea:	bf00      	nop

100011ec <alarm_pool_add_alarm_at_force_in_context>:
100011ec:	4601      	mov	r1, r0
100011ee:	b5f0      	push	{r4, r5, r6, r7, lr}
100011f0:	6900      	ldr	r0, [r0, #16]
100011f2:	f3ef 8710 	mrs	r7, PRIMASK
100011f6:	b672      	cpsid	i
100011f8:	e8d0 5fcf 	ldaexb	r5, [r0]
100011fc:	2401      	movs	r4, #1
100011fe:	2d00      	cmp	r5, #0
10001200:	d1fa      	bne.n	100011f8 <alarm_pool_add_alarm_at_force_in_context+0xc>
10001202:	e8c0 4f45 	strexb	r5, r4, [r0]
10001206:	2d00      	cmp	r5, #0
10001208:	d1f6      	bne.n	100011f8 <alarm_pool_add_alarm_at_force_in_context+0xc>
1000120a:	f3bf 8f5f 	dmb	sy
1000120e:	f9b1 e002 	ldrsh.w	lr, [r1, #2]
10001212:	694c      	ldr	r4, [r1, #20]
10001214:	eb0e 0c4e 	add.w	ip, lr, lr, lsl #1
10001218:	f1be 0f00 	cmp.w	lr, #0
1000121c:	ea4f 05cc 	mov.w	r5, ip, lsl #3
10001220:	6908      	ldr	r0, [r1, #16]
10001222:	eb04 0ccc 	add.w	ip, r4, ip, lsl #3
10001226:	db3c      	blt.n	100012a2 <alarm_pool_add_alarm_at_force_in_context+0xb6>
10001228:	5b66      	ldrh	r6, [r4, r5]
1000122a:	804e      	strh	r6, [r1, #2]
1000122c:	2600      	movs	r6, #0
1000122e:	e8c0 6f8f 	stlb	r6, [r0]
10001232:	f387 8810 	msr	PRIMASK, r7
10001236:	f8bc 0002 	ldrh.w	r0, [ip, #2]
1000123a:	e9cc 2302 	strd	r2, r3, [ip, #8]
1000123e:	3001      	adds	r0, #1
10001240:	f3c0 000e 	ubfx	r0, r0, #0, #15
10001244:	2801      	cmp	r0, #1
10001246:	bf38      	it	cc
10001248:	2001      	movcc	r0, #1
1000124a:	9b05      	ldr	r3, [sp, #20]
1000124c:	f8ac 0002 	strh.w	r0, [ip, #2]
10001250:	f8cc 3010 	str.w	r3, [ip, #16]
10001254:	9b06      	ldr	r3, [sp, #24]
10001256:	ea40 400e 	orr.w	r0, r0, lr, lsl #16
1000125a:	f8cc 3014 	str.w	r3, [ip, #20]
1000125e:	690b      	ldr	r3, [r1, #16]
10001260:	f3ef 8210 	mrs	r2, PRIMASK
10001264:	b672      	cpsid	i
10001266:	e8d3 cfcf 	ldaexb	ip, [r3]
1000126a:	2701      	movs	r7, #1
1000126c:	f1bc 0f00 	cmp.w	ip, #0
10001270:	d1f9      	bne.n	10001266 <alarm_pool_add_alarm_at_force_in_context+0x7a>
10001272:	e8c3 7f4c 	strexb	ip, r7, [r3]
10001276:	f1bc 0f00 	cmp.w	ip, #0
1000127a:	d1f4      	bne.n	10001266 <alarm_pool_add_alarm_at_force_in_context+0x7a>
1000127c:	f3bf 8f5f 	dmb	sy
10001280:	888b      	ldrh	r3, [r1, #4]
10001282:	5363      	strh	r3, [r4, r5]
10001284:	f8a1 e004 	strh.w	lr, [r1, #4]
10001288:	690b      	ldr	r3, [r1, #16]
1000128a:	e8c3 6f8f 	stlb	r6, [r3]
1000128e:	f382 8810 	msr	PRIMASK, r2
10001292:	2201      	movs	r2, #1
10001294:	68cb      	ldr	r3, [r1, #12]
10001296:	7809      	ldrb	r1, [r1, #0]
10001298:	f503 5301 	add.w	r3, r3, #8256	@ 0x2040
1000129c:	408a      	lsls	r2, r1
1000129e:	605a      	str	r2, [r3, #4]
100012a0:	bdf0      	pop	{r4, r5, r6, r7, pc}
100012a2:	2300      	movs	r3, #0
100012a4:	e8c0 3f8f 	stlb	r3, [r0]
100012a8:	f387 8810 	msr	PRIMASK, r7
100012ac:	f04f 30ff 	mov.w	r0, #4294967295	@ 0xffffffff
100012b0:	bdf0      	pop	{r4, r5, r6, r7, pc}
100012b2:	bf00      	nop

100012b4 <alarm_pool_cancel_alarm>:
100012b4:	4603      	mov	r3, r0
100012b6:	8940      	ldrh	r0, [r0, #10]
100012b8:	ebb0 4f21 	cmp.w	r0, r1, asr #16
100012bc:	dd37      	ble.n	1000132e <alarm_pool_cancel_alarm+0x7a>
100012be:	6958      	ldr	r0, [r3, #20]
100012c0:	140a      	asrs	r2, r1, #16
100012c2:	eb02 0242 	add.w	r2, r2, r2, lsl #1
100012c6:	b510      	push	{r4, lr}
100012c8:	eb00 00c2 	add.w	r0, r0, r2, lsl #3
100012cc:	691c      	ldr	r4, [r3, #16]
100012ce:	f3ef 8c10 	mrs	ip, PRIMASK
100012d2:	b672      	cpsid	i
100012d4:	e8d4 efcf 	ldaexb	lr, [r4]
100012d8:	2201      	movs	r2, #1
100012da:	f1be 0f00 	cmp.w	lr, #0
100012de:	d1f9      	bne.n	100012d4 <alarm_pool_cancel_alarm+0x20>
100012e0:	e8c4 2f4e 	strexb	lr, r2, [r4]
100012e4:	f1be 0f00 	cmp.w	lr, #0
100012e8:	d1f4      	bne.n	100012d4 <alarm_pool_cancel_alarm+0x20>
100012ea:	f3bf 8f5f 	dmb	sy
100012ee:	8842      	ldrh	r2, [r0, #2]
100012f0:	b289      	uxth	r1, r1
100012f2:	b292      	uxth	r2, r2
100012f4:	428a      	cmp	r2, r1
100012f6:	d007      	beq.n	10001308 <alarm_pool_cancel_alarm+0x54>
100012f8:	2200      	movs	r2, #0
100012fa:	691b      	ldr	r3, [r3, #16]
100012fc:	e8c3 2f8f 	stlb	r2, [r3]
10001300:	f38c 8810 	msr	PRIMASK, ip
10001304:	2000      	movs	r0, #0
10001306:	bd10      	pop	{r4, pc}
10001308:	f442 4200 	orr.w	r2, r2, #32768	@ 0x8000
1000130c:	8042      	strh	r2, [r0, #2]
1000130e:	2101      	movs	r1, #1
10001310:	2200      	movs	r2, #0
10001312:	6918      	ldr	r0, [r3, #16]
10001314:	7199      	strb	r1, [r3, #6]
10001316:	e8c0 2f8f 	stlb	r2, [r0]
1000131a:	f38c 8810 	msr	PRIMASK, ip
1000131e:	781c      	ldrb	r4, [r3, #0]
10001320:	68da      	ldr	r2, [r3, #12]
10001322:	4608      	mov	r0, r1
10001324:	f502 5301 	add.w	r3, r2, #8256	@ 0x2040
10001328:	40a1      	lsls	r1, r4
1000132a:	6059      	str	r1, [r3, #4]
1000132c:	bd10      	pop	{r4, pc}
1000132e:	2000      	movs	r0, #0
10001330:	4770      	bx	lr
10001332:	bf00      	nop

10001334 <alarm_pool_core_num>:
10001334:	7840      	ldrb	r0, [r0, #1]
10001336:	4770      	bx	lr

10001338 <sleep_ms>:
10001338:	e92d 41f0 	stmdb	sp!, {r4, r5, r6, r7, r8, lr}
1000133c:	b082      	sub	sp, #8
1000133e:	4606      	mov	r6, r0
10001340:	f000 f8ec 	bl	1000151c <time_us_64>
10001344:	f44f 737a 	mov.w	r3, #1000	@ 0x3e8
10001348:	4604      	mov	r4, r0
1000134a:	f04f 30ff 	mov.w	r0, #4294967295	@ 0xffffffff
1000134e:	f06f 4200 	mvn.w	r2, #2147483648	@ 0x80000000
10001352:	fbe6 4103 	umlal	r4, r1, r6, r3
10001356:	42a0      	cmp	r0, r4
10001358:	eb72 0301 	sbcs.w	r3, r2, r1
1000135c:	bf3a      	itte	cc
1000135e:	4604      	movcc	r4, r0
10001360:	4615      	movcc	r5, r2
10001362:	460d      	movcs	r5, r1
10001364:	1fa6      	subs	r6, r4, #6
10001366:	f145 37ff 	adc.w	r7, r5, #4294967295	@ 0xffffffff
1000136a:	42b4      	cmp	r4, r6
1000136c:	eb75 0307 	sbcs.w	r3, r5, r7
10001370:	bf3c      	itt	cc
10001372:	2600      	movcc	r6, #0
10001374:	4637      	movcc	r7, r6
10001376:	f000 f8d1 	bl	1000151c <time_us_64>
1000137a:	1a30      	subs	r0, r6, r0
1000137c:	eb67 0101 	sbc.w	r1, r7, r1
10001380:	2801      	cmp	r0, #1
10001382:	f171 0100 	sbcs.w	r1, r1, #0
10001386:	da06      	bge.n	10001396 <sleep_ms+0x5e>
10001388:	4620      	mov	r0, r4
1000138a:	4629      	mov	r1, r5
1000138c:	b002      	add	sp, #8
1000138e:	e8bd 41f0 	ldmia.w	sp!, {r4, r5, r6, r7, r8, lr}
10001392:	f000 b8fb 	b.w	1000158c <busy_wait_until>
10001396:	f000 f8c1 	bl	1000151c <time_us_64>
1000139a:	4286      	cmp	r6, r0
1000139c:	eb67 0101 	sbc.w	r1, r7, r1
100013a0:	2900      	cmp	r1, #0
100013a2:	db0a      	blt.n	100013ba <sleep_ms+0x82>
100013a4:	2100      	movs	r1, #0
100013a6:	4b17      	ldr	r3, [pc, #92]	@ (10001404 <sleep_ms+0xcc>)
100013a8:	4632      	mov	r2, r6
100013aa:	9300      	str	r3, [sp, #0]
100013ac:	4816      	ldr	r0, [pc, #88]	@ (10001408 <sleep_ms+0xd0>)
100013ae:	463b      	mov	r3, r7
100013b0:	9101      	str	r1, [sp, #4]
100013b2:	f7ff ff1b 	bl	100011ec <alarm_pool_add_alarm_at_force_in_context>
100013b6:	3001      	adds	r0, #1
100013b8:	d0e6      	beq.n	10001388 <sleep_ms+0x50>
100013ba:	f04f 0c00 	mov.w	ip, #0
100013be:	4a13      	ldr	r2, [pc, #76]	@ (1000140c <sleep_ms+0xd4>)
100013c0:	4913      	ldr	r1, [pc, #76]	@ (10001410 <sleep_ms+0xd8>)
100013c2:	6a53      	ldr	r3, [r2, #36]	@ 0x24
100013c4:	429f      	cmp	r7, r3
100013c6:	d804      	bhi.n	100013d2 <sleep_ms+0x9a>
100013c8:	6a90      	ldr	r0, [r2, #40]	@ 0x28
100013ca:	42b0      	cmp	r0, r6
100013cc:	d2dc      	bcs.n	10001388 <sleep_ms+0x50>
100013ce:	429f      	cmp	r7, r3
100013d0:	d1da      	bne.n	10001388 <sleep_ms+0x50>
100013d2:	680b      	ldr	r3, [r1, #0]
100013d4:	f3ef 8010 	mrs	r0, PRIMASK
100013d8:	b672      	cpsid	i
100013da:	e8d3 8fcf 	ldaexb	r8, [r3]
100013de:	f05f 0e01 	movs.w	lr, #1
100013e2:	f1b8 0f00 	cmp.w	r8, #0
100013e6:	d1f8      	bne.n	100013da <sleep_ms+0xa2>
100013e8:	e8c3 ef48 	strexb	r8, lr, [r3]
100013ec:	f1b8 0f00 	cmp.w	r8, #0
100013f0:	d1f3      	bne.n	100013da <sleep_ms+0xa2>
100013f2:	f3bf 8f5f 	dmb	sy
100013f6:	680b      	ldr	r3, [r1, #0]
100013f8:	e8c3 cf8f 	stlb	ip, [r3]
100013fc:	f380 8810 	msr	PRIMASK, r0
10001400:	bf20      	wfe
10001402:	e7de      	b.n	100013c2 <sleep_ms+0x8a>
10001404:	10000cd9 	.word	0x10000cd9
10001408:	20001664 	.word	0x20001664
1000140c:	400b0000 	.word	0x400b0000
10001410:	200029e0 	.word	0x200029e0

10001414 <best_effort_wfe_or_timeout>:
10001414:	e92d 43f0 	stmdb	sp!, {r4, r5, r6, r7, r8, r9, lr}
10001418:	4606      	mov	r6, r0
1000141a:	460d      	mov	r5, r1
1000141c:	b083      	sub	sp, #12
1000141e:	f3ef 8405 	mrs	r4, IPSR
10001422:	b2e4      	uxtb	r4, r4
10001424:	b13c      	cbz	r4, 10001436 <best_effort_wfe_or_timeout+0x22>
10001426:	4b2d      	ldr	r3, [pc, #180]	@ (100014dc <best_effort_wfe_or_timeout+0xc8>)
10001428:	6a5a      	ldr	r2, [r3, #36]	@ 0x24
1000142a:	42aa      	cmp	r2, r5
1000142c:	d21c      	bcs.n	10001468 <best_effort_wfe_or_timeout+0x54>
1000142e:	2000      	movs	r0, #0
10001430:	b003      	add	sp, #12
10001432:	e8bd 83f0 	ldmia.w	sp!, {r4, r5, r6, r7, r8, r9, pc}
10001436:	4f2a      	ldr	r7, [pc, #168]	@ (100014e0 <best_effort_wfe_or_timeout+0xcc>)
10001438:	f8d7 900c 	ldr.w	r9, [r7, #12]
1000143c:	f897 8000 	ldrb.w	r8, [r7]
10001440:	4648      	mov	r0, r9
10001442:	f000 f863 	bl	1000150c <timer_time_us_64>
10001446:	f108 0804 	add.w	r8, r8, #4
1000144a:	f859 3028 	ldr.w	r3, [r9, r8, lsl #2]
1000144e:	1a1b      	subs	r3, r3, r0
10001450:	1a30      	subs	r0, r6, r0
10001452:	eb65 0101 	sbc.w	r1, r5, r1
10001456:	4298      	cmp	r0, r3
10001458:	f171 0100 	sbcs.w	r1, r1, #0
1000145c:	db10      	blt.n	10001480 <best_effort_wfe_or_timeout+0x6c>
1000145e:	bf20      	wfe
10001460:	4b1e      	ldr	r3, [pc, #120]	@ (100014dc <best_effort_wfe_or_timeout+0xc8>)
10001462:	6a5a      	ldr	r2, [r3, #36]	@ 0x24
10001464:	42aa      	cmp	r2, r5
10001466:	d3e2      	bcc.n	1000142e <best_effort_wfe_or_timeout+0x1a>
10001468:	bf14      	ite	ne
1000146a:	2401      	movne	r4, #1
1000146c:	2400      	moveq	r4, #0
1000146e:	6a9b      	ldr	r3, [r3, #40]	@ 0x28
10001470:	42b3      	cmp	r3, r6
10001472:	bf34      	ite	cc
10001474:	4620      	movcc	r0, r4
10001476:	f044 0001 	orrcs.w	r0, r4, #1
1000147a:	b003      	add	sp, #12
1000147c:	e8bd 83f0 	ldmia.w	sp!, {r4, r5, r6, r7, r8, r9, pc}
10001480:	f000 f84c 	bl	1000151c <time_us_64>
10001484:	4286      	cmp	r6, r0
10001486:	eb65 0101 	sbc.w	r1, r5, r1
1000148a:	2900      	cmp	r1, #0
1000148c:	db14      	blt.n	100014b8 <best_effort_wfe_or_timeout+0xa4>
1000148e:	4b15      	ldr	r3, [pc, #84]	@ (100014e4 <best_effort_wfe_or_timeout+0xd0>)
10001490:	4638      	mov	r0, r7
10001492:	e9cd 3400 	strd	r3, r4, [sp]
10001496:	4632      	mov	r2, r6
10001498:	462b      	mov	r3, r5
1000149a:	f7ff fea7 	bl	100011ec <alarm_pool_add_alarm_at_force_in_context>
1000149e:	1e01      	subs	r1, r0, #0
100014a0:	dd0a      	ble.n	100014b8 <best_effort_wfe_or_timeout+0xa4>
100014a2:	4b0e      	ldr	r3, [pc, #56]	@ (100014dc <best_effort_wfe_or_timeout+0xc8>)
100014a4:	6a5a      	ldr	r2, [r3, #36]	@ 0x24
100014a6:	42aa      	cmp	r2, r5
100014a8:	d316      	bcc.n	100014d8 <best_effort_wfe_or_timeout+0xc4>
100014aa:	6a9b      	ldr	r3, [r3, #40]	@ 0x28
100014ac:	42b3      	cmp	r3, r6
100014ae:	d311      	bcc.n	100014d4 <best_effort_wfe_or_timeout+0xc0>
100014b0:	480b      	ldr	r0, [pc, #44]	@ (100014e0 <best_effort_wfe_or_timeout+0xcc>)
100014b2:	f7ff feff 	bl	100012b4 <alarm_pool_cancel_alarm>
100014b6:	e7b6      	b.n	10001426 <best_effort_wfe_or_timeout+0x12>
100014b8:	4b08      	ldr	r3, [pc, #32]	@ (100014dc <best_effort_wfe_or_timeout+0xc8>)
100014ba:	6a5c      	ldr	r4, [r3, #36]	@ 0x24
100014bc:	42ac      	cmp	r4, r5
100014be:	d3b6      	bcc.n	1000142e <best_effort_wfe_or_timeout+0x1a>
100014c0:	1b64      	subs	r4, r4, r5
100014c2:	bf18      	it	ne
100014c4:	2401      	movne	r4, #1
100014c6:	6a9b      	ldr	r3, [r3, #40]	@ 0x28
100014c8:	42b3      	cmp	r3, r6
100014ca:	bf34      	ite	cc
100014cc:	4620      	movcc	r0, r4
100014ce:	f044 0001 	orrcs.w	r0, r4, #1
100014d2:	e7ad      	b.n	10001430 <best_effort_wfe_or_timeout+0x1c>
100014d4:	42aa      	cmp	r2, r5
100014d6:	d1eb      	bne.n	100014b0 <best_effort_wfe_or_timeout+0x9c>
100014d8:	bf20      	wfe
100014da:	e7e9      	b.n	100014b0 <best_effort_wfe_or_timeout+0x9c>
100014dc:	400b0000 	.word	0x400b0000
100014e0:	20001664 	.word	0x20001664
100014e4:	10000cd9 	.word	0x10000cd9

100014e8 <timer_hardware_alarm_claim>:
100014e8:	b410      	push	{r4}
100014ea:	4b05      	ldr	r3, [pc, #20]	@ (10001500 <timer_hardware_alarm_claim+0x18>)
100014ec:	4c05      	ldr	r4, [pc, #20]	@ (10001504 <timer_hardware_alarm_claim+0x1c>)
100014ee:	4a06      	ldr	r2, [pc, #24]	@ (10001508 <timer_hardware_alarm_claim+0x20>)
100014f0:	42a0      	cmp	r0, r4
100014f2:	bf14      	ite	ne
100014f4:	4618      	movne	r0, r3
100014f6:	1c58      	addeq	r0, r3, #1
100014f8:	f85d 4b04 	ldr.w	r4, [sp], #4
100014fc:	f7ff b908 	b.w	10000710 <hw_claim_or_assert>
10001500:	20002524 	.word	0x20002524
10001504:	400b8000 	.word	0x400b8000
10001508:	100088e4 	.word	0x100088e4

1000150c <timer_time_us_64>:
1000150c:	4603      	mov	r3, r0
1000150e:	6a41      	ldr	r1, [r0, #36]	@ 0x24
10001510:	460a      	mov	r2, r1
10001512:	6a98      	ldr	r0, [r3, #40]	@ 0x28
10001514:	6a59      	ldr	r1, [r3, #36]	@ 0x24
10001516:	428a      	cmp	r2, r1
10001518:	d1fa      	bne.n	10001510 <timer_time_us_64+0x4>
1000151a:	4770      	bx	lr

1000151c <time_us_64>:
1000151c:	4b03      	ldr	r3, [pc, #12]	@ (1000152c <time_us_64+0x10>)
1000151e:	6a59      	ldr	r1, [r3, #36]	@ 0x24
10001520:	460a      	mov	r2, r1
10001522:	6a98      	ldr	r0, [r3, #40]	@ 0x28
10001524:	6a59      	ldr	r1, [r3, #36]	@ 0x24
10001526:	4291      	cmp	r1, r2
10001528:	d1fa      	bne.n	10001520 <time_us_64+0x4>
1000152a:	4770      	bx	lr
1000152c:	400b0000 	.word	0x400b0000

10001530 <busy_wait_us>:
10001530:	b430      	push	{r4, r5}
10001532:	4a15      	ldr	r2, [pc, #84]	@ (10001588 <busy_wait_us+0x58>)
10001534:	6a53      	ldr	r3, [r2, #36]	@ 0x24
10001536:	469c      	mov	ip, r3
10001538:	6a94      	ldr	r4, [r2, #40]	@ 0x28
1000153a:	6a53      	ldr	r3, [r2, #36]	@ 0x24
1000153c:	4563      	cmp	r3, ip
1000153e:	d1fa      	bne.n	10001536 <busy_wait_us+0x6>
10001540:	1902      	adds	r2, r0, r4
10001542:	4159      	adcs	r1, r3
10001544:	f04f 0500 	mov.w	r5, #0
10001548:	bf28      	it	cs
1000154a:	2501      	movcs	r5, #1
1000154c:	4b0e      	ldr	r3, [pc, #56]	@ (10001588 <busy_wait_us+0x58>)
1000154e:	6a5b      	ldr	r3, [r3, #36]	@ 0x24
10001550:	b1b5      	cbz	r5, 10001580 <busy_wait_us+0x50>
10001552:	1c5a      	adds	r2, r3, #1
10001554:	bf08      	it	eq
10001556:	461a      	moveq	r2, r3
10001558:	d008      	beq.n	1000156c <busy_wait_us+0x3c>
1000155a:	f04f 31ff 	mov.w	r1, #4294967295	@ 0xffffffff
1000155e:	460a      	mov	r2, r1
10001560:	4809      	ldr	r0, [pc, #36]	@ (10001588 <busy_wait_us+0x58>)
10001562:	6a43      	ldr	r3, [r0, #36]	@ 0x24
10001564:	428b      	cmp	r3, r1
10001566:	d3fc      	bcc.n	10001562 <busy_wait_us+0x32>
10001568:	428b      	cmp	r3, r1
1000156a:	d107      	bne.n	1000157c <busy_wait_us+0x4c>
1000156c:	4906      	ldr	r1, [pc, #24]	@ (10001588 <busy_wait_us+0x58>)
1000156e:	e002      	b.n	10001576 <busy_wait_us+0x46>
10001570:	6a48      	ldr	r0, [r1, #36]	@ 0x24
10001572:	4298      	cmp	r0, r3
10001574:	d102      	bne.n	1000157c <busy_wait_us+0x4c>
10001576:	6a88      	ldr	r0, [r1, #40]	@ 0x28
10001578:	4290      	cmp	r0, r2
1000157a:	d3f9      	bcc.n	10001570 <busy_wait_us+0x40>
1000157c:	bc30      	pop	{r4, r5}
1000157e:	4770      	bx	lr
10001580:	4299      	cmp	r1, r3
10001582:	d8ed      	bhi.n	10001560 <busy_wait_us+0x30>
10001584:	e7f0      	b.n	10001568 <busy_wait_us+0x38>
10001586:	bf00      	nop
10001588:	400b0000 	.word	0x400b0000

1000158c <busy_wait_until>:
1000158c:	4a07      	ldr	r2, [pc, #28]	@ (100015ac <busy_wait_until+0x20>)
1000158e:	6a53      	ldr	r3, [r2, #36]	@ 0x24
10001590:	4299      	cmp	r1, r3
10001592:	d8fc      	bhi.n	1000158e <busy_wait_until+0x2>
10001594:	4299      	cmp	r1, r3
10001596:	d107      	bne.n	100015a8 <busy_wait_until+0x1c>
10001598:	4b04      	ldr	r3, [pc, #16]	@ (100015ac <busy_wait_until+0x20>)
1000159a:	e002      	b.n	100015a2 <busy_wait_until+0x16>
1000159c:	6a5a      	ldr	r2, [r3, #36]	@ 0x24
1000159e:	4291      	cmp	r1, r2
100015a0:	d102      	bne.n	100015a8 <busy_wait_until+0x1c>
100015a2:	6a9a      	ldr	r2, [r3, #40]	@ 0x28
100015a4:	4290      	cmp	r0, r2
100015a6:	d8f9      	bhi.n	1000159c <busy_wait_until+0x10>
100015a8:	4770      	bx	lr
100015aa:	bf00      	nop
100015ac:	400b0000 	.word	0x400b0000

100015b0 <clock_configure_undivided>:
100015b0:	eb00 0c40 	add.w	ip, r0, r0, lsl #1
100015b4:	ea4f 0c8c 	mov.w	ip, ip, lsl #2
100015b8:	f10c 4c80 	add.w	ip, ip, #1073741824	@ 0x40000000
100015bc:	f50c 3c80 	add.w	ip, ip, #65536	@ 0x10000
100015c0:	b5f0      	push	{r4, r5, r6, r7, lr}
100015c2:	4616      	mov	r6, r2
100015c4:	f8dc 2004 	ldr.w	r2, [ip, #4]
100015c8:	1f05      	subs	r5, r0, #4
100015ca:	f5b2 3f80 	cmp.w	r2, #65536	@ 0x10000
100015ce:	bf38      	it	cc
100015d0:	f44f 3280 	movcc.w	r2, #65536	@ 0x10000
100015d4:	b2ed      	uxtb	r5, r5
100015d6:	bf38      	it	cc
100015d8:	f8cc 2004 	strcc.w	r2, [ip, #4]
100015dc:	2d01      	cmp	r5, #1
100015de:	d92a      	bls.n	10001636 <clock_configure_undivided+0x86>
100015e0:	f44f 6700 	mov.w	r7, #2048	@ 0x800
100015e4:	4c25      	ldr	r4, [pc, #148]	@ (1000167c <clock_configure_undivided+0xcc>)
100015e6:	f50c 5240 	add.w	r2, ip, #12288	@ 0x3000
100015ea:	6017      	str	r7, [r2, #0]
100015ec:	f854 2020 	ldr.w	r2, [r4, r0, lsl #2]
100015f0:	b9b2      	cbnz	r2, 10001620 <clock_configure_undivided+0x70>
100015f2:	f8dc 2000 	ldr.w	r2, [ip]
100015f6:	2d01      	cmp	r5, #1
100015f8:	ea82 1246 	eor.w	r2, r2, r6, lsl #5
100015fc:	f002 02e0 	and.w	r2, r2, #224	@ 0xe0
10001600:	f50c 5680 	add.w	r6, ip, #4096	@ 0x1000
10001604:	6032      	str	r2, [r6, #0]
10001606:	d92a      	bls.n	1000165e <clock_configure_undivided+0xae>
10001608:	f44f 6100 	mov.w	r1, #2048	@ 0x800
1000160c:	f844 3020 	str.w	r3, [r4, r0, lsl #2]
10001610:	f44f 3380 	mov.w	r3, #65536	@ 0x10000
10001614:	f50c 5200 	add.w	r2, ip, #8192	@ 0x2000
10001618:	6011      	str	r1, [r2, #0]
1000161a:	f8cc 3004 	str.w	r3, [ip, #4]
1000161e:	bdf0      	pop	{r4, r5, r6, r7, pc}
10001620:	6967      	ldr	r7, [r4, #20]
10001622:	fbb7 fef2 	udiv	lr, r7, r2
10001626:	f10e 0e01 	add.w	lr, lr, #1
1000162a:	eb0e 0e4e 	add.w	lr, lr, lr, lsl #1
1000162e:	f1be 0e03 	subs.w	lr, lr, #3
10001632:	d2fc      	bcs.n	1000162e <clock_configure_undivided+0x7e>
10001634:	e7dd      	b.n	100015f2 <clock_configure_undivided+0x42>
10001636:	2901      	cmp	r1, #1
10001638:	d1d2      	bne.n	100015e0 <clock_configure_undivided+0x30>
1000163a:	2403      	movs	r4, #3
1000163c:	f50c 5240 	add.w	r2, ip, #12288	@ 0x3000
10001640:	6014      	str	r4, [r2, #0]
10001642:	f8dc 2008 	ldr.w	r2, [ip, #8]
10001646:	07d2      	lsls	r2, r2, #31
10001648:	d5fb      	bpl.n	10001642 <clock_configure_undivided+0x92>
1000164a:	f8dc 2000 	ldr.w	r2, [ip]
1000164e:	4c0b      	ldr	r4, [pc, #44]	@ (1000167c <clock_configure_undivided+0xcc>)
10001650:	ea82 1246 	eor.w	r2, r2, r6, lsl #5
10001654:	f002 02e0 	and.w	r2, r2, #224	@ 0xe0
10001658:	f50c 5680 	add.w	r6, ip, #4096	@ 0x1000
1000165c:	6032      	str	r2, [r6, #0]
1000165e:	2201      	movs	r2, #1
10001660:	f8dc 5000 	ldr.w	r5, [ip]
10001664:	404d      	eors	r5, r1
10001666:	f005 0503 	and.w	r5, r5, #3
1000166a:	6035      	str	r5, [r6, #0]
1000166c:	fa02 f101 	lsl.w	r1, r2, r1
10001670:	f8dc 2008 	ldr.w	r2, [ip, #8]
10001674:	420a      	tst	r2, r1
10001676:	d0fb      	beq.n	10001670 <clock_configure_undivided+0xc0>
10001678:	e7c6      	b.n	10001608 <clock_configure_undivided+0x58>
1000167a:	bf00      	nop
1000167c:	20002528 	.word	0x20002528

10001680 <clock_get_hz>:
10001680:	4b01      	ldr	r3, [pc, #4]	@ (10001688 <clock_get_hz+0x8>)
10001682:	f853 0020 	ldr.w	r0, [r3, r0, lsl #2]
10001686:	4770      	bx	lr
10001688:	20002528 	.word	0x20002528

1000168c <pll_init>:
1000168c:	b470      	push	{r4, r5, r6}
1000168e:	9d03      	ldr	r5, [sp, #12]
10001690:	6804      	ldr	r4, [r0, #0]
10001692:	032d      	lsls	r5, r5, #12
10001694:	ea45 4503 	orr.w	r5, r5, r3, lsl #16
10001698:	4b1b      	ldr	r3, [pc, #108]	@ (10001708 <pll_init+0x7c>)
1000169a:	2c00      	cmp	r4, #0
1000169c:	fbb3 f3f1 	udiv	r3, r3, r1
100016a0:	fbb2 f6f3 	udiv	r6, r2, r3
100016a4:	db1f      	blt.n	100016e6 <pll_init+0x5a>
100016a6:	4a19      	ldr	r2, [pc, #100]	@ (1000170c <pll_init+0x80>)
100016a8:	4b19      	ldr	r3, [pc, #100]	@ (10001710 <pll_init+0x84>)
100016aa:	4290      	cmp	r0, r2
100016ac:	bf14      	ite	ne
100016ae:	f44f 4280 	movne.w	r2, #16384	@ 0x4000
100016b2:	f44f 4200 	moveq.w	r2, #32768	@ 0x8000
100016b6:	4c17      	ldr	r4, [pc, #92]	@ (10001714 <pll_init+0x88>)
100016b8:	601a      	str	r2, [r3, #0]
100016ba:	f503 5380 	add.w	r3, r3, #4096	@ 0x1000
100016be:	601a      	str	r2, [r3, #0]
100016c0:	68a3      	ldr	r3, [r4, #8]
100016c2:	ea32 0303 	bics.w	r3, r2, r3
100016c6:	d1fb      	bne.n	100016c0 <pll_init+0x34>
100016c8:	2221      	movs	r2, #33	@ 0x21
100016ca:	f500 5340 	add.w	r3, r0, #12288	@ 0x3000
100016ce:	3304      	adds	r3, #4
100016d0:	6001      	str	r1, [r0, #0]
100016d2:	6086      	str	r6, [r0, #8]
100016d4:	601a      	str	r2, [r3, #0]
100016d6:	6802      	ldr	r2, [r0, #0]
100016d8:	2a00      	cmp	r2, #0
100016da:	dafc      	bge.n	100016d6 <pll_init+0x4a>
100016dc:	2208      	movs	r2, #8
100016de:	60c5      	str	r5, [r0, #12]
100016e0:	601a      	str	r2, [r3, #0]
100016e2:	bc70      	pop	{r4, r5, r6}
100016e4:	4770      	bx	lr
100016e6:	6803      	ldr	r3, [r0, #0]
100016e8:	f003 033f 	and.w	r3, r3, #63	@ 0x3f
100016ec:	428b      	cmp	r3, r1
100016ee:	d1da      	bne.n	100016a6 <pll_init+0x1a>
100016f0:	6883      	ldr	r3, [r0, #8]
100016f2:	f3c3 030b 	ubfx	r3, r3, #0, #12
100016f6:	42b3      	cmp	r3, r6
100016f8:	d1d5      	bne.n	100016a6 <pll_init+0x1a>
100016fa:	68c3      	ldr	r3, [r0, #12]
100016fc:	f403 23ee 	and.w	r3, r3, #487424	@ 0x77000
10001700:	42ab      	cmp	r3, r5
10001702:	d1d0      	bne.n	100016a6 <pll_init+0x1a>
10001704:	e7ed      	b.n	100016e2 <pll_init+0x56>
10001706:	bf00      	nop
10001708:	00b71b00 	.word	0x00b71b00
1000170c:	40058000 	.word	0x40058000
10001710:	40022000 	.word	0x40022000
10001714:	40020000 	.word	0x40020000

10001718 <watchdog_reboot>:
10001718:	b430      	push	{r4, r5}
1000171a:	f04f 4480 	mov.w	r4, #1073741824	@ 0x40000000
1000171e:	4b1c      	ldr	r3, [pc, #112]	@ (10001790 <watchdog_reboot+0x78>)
10001720:	601c      	str	r4, [r3, #0]
10001722:	b1e0      	cbz	r0, 1000175e <watchdog_reboot+0x46>
10001724:	4c1b      	ldr	r4, [pc, #108]	@ (10001794 <watchdog_reboot+0x7c>)
10001726:	f5a3 5340 	sub.w	r3, r3, #12288	@ 0x3000
1000172a:	61dc      	str	r4, [r3, #28]
1000172c:	4c1a      	ldr	r4, [pc, #104]	@ (10001798 <watchdog_reboot+0x80>)
1000172e:	f040 0001 	orr.w	r0, r0, #1
10001732:	4044      	eors	r4, r0
10001734:	621c      	str	r4, [r3, #32]
10001736:	6259      	str	r1, [r3, #36]	@ 0x24
10001738:	6298      	str	r0, [r3, #40]	@ 0x28
1000173a:	f04f 4580 	mov.w	r5, #1073741824	@ 0x40000000
1000173e:	f04f 61e0 	mov.w	r1, #117440512	@ 0x7000000
10001742:	4b13      	ldr	r3, [pc, #76]	@ (10001790 <watchdog_reboot+0x78>)
10001744:	4815      	ldr	r0, [pc, #84]	@ (1000179c <watchdog_reboot+0x84>)
10001746:	4c16      	ldr	r4, [pc, #88]	@ (100017a0 <watchdog_reboot+0x88>)
10001748:	601d      	str	r5, [r3, #0]
1000174a:	6084      	str	r4, [r0, #8]
1000174c:	6019      	str	r1, [r3, #0]
1000174e:	b94a      	cbnz	r2, 10001764 <watchdog_reboot+0x4c>
10001750:	bc30      	pop	{r4, r5}
10001752:	f04f 4200 	mov.w	r2, #2147483648	@ 0x80000000
10001756:	f5a3 5380 	sub.w	r3, r3, #4096	@ 0x1000
1000175a:	601a      	str	r2, [r3, #0]
1000175c:	4770      	bx	lr
1000175e:	4b11      	ldr	r3, [pc, #68]	@ (100017a4 <watchdog_reboot+0x8c>)
10001760:	61d8      	str	r0, [r3, #28]
10001762:	e7ea      	b.n	1000173a <watchdog_reboot+0x22>
10001764:	f44f 737a 	mov.w	r3, #1000	@ 0x3e8
10001768:	fb03 f202 	mul.w	r2, r3, r2
1000176c:	f1b2 7f80 	cmp.w	r2, #16777216	@ 0x1000000
10001770:	bf2a      	itet	cs
10001772:	f06f 437f 	mvncs.w	r3, #4278190080	@ 0xff000000
10001776:	4613      	movcc	r3, r2
10001778:	461a      	movcs	r2, r3
1000177a:	f04f 4180 	mov.w	r1, #1073741824	@ 0x40000000
1000177e:	4c0a      	ldr	r4, [pc, #40]	@ (100017a8 <watchdog_reboot+0x90>)
10001780:	4808      	ldr	r0, [pc, #32]	@ (100017a4 <watchdog_reboot+0x8c>)
10001782:	6023      	str	r3, [r4, #0]
10001784:	4b09      	ldr	r3, [pc, #36]	@ (100017ac <watchdog_reboot+0x94>)
10001786:	6042      	str	r2, [r0, #4]
10001788:	bc30      	pop	{r4, r5}
1000178a:	6019      	str	r1, [r3, #0]
1000178c:	4770      	bx	lr
1000178e:	bf00      	nop
10001790:	400db000 	.word	0x400db000
10001794:	b007c0d3 	.word	0xb007c0d3
10001798:	4ff83f2d 	.word	0x4ff83f2d
1000179c:	4001a000 	.word	0x4001a000
100017a0:	01fffff3 	.word	0x01fffff3
100017a4:	400d8000 	.word	0x400d8000
100017a8:	20002990 	.word	0x20002990
100017ac:	400da000 	.word	0x400da000

100017b0 <tick_start>:
100017b0:	2301      	movs	r3, #1
100017b2:	eb00 0040 	add.w	r0, r0, r0, lsl #1
100017b6:	0080      	lsls	r0, r0, #2
100017b8:	f100 4080 	add.w	r0, r0, #1073741824	@ 0x40000000
100017bc:	f500 1084 	add.w	r0, r0, #1081344	@ 0x108000
100017c0:	6041      	str	r1, [r0, #4]
100017c2:	6003      	str	r3, [r0, #0]
100017c4:	4770      	bx	lr
100017c6:	bf00      	nop

100017c8 <rom_reboot.constprop.0.isra.0>:
100017c8:	2300      	movs	r3, #0
100017ca:	b570      	push	{r4, r5, r6, lr}
100017cc:	8adb      	ldrh	r3, [r3, #22]
100017ce:	4604      	mov	r4, r0
100017d0:	460d      	mov	r5, r1
100017d2:	2200      	movs	r2, #0
100017d4:	e842 f200 	tt	r2, r2
100017d8:	0252      	lsls	r2, r2, #9
100017da:	bf54      	ite	pl
100017dc:	2110      	movpl	r1, #16
100017de:	2104      	movmi	r1, #4
100017e0:	f244 2052 	movw	r0, #16978	@ 0x4252
100017e4:	4798      	blx	r3
100017e6:	4686      	mov	lr, r0
100017e8:	462b      	mov	r3, r5
100017ea:	4622      	mov	r2, r4
100017ec:	46f4      	mov	ip, lr
100017ee:	e8bd 4070 	ldmia.w	sp!, {r4, r5, r6, lr}
100017f2:	210a      	movs	r1, #10
100017f4:	f44f 7081 	mov.w	r0, #258	@ 0x102
100017f8:	4760      	bx	ip
100017fa:	bf00      	nop

100017fc <rom_func_lookup>:
100017fc:	2300      	movs	r3, #0
100017fe:	8adb      	ldrh	r3, [r3, #22]
10001800:	2200      	movs	r2, #0
10001802:	e842 f200 	tt	r2, r2
10001806:	0252      	lsls	r2, r2, #9
10001808:	d401      	bmi.n	1000180e <rom_func_lookup+0x12>
1000180a:	2110      	movs	r1, #16
1000180c:	4718      	bx	r3
1000180e:	2104      	movs	r1, #4
10001810:	4718      	bx	r3
10001812:	bf00      	nop

10001814 <rom_reset_usb_boot_extra>:
10001814:	b508      	push	{r3, lr}
10001816:	4603      	mov	r3, r0
10001818:	4608      	mov	r0, r1
1000181a:	1e19      	subs	r1, r3, #0
1000181c:	db02      	blt.n	10001824 <rom_reset_usb_boot_extra+0x10>
1000181e:	b11a      	cbz	r2, 10001828 <rom_reset_usb_boot_extra+0x14>
10001820:	f040 0030 	orr.w	r0, r0, #48	@ 0x30
10001824:	f7ff ffd0 	bl	100017c8 <rom_reboot.constprop.0.isra.0>
10001828:	f040 0020 	orr.w	r0, r0, #32
1000182c:	e7fa      	b.n	10001824 <rom_reset_usb_boot_extra+0x10>
1000182e:	bf00      	nop

10001830 <runtime_init_bootrom_locking_enable>:
10001830:	4a03      	ldr	r2, [pc, #12]	@ (10001840 <runtime_init_bootrom_locking_enable+0x10>)
10001832:	f8d2 3828 	ldr.w	r3, [r2, #2088]	@ 0x828
10001836:	2b00      	cmp	r3, #0
10001838:	d0fb      	beq.n	10001832 <runtime_init_bootrom_locking_enable+0x2>
1000183a:	f3bf 8f5f 	dmb	sy
1000183e:	4770      	bx	lr
10001840:	400e0000 	.word	0x400e0000

10001844 <runtime_init_boot_locks_reset>:
10001844:	2100      	movs	r1, #0
10001846:	4b04      	ldr	r3, [pc, #16]	@ (10001858 <runtime_init_boot_locks_reset+0x14>)
10001848:	4a04      	ldr	r2, [pc, #16]	@ (1000185c <runtime_init_boot_locks_reset+0x18>)
1000184a:	f3bf 8f5f 	dmb	sy
1000184e:	f843 1b04 	str.w	r1, [r3], #4
10001852:	4293      	cmp	r3, r2
10001854:	d1f9      	bne.n	1000184a <runtime_init_boot_locks_reset+0x6>
10001856:	4770      	bx	lr
10001858:	400e080c 	.word	0x400e080c
1000185c:	400e082c 	.word	0x400e082c

10001860 <xosc_init>:
10001860:	b410      	push	{r4}
10001862:	f44f 708d 	mov.w	r0, #282	@ 0x11a
10001866:	f44f 642a 	mov.w	r4, #2720	@ 0xaa0
1000186a:	4a06      	ldr	r2, [pc, #24]	@ (10001884 <xosc_init+0x24>)
1000186c:	4b06      	ldr	r3, [pc, #24]	@ (10001888 <xosc_init+0x28>)
1000186e:	4907      	ldr	r1, [pc, #28]	@ (1000188c <xosc_init+0x2c>)
10001870:	6014      	str	r4, [r2, #0]
10001872:	60d0      	str	r0, [r2, #12]
10001874:	6019      	str	r1, [r3, #0]
10001876:	6853      	ldr	r3, [r2, #4]
10001878:	2b00      	cmp	r3, #0
1000187a:	dafc      	bge.n	10001876 <xosc_init+0x16>
1000187c:	f85d 4b04 	ldr.w	r4, [sp], #4
10001880:	4770      	bx	lr
10001882:	bf00      	nop
10001884:	40048000 	.word	0x40048000
10001888:	4004a000 	.word	0x4004a000
1000188c:	00fab000 	.word	0x00fab000

10001890 <first_per_core_initializer>:
10001890:	4770      	bx	lr
10001892:	bf00      	nop

10001894 <hard_assertion_failure>:
10001894:	b508      	push	{r3, lr}
10001896:	4801      	ldr	r0, [pc, #4]	@ (1000189c <hard_assertion_failure+0x8>)
10001898:	f7fe ff22 	bl	100006e0 <panic>
1000189c:	10008908 	.word	0x10008908

100018a0 <runtime_run_initializers>:
100018a0:	b538      	push	{r3, r4, r5, lr}
100018a2:	4c05      	ldr	r4, [pc, #20]	@ (100018b8 <runtime_run_initializers+0x18>)
100018a4:	4d05      	ldr	r5, [pc, #20]	@ (100018bc <runtime_run_initializers+0x1c>)
100018a6:	42ac      	cmp	r4, r5
100018a8:	d204      	bcs.n	100018b4 <runtime_run_initializers+0x14>
100018aa:	f854 3b04 	ldr.w	r3, [r4], #4
100018ae:	4798      	blx	r3
100018b0:	42ac      	cmp	r4, r5
100018b2:	d3fa      	bcc.n	100018aa <runtime_run_initializers+0xa>
100018b4:	bd38      	pop	{r3, r4, r5, pc}
100018b6:	bf00      	nop
100018b8:	100087b0 	.word	0x100087b0
100018bc:	100087f0 	.word	0x100087f0

100018c0 <runtime_run_per_core_initializers>:
100018c0:	b538      	push	{r3, r4, r5, lr}
100018c2:	4c05      	ldr	r4, [pc, #20]	@ (100018d8 <runtime_run_per_core_initializers+0x18>)
100018c4:	4d05      	ldr	r5, [pc, #20]	@ (100018dc <runtime_run_per_core_initializers+0x1c>)
100018c6:	42ac      	cmp	r4, r5
100018c8:	d204      	bcs.n	100018d4 <runtime_run_per_core_initializers+0x14>
100018ca:	f854 3b04 	ldr.w	r3, [r4], #4
100018ce:	4798      	blx	r3
100018d0:	42ac      	cmp	r4, r5
100018d2:	d3fa      	bcc.n	100018ca <runtime_run_per_core_initializers+0xa>
100018d4:	bd38      	pop	{r3, r4, r5, pc}
100018d6:	bf00      	nop
100018d8:	100087dc 	.word	0x100087dc
100018dc:	100087f0 	.word	0x100087f0

100018e0 <runtime_init_early_resets>:
100018e0:	b410      	push	{r4}
100018e2:	4807      	ldr	r0, [pc, #28]	@ (10001900 <runtime_init_early_resets+0x20>)
100018e4:	4c07      	ldr	r4, [pc, #28]	@ (10001904 <runtime_init_early_resets+0x24>)
100018e6:	4b08      	ldr	r3, [pc, #32]	@ (10001908 <runtime_init_early_resets+0x28>)
100018e8:	4a08      	ldr	r2, [pc, #32]	@ (1000190c <runtime_init_early_resets+0x2c>)
100018ea:	4909      	ldr	r1, [pc, #36]	@ (10001910 <runtime_init_early_resets+0x30>)
100018ec:	6004      	str	r4, [r0, #0]
100018ee:	601a      	str	r2, [r3, #0]
100018f0:	688b      	ldr	r3, [r1, #8]
100018f2:	ea32 0303 	bics.w	r3, r2, r3
100018f6:	d1fb      	bne.n	100018f0 <runtime_init_early_resets+0x10>
100018f8:	f85d 4b04 	ldr.w	r4, [sp], #4
100018fc:	4770      	bx	lr
100018fe:	bf00      	nop
10001900:	40022000 	.word	0x40022000
10001904:	efef3b7f 	.word	0xefef3b7f
10001908:	40023000 	.word	0x40023000
1000190c:	03f3fff6 	.word	0x03f3fff6
10001910:	40020000 	.word	0x40020000

10001914 <runtime_init_usb_power_down>:
10001914:	4b04      	ldr	r3, [pc, #16]	@ (10001928 <runtime_init_usb_power_down+0x14>)
10001916:	6cdb      	ldr	r3, [r3, #76]	@ 0x4c
10001918:	f5b3 4f00 	cmp.w	r3, #32768	@ 0x8000
1000191c:	d103      	bne.n	10001926 <runtime_init_usb_power_down+0x12>
1000191e:	f44f 2280 	mov.w	r2, #262144	@ 0x40000
10001922:	4b02      	ldr	r3, [pc, #8]	@ (1000192c <runtime_init_usb_power_down+0x18>)
10001924:	64da      	str	r2, [r3, #76]	@ 0x4c
10001926:	4770      	bx	lr
10001928:	50110000 	.word	0x50110000
1000192c:	50112000 	.word	0x50112000

10001930 <runtime_init_per_core_enable_coprocessors>:
10001930:	f04f 22e0 	mov.w	r2, #3758153728	@ 0xe000e000
10001934:	4b04      	ldr	r3, [pc, #16]	@ (10001948 <runtime_init_per_core_enable_coprocessors+0x18>)
10001936:	f8d2 1d88 	ldr.w	r1, [r2, #3464]	@ 0xd88
1000193a:	430b      	orrs	r3, r1
1000193c:	f8c2 3d88 	str.w	r3, [r2, #3464]	@ 0xd88
10001940:	ee10 0430 			dcp_rcmp r0
10001944:	4770      	bx	lr
10001946:	bf00      	nop
10001948:	00300303 	.word	0x00300303

1000194c <runtime_init_post_clock_resets>:
1000194c:	f06f 4160 	mvn.w	r1, #3758096384	@ 0xe0000000
10001950:	4b04      	ldr	r3, [pc, #16]	@ (10001964 <runtime_init_post_clock_resets+0x18>)
10001952:	4a05      	ldr	r2, [pc, #20]	@ (10001968 <runtime_init_post_clock_resets+0x1c>)
10001954:	6019      	str	r1, [r3, #0]
10001956:	6893      	ldr	r3, [r2, #8]
10001958:	43db      	mvns	r3, r3
1000195a:	f033 4360 	bics.w	r3, r3, #3758096384	@ 0xe0000000
1000195e:	d1fa      	bne.n	10001956 <runtime_init_post_clock_resets+0xa>
10001960:	4770      	bx	lr
10001962:	bf00      	nop
10001964:	40023000 	.word	0x40023000
10001968:	40020000 	.word	0x40020000

1000196c <runtime_init_bootrom_reset>:
1000196c:	b510      	push	{r4, lr}
1000196e:	f245 2053 	movw	r0, #21075	@ 0x5253
10001972:	f7ff ff43 	bl	100017fc <rom_func_lookup>
10001976:	e8bd 4010 	ldmia.w	sp!, {r4, lr}
1000197a:	4603      	mov	r3, r0
1000197c:	2004      	movs	r0, #4
1000197e:	4718      	bx	r3

10001980 <runtime_init_per_core_bootrom_reset>:
10001980:	b510      	push	{r4, lr}
10001982:	f245 2053 	movw	r0, #21075	@ 0x5253
10001986:	f7ff ff39 	bl	100017fc <rom_func_lookup>
1000198a:	e8bd 4010 	ldmia.w	sp!, {r4, lr}
1000198e:	4603      	mov	r3, r0
10001990:	2001      	movs	r0, #1
10001992:	4718      	bx	r3

10001994 <runtime_init_spin_locks_reset>:
10001994:	f7fe bf4c 	b.w	10000830 <spin_locks_reset>

10001998 <runtime_init_install_ram_vector_table>:
10001998:	b510      	push	{r4, lr}
1000199a:	4b05      	ldr	r3, [pc, #20]	@ (100019b0 <runtime_init_install_ram_vector_table+0x18>)
1000199c:	4c05      	ldr	r4, [pc, #20]	@ (100019b4 <runtime_init_install_ram_vector_table+0x1c>)
1000199e:	f44f 7288 	mov.w	r2, #272	@ 0x110
100019a2:	4618      	mov	r0, r3
100019a4:	68a1      	ldr	r1, [r4, #8]
100019a6:	f006 faaf 	bl	10007f08 <memcpy>
100019aa:	60a0      	str	r0, [r4, #8]
100019ac:	bd10      	pop	{r4, pc}
100019ae:	bf00      	nop
100019b0:	20000000 	.word	0x20000000
100019b4:	e000ed00 	.word	0xe000ed00

100019b8 <runtime_init_clocks>:
100019b8:	2300      	movs	r3, #0
100019ba:	b570      	push	{r4, r5, r6, lr}
100019bc:	4c2b      	ldr	r4, [pc, #172]	@ (10001a6c <runtime_init_clocks+0xb4>)
100019be:	b082      	sub	sp, #8
100019c0:	f8c4 3084 	str.w	r3, [r4, #132]	@ 0x84
100019c4:	f7ff ff4c 	bl	10001860 <xosc_init>
100019c8:	2201      	movs	r2, #1
100019ca:	4b29      	ldr	r3, [pc, #164]	@ (10001a70 <runtime_init_clocks+0xb8>)
100019cc:	63da      	str	r2, [r3, #60]	@ 0x3c
100019ce:	6c63      	ldr	r3, [r4, #68]	@ 0x44
100019d0:	2b01      	cmp	r3, #1
100019d2:	d1fc      	bne.n	100019ce <runtime_init_clocks+0x16>
100019d4:	2103      	movs	r1, #3
100019d6:	4a26      	ldr	r2, [pc, #152]	@ (10001a70 <runtime_init_clocks+0xb8>)
100019d8:	4b24      	ldr	r3, [pc, #144]	@ (10001a6c <runtime_init_clocks+0xb4>)
100019da:	6311      	str	r1, [r2, #48]	@ 0x30
100019dc:	6b9c      	ldr	r4, [r3, #56]	@ 0x38
100019de:	2c01      	cmp	r4, #1
100019e0:	d1fc      	bne.n	100019dc <runtime_init_clocks+0x24>
100019e2:	2602      	movs	r6, #2
100019e4:	2505      	movs	r5, #5
100019e6:	4621      	mov	r1, r4
100019e8:	2305      	movs	r3, #5
100019ea:	4a22      	ldr	r2, [pc, #136]	@ (10001a74 <runtime_init_clocks+0xbc>)
100019ec:	4822      	ldr	r0, [pc, #136]	@ (10001a78 <runtime_init_clocks+0xc0>)
100019ee:	9600      	str	r6, [sp, #0]
100019f0:	f7ff fe4c 	bl	1000168c <pll_init>
100019f4:	4621      	mov	r1, r4
100019f6:	462b      	mov	r3, r5
100019f8:	4a20      	ldr	r2, [pc, #128]	@ (10001a7c <runtime_init_clocks+0xc4>)
100019fa:	4821      	ldr	r0, [pc, #132]	@ (10001a80 <runtime_init_clocks+0xc8>)
100019fc:	9500      	str	r5, [sp, #0]
100019fe:	f7ff fe45 	bl	1000168c <pll_init>
10001a02:	2200      	movs	r2, #0
10001a04:	2004      	movs	r0, #4
10001a06:	4631      	mov	r1, r6
10001a08:	4b1e      	ldr	r3, [pc, #120]	@ (10001a84 <runtime_init_clocks+0xcc>)
10001a0a:	f7ff fdd1 	bl	100015b0 <clock_configure_undivided>
10001a0e:	4621      	mov	r1, r4
10001a10:	4628      	mov	r0, r5
10001a12:	2200      	movs	r2, #0
10001a14:	4b1c      	ldr	r3, [pc, #112]	@ (10001a88 <runtime_init_clocks+0xd0>)
10001a16:	f7ff fdcb 	bl	100015b0 <clock_configure_undivided>
10001a1a:	2200      	movs	r2, #0
10001a1c:	2008      	movs	r0, #8
10001a1e:	4611      	mov	r1, r2
10001a20:	4b1a      	ldr	r3, [pc, #104]	@ (10001a8c <runtime_init_clocks+0xd4>)
10001a22:	f7ff fdc5 	bl	100015b0 <clock_configure_undivided>
10001a26:	2200      	movs	r2, #0
10001a28:	2009      	movs	r0, #9
10001a2a:	4611      	mov	r1, r2
10001a2c:	4b17      	ldr	r3, [pc, #92]	@ (10001a8c <runtime_init_clocks+0xd4>)
10001a2e:	f7ff fdbf 	bl	100015b0 <clock_configure_undivided>
10001a32:	2200      	movs	r2, #0
10001a34:	2006      	movs	r0, #6
10001a36:	4611      	mov	r1, r2
10001a38:	4b13      	ldr	r3, [pc, #76]	@ (10001a88 <runtime_init_clocks+0xd0>)
10001a3a:	f7ff fdb9 	bl	100015b0 <clock_configure_undivided>
10001a3e:	2200      	movs	r2, #0
10001a40:	4b11      	ldr	r3, [pc, #68]	@ (10001a88 <runtime_init_clocks+0xd0>)
10001a42:	2007      	movs	r0, #7
10001a44:	4611      	mov	r1, r2
10001a46:	f7ff fdb3 	bl	100015b0 <clock_configure_undivided>
10001a4a:	2004      	movs	r0, #4
10001a4c:	f7ff fe18 	bl	10001680 <clock_get_hz>
10001a50:	2400      	movs	r4, #0
10001a52:	4b0f      	ldr	r3, [pc, #60]	@ (10001a90 <runtime_init_clocks+0xd8>)
10001a54:	fba3 3500 	umull	r3, r5, r3, r0
10001a58:	0cad      	lsrs	r5, r5, #18
10001a5a:	b2e0      	uxtb	r0, r4
10001a5c:	4629      	mov	r1, r5
10001a5e:	3401      	adds	r4, #1
10001a60:	f7ff fea6 	bl	100017b0 <tick_start>
10001a64:	2c06      	cmp	r4, #6
10001a66:	d1f8      	bne.n	10001a5a <runtime_init_clocks+0xa2>
10001a68:	b002      	add	sp, #8
10001a6a:	bd70      	pop	{r4, r5, r6, pc}
10001a6c:	40010000 	.word	0x40010000
10001a70:	40013000 	.word	0x40013000
10001a74:	59682f00 	.word	0x59682f00
10001a78:	40050000 	.word	0x40050000
10001a7c:	47868c00 	.word	0x47868c00
10001a80:	40058000 	.word	0x40058000
10001a84:	00b71b00 	.word	0x00b71b00
10001a88:	08f0d180 	.word	0x08f0d180
10001a8c:	02dc6c00 	.word	0x02dc6c00
10001a90:	431bde83 	.word	0x431bde83
10001a94:	00000000 	.word	0x00000000

10001a98 <dpow_1>:
10001a98:	e92d 4ff0 	stmdb	sp!, {r4, r5, r6, r7, r8, r9, sl, fp, lr}
10001a9c:	f3c1 590a 	ubfx	r9, r1, #20, #11
10001aa0:	4616      	mov	r6, r2
10001aa2:	461f      	mov	r7, r3
10001aa4:	b087      	sub	sp, #28
10001aa6:	f2a9 38ff 	subw	r8, r9, #1023	@ 0x3ff
10001aaa:	f1b9 0f00 	cmp.w	r9, #0
10001aae:	d051      	beq.n	10001b54 <dpow_1+0xbc>
10001ab0:	f240 74ff 	movw	r4, #2047	@ 0x7ff
10001ab4:	45a1      	cmp	r9, r4
10001ab6:	d04d      	beq.n	10001b54 <dpow_1+0xbc>
10001ab8:	2400      	movs	r4, #0
10001aba:	f5c9 727f 	rsb	r2, r9, #1020	@ 0x3fc
10001abe:	3203      	adds	r2, #3
10001ac0:	1820      	adds	r0, r4, r0
10001ac2:	eb01 5102 	add.w	r1, r1, r2, lsl #20
10001ac6:	f001 f906 	bl	10002cd6 <__wrap_log>
10001aca:	a385      	add	r3, pc, #532	@ (adr r3, 10001ce0 <dpow_1+0x248>)
10001acc:	e9d3 2300 	ldrd	r2, r3, [r3]
10001ad0:	f000 fcf2 	bl	100024b8 <__wrap___aeabi_ddiv>
10001ad4:	2200      	movs	r2, #0
10001ad6:	4b84      	ldr	r3, [pc, #528]	@ (10001ce8 <dpow_1+0x250>)
10001ad8:	4604      	mov	r4, r0
10001ada:	460d      	mov	r5, r1
10001adc:	f000 fdf0 	bl	100026c0 <__wrap___aeabi_dcmpgt>
10001ae0:	b148      	cbz	r0, 10001af6 <dpow_1+0x5e>
10001ae2:	4620      	mov	r0, r4
10001ae4:	4629      	mov	r1, r5
10001ae6:	2200      	movs	r2, #0
10001ae8:	4b80      	ldr	r3, [pc, #512]	@ (10001cec <dpow_1+0x254>)
10001aea:	f000 fcab 	bl	10002444 <__wrap___aeabi_dsub>
10001aee:	4604      	mov	r4, r0
10001af0:	460d      	mov	r5, r1
10001af2:	f2a9 38fe 	subw	r8, r9, #1022	@ 0x3fe
10001af6:	f1b8 0f00 	cmp.w	r8, #0
10001afa:	d020      	beq.n	10001b3e <dpow_1+0xa6>
10001afc:	4630      	mov	r0, r6
10001afe:	4639      	mov	r1, r7
10001b00:	2200      	movs	r2, #0
10001b02:	4b7b      	ldr	r3, [pc, #492]	@ (10001cf0 <dpow_1+0x258>)
10001b04:	f000 fdc8 	bl	10002698 <__wrap___aeabi_dcmpge>
10001b08:	b140      	cbz	r0, 10001b1c <dpow_1+0x84>
10001b0a:	f1b8 0f00 	cmp.w	r8, #0
10001b0e:	f04f 0000 	mov.w	r0, #0
10001b12:	db10      	blt.n	10001b36 <dpow_1+0x9e>
10001b14:	4977      	ldr	r1, [pc, #476]	@ (10001cf4 <dpow_1+0x25c>)
10001b16:	b007      	add	sp, #28
10001b18:	e8bd 8ff0 	ldmia.w	sp!, {r4, r5, r6, r7, r8, r9, sl, fp, pc}
10001b1c:	4630      	mov	r0, r6
10001b1e:	4639      	mov	r1, r7
10001b20:	2200      	movs	r2, #0
10001b22:	4b75      	ldr	r3, [pc, #468]	@ (10001cf8 <dpow_1+0x260>)
10001b24:	f000 fda4 	bl	10002670 <__wrap___aeabi_dcmple>
10001b28:	4681      	mov	r9, r0
10001b2a:	b368      	cbz	r0, 10001b88 <dpow_1+0xf0>
10001b2c:	f1b8 0f00 	cmp.w	r8, #0
10001b30:	f04f 0000 	mov.w	r0, #0
10001b34:	dbee      	blt.n	10001b14 <dpow_1+0x7c>
10001b36:	2100      	movs	r1, #0
10001b38:	b007      	add	sp, #28
10001b3a:	e8bd 8ff0 	ldmia.w	sp!, {r4, r5, r6, r7, r8, r9, sl, fp, pc}
10001b3e:	4632      	mov	r2, r6
10001b40:	463b      	mov	r3, r7
10001b42:	4620      	mov	r0, r4
10001b44:	4629      	mov	r1, r5
10001b46:	f000 fc91 	bl	1000246c <__wrap___aeabi_dmul>
10001b4a:	b007      	add	sp, #28
10001b4c:	e8bd 4ff0 	ldmia.w	sp!, {r4, r5, r6, r7, r8, r9, sl, fp, lr}
10001b50:	f000 ba76 	b.w	10002040 <__wrap_exp2>
10001b54:	f001 f8bf 	bl	10002cd6 <__wrap_log>
10001b58:	a361      	add	r3, pc, #388	@ (adr r3, 10001ce0 <dpow_1+0x248>)
10001b5a:	e9d3 2300 	ldrd	r2, r3, [r3]
10001b5e:	f000 fcab 	bl	100024b8 <__wrap___aeabi_ddiv>
10001b62:	2200      	movs	r2, #0
10001b64:	4b60      	ldr	r3, [pc, #384]	@ (10001ce8 <dpow_1+0x250>)
10001b66:	4604      	mov	r4, r0
10001b68:	460d      	mov	r5, r1
10001b6a:	f000 fda9 	bl	100026c0 <__wrap___aeabi_dcmpgt>
10001b6e:	2800      	cmp	r0, #0
10001b70:	d0c4      	beq.n	10001afc <dpow_1+0x64>
10001b72:	4620      	mov	r0, r4
10001b74:	4629      	mov	r1, r5
10001b76:	2200      	movs	r2, #0
10001b78:	4b5c      	ldr	r3, [pc, #368]	@ (10001cec <dpow_1+0x254>)
10001b7a:	f000 fc63 	bl	10002444 <__wrap___aeabi_dsub>
10001b7e:	f2a9 38fe 	subw	r8, r9, #1022	@ 0x3fe
10001b82:	4604      	mov	r4, r0
10001b84:	460d      	mov	r5, r1
10001b86:	e7b9      	b.n	10001afc <dpow_1+0x64>
10001b88:	4630      	mov	r0, r6
10001b8a:	4639      	mov	r1, r7
10001b8c:	f000 fa1a 	bl	10001fc4 <__wrap_round>
10001b90:	460b      	mov	r3, r1
10001b92:	4602      	mov	r2, r0
10001b94:	4639      	mov	r1, r7
10001b96:	4630      	mov	r0, r6
10001b98:	461f      	mov	r7, r3
10001b9a:	4616      	mov	r6, r2
10001b9c:	f000 fc52 	bl	10002444 <__wrap___aeabi_dsub>
10001ba0:	4682      	mov	sl, r0
10001ba2:	468b      	mov	fp, r1
10001ba4:	221a      	movs	r2, #26
10001ba6:	e9cd ab00 	strd	sl, fp, [sp]
10001baa:	f000 f9e9 	bl	10001f80 <__wrap_ldexp>
10001bae:	f000 fa09 	bl	10001fc4 <__wrap_round>
10001bb2:	f3c1 530a 	ubfx	r3, r1, #20, #11
10001bb6:	f240 7cff 	movw	ip, #2047	@ 0x7ff
10001bba:	4682      	mov	sl, r0
10001bbc:	468b      	mov	fp, r1
10001bbe:	b14b      	cbz	r3, 10001bd4 <dpow_1+0x13c>
10001bc0:	4563      	cmp	r3, ip
10001bc2:	d007      	beq.n	10001bd4 <dpow_1+0x13c>
10001bc4:	2b1a      	cmp	r3, #26
10001bc6:	bfd5      	itete	le
10001bc8:	46ca      	movle	sl, r9
10001bca:	4682      	movgt	sl, r0
10001bcc:	f001 4b00 	andle.w	fp, r1, #2147483648	@ 0x80000000
10001bd0:	f1a1 7bd0 	subgt.w	fp, r1, #27262976	@ 0x1a00000
10001bd4:	4639      	mov	r1, r7
10001bd6:	4630      	mov	r0, r6
10001bd8:	f000 fcee 	bl	100025b8 <__wrap___aeabi_d2iz>
10001bdc:	4681      	mov	r9, r0
10001bde:	4640      	mov	r0, r8
10001be0:	f000 fcc6 	bl	10002570 <__wrap___aeabi_i2d>
10001be4:	4602      	mov	r2, r0
10001be6:	460b      	mov	r3, r1
10001be8:	e9cd 2304 	strd	r2, r3, [sp, #16]
10001bec:	4652      	mov	r2, sl
10001bee:	465b      	mov	r3, fp
10001bf0:	f000 fc3c 	bl	1000246c <__wrap___aeabi_dmul>
10001bf4:	4606      	mov	r6, r0
10001bf6:	460f      	mov	r7, r1
10001bf8:	f000 f9e4 	bl	10001fc4 <__wrap_round>
10001bfc:	4602      	mov	r2, r0
10001bfe:	460b      	mov	r3, r1
10001c00:	4630      	mov	r0, r6
10001c02:	4639      	mov	r1, r7
10001c04:	4616      	mov	r6, r2
10001c06:	461f      	mov	r7, r3
10001c08:	e9cd 6702 	strd	r6, r7, [sp, #8]
10001c0c:	f000 fc1a 	bl	10002444 <__wrap___aeabi_dsub>
10001c10:	4606      	mov	r6, r0
10001c12:	460f      	mov	r7, r1
10001c14:	e9dd 0100 	ldrd	r0, r1, [sp]
10001c18:	4652      	mov	r2, sl
10001c1a:	465b      	mov	r3, fp
10001c1c:	f000 fc12 	bl	10002444 <__wrap___aeabi_dsub>
10001c20:	e9dd 2304 	ldrd	r2, r3, [sp, #16]
10001c24:	f000 fc22 	bl	1000246c <__wrap___aeabi_dmul>
10001c28:	4632      	mov	r2, r6
10001c2a:	463b      	mov	r3, r7
10001c2c:	f000 fbf6 	bl	1000241c <__wrap___aeabi_dadd>
10001c30:	e9cd 0104 	strd	r0, r1, [sp, #16]
10001c34:	4648      	mov	r0, r9
10001c36:	f000 fc9b 	bl	10002570 <__wrap___aeabi_i2d>
10001c3a:	4622      	mov	r2, r4
10001c3c:	462b      	mov	r3, r5
10001c3e:	f000 fc15 	bl	1000246c <__wrap___aeabi_dmul>
10001c42:	4606      	mov	r6, r0
10001c44:	460f      	mov	r7, r1
10001c46:	f000 f9bd 	bl	10001fc4 <__wrap_round>
10001c4a:	4682      	mov	sl, r0
10001c4c:	468b      	mov	fp, r1
10001c4e:	4630      	mov	r0, r6
10001c50:	4639      	mov	r1, r7
10001c52:	4652      	mov	r2, sl
10001c54:	465b      	mov	r3, fp
10001c56:	f000 fbf5 	bl	10002444 <__wrap___aeabi_dsub>
10001c5a:	e9dd 2304 	ldrd	r2, r3, [sp, #16]
10001c5e:	f000 fbdd 	bl	1000241c <__wrap___aeabi_dadd>
10001c62:	4606      	mov	r6, r0
10001c64:	460f      	mov	r7, r1
10001c66:	e9dd 0100 	ldrd	r0, r1, [sp]
10001c6a:	4622      	mov	r2, r4
10001c6c:	462b      	mov	r3, r5
10001c6e:	f000 fbfd 	bl	1000246c <__wrap___aeabi_dmul>
10001c72:	4632      	mov	r2, r6
10001c74:	463b      	mov	r3, r7
10001c76:	f000 fbd1 	bl	1000241c <__wrap___aeabi_dadd>
10001c7a:	f000 f9e1 	bl	10002040 <__wrap_exp2>
10001c7e:	f3c1 540a 	ubfx	r4, r1, #20, #11
10001c82:	f240 73ff 	movw	r3, #2047	@ 0x7ff
10001c86:	460d      	mov	r5, r1
10001c88:	4606      	mov	r6, r0
10001c8a:	2c00      	cmp	r4, #0
10001c8c:	f43f af43 	beq.w	10001b16 <dpow_1+0x7e>
10001c90:	429c      	cmp	r4, r3
10001c92:	f43f af40 	beq.w	10001b16 <dpow_1+0x7e>
10001c96:	e9dd 0102 	ldrd	r0, r1, [sp, #8]
10001c9a:	f000 fc8d 	bl	100025b8 <__wrap___aeabi_d2iz>
10001c9e:	fb08 f909 	mul.w	r9, r8, r9
10001ca2:	4659      	mov	r1, fp
10001ca4:	4481      	add	r9, r0
10001ca6:	4650      	mov	r0, sl
10001ca8:	f000 fc86 	bl	100025b8 <__wrap___aeabi_d2iz>
10001cac:	eb00 0309 	add.w	r3, r0, r9
10001cb0:	441c      	add	r4, r3
10001cb2:	2c00      	cmp	r4, #0
10001cb4:	dd0b      	ble.n	10001cce <dpow_1+0x236>
10001cb6:	f240 72fe 	movw	r2, #2046	@ 0x7fe
10001cba:	4294      	cmp	r4, r2
10001cbc:	dd0b      	ble.n	10001cd6 <dpow_1+0x23e>
10001cbe:	f005 4500 	and.w	r5, r5, #2147483648	@ 0x80000000
10001cc2:	f045 41ff 	orr.w	r1, r5, #2139095040	@ 0x7f800000
10001cc6:	2000      	movs	r0, #0
10001cc8:	f441 01e0 	orr.w	r1, r1, #7340032	@ 0x700000
10001ccc:	e723      	b.n	10001b16 <dpow_1+0x7e>
10001cce:	2000      	movs	r0, #0
10001cd0:	f005 4100 	and.w	r1, r5, #2147483648	@ 0x80000000
10001cd4:	e71f      	b.n	10001b16 <dpow_1+0x7e>
10001cd6:	2200      	movs	r2, #0
10001cd8:	eb05 5103 	add.w	r1, r5, r3, lsl #20
10001cdc:	1990      	adds	r0, r2, r6
10001cde:	e71a      	b.n	10001b16 <dpow_1+0x7e>
10001ce0:	fefa39ef 	.word	0xfefa39ef
10001ce4:	3fe62e42 	.word	0x3fe62e42
10001ce8:	3fe00000 	.word	0x3fe00000
10001cec:	3ff00000 	.word	0x3ff00000
10001cf0:	40b00000 	.word	0x40b00000
10001cf4:	7ff00000 	.word	0x7ff00000
10001cf8:	c0b00000 	.word	0xc0b00000

10001cfc <dpow_int2>:
10001cfc:	2a01      	cmp	r2, #1
10001cfe:	e92d 47f0 	stmdb	sp!, {r4, r5, r6, r7, r8, r9, sl, lr}
10001d02:	4606      	mov	r6, r0
10001d04:	460f      	mov	r7, r1
10001d06:	f000 8081 	beq.w	10001e0c <dpow_int2+0x110>
10001d0a:	eb02 75d2 	add.w	r5, r2, r2, lsr #31
10001d0e:	106d      	asrs	r5, r5, #1
10001d10:	2d01      	cmp	r5, #1
10001d12:	4614      	mov	r4, r2
10001d14:	d066      	beq.n	10001de4 <dpow_int2+0xe8>
10001d16:	4690      	mov	r8, r2
10001d18:	2a00      	cmp	r2, #0
10001d1a:	bfb8      	it	lt
10001d1c:	f102 0803 	addlt.w	r8, r2, #3
10001d20:	ea4f 08a8 	mov.w	r8, r8, asr #2
10001d24:	f1b8 0f01 	cmp.w	r8, #1
10001d28:	d079      	beq.n	10001e1e <dpow_int2+0x122>
10001d2a:	4691      	mov	r9, r2
10001d2c:	2a00      	cmp	r2, #0
10001d2e:	bfb8      	it	lt
10001d30:	f102 0907 	addlt.w	r9, r2, #7
10001d34:	ea4f 09e9 	mov.w	r9, r9, asr #3
10001d38:	f1b9 0f01 	cmp.w	r9, #1
10001d3c:	d06c      	beq.n	10001e18 <dpow_int2+0x11c>
10001d3e:	4692      	mov	sl, r2
10001d40:	2a00      	cmp	r2, #0
10001d42:	bfb8      	it	lt
10001d44:	f102 0a0f 	addlt.w	sl, r2, #15
10001d48:	ea4f 1a2a 	mov.w	sl, sl, asr #4
10001d4c:	f1ba 0f01 	cmp.w	sl, #1
10001d50:	d068      	beq.n	10001e24 <dpow_int2+0x128>
10001d52:	f1a2 0320 	sub.w	r3, r2, #32
10001d56:	2b1f      	cmp	r3, #31
10001d58:	d967      	bls.n	10001e2a <dpow_int2+0x12e>
10001d5a:	2200      	movs	r2, #0
10001d5c:	f7ff ffce 	bl	10001cfc <dpow_int2>
10001d60:	4602      	mov	r2, r0
10001d62:	460b      	mov	r3, r1
10001d64:	f000 fb82 	bl	1000246c <__wrap___aeabi_dmul>
10001d68:	4602      	mov	r2, r0
10001d6a:	460b      	mov	r3, r1
10001d6c:	4610      	mov	r0, r2
10001d6e:	4619      	mov	r1, r3
10001d70:	f000 fb7c 	bl	1000246c <__wrap___aeabi_dmul>
10001d74:	f01a 0f01 	tst.w	sl, #1
10001d78:	4602      	mov	r2, r0
10001d7a:	460b      	mov	r3, r1
10001d7c:	d005      	beq.n	10001d8a <dpow_int2+0x8e>
10001d7e:	4632      	mov	r2, r6
10001d80:	463b      	mov	r3, r7
10001d82:	f000 fb73 	bl	1000246c <__wrap___aeabi_dmul>
10001d86:	4602      	mov	r2, r0
10001d88:	460b      	mov	r3, r1
10001d8a:	4610      	mov	r0, r2
10001d8c:	4619      	mov	r1, r3
10001d8e:	f000 fb6d 	bl	1000246c <__wrap___aeabi_dmul>
10001d92:	f019 0f01 	tst.w	r9, #1
10001d96:	4602      	mov	r2, r0
10001d98:	460b      	mov	r3, r1
10001d9a:	d005      	beq.n	10001da8 <dpow_int2+0xac>
10001d9c:	4632      	mov	r2, r6
10001d9e:	463b      	mov	r3, r7
10001da0:	f000 fb64 	bl	1000246c <__wrap___aeabi_dmul>
10001da4:	4602      	mov	r2, r0
10001da6:	460b      	mov	r3, r1
10001da8:	4610      	mov	r0, r2
10001daa:	4619      	mov	r1, r3
10001dac:	f000 fb5e 	bl	1000246c <__wrap___aeabi_dmul>
10001db0:	f018 0f01 	tst.w	r8, #1
10001db4:	4602      	mov	r2, r0
10001db6:	460b      	mov	r3, r1
10001db8:	d005      	beq.n	10001dc6 <dpow_int2+0xca>
10001dba:	4632      	mov	r2, r6
10001dbc:	463b      	mov	r3, r7
10001dbe:	f000 fb55 	bl	1000246c <__wrap___aeabi_dmul>
10001dc2:	4602      	mov	r2, r0
10001dc4:	460b      	mov	r3, r1
10001dc6:	4610      	mov	r0, r2
10001dc8:	4619      	mov	r1, r3
10001dca:	f000 fb4f 	bl	1000246c <__wrap___aeabi_dmul>
10001dce:	07ed      	lsls	r5, r5, #31
10001dd0:	4602      	mov	r2, r0
10001dd2:	460b      	mov	r3, r1
10001dd4:	d508      	bpl.n	10001de8 <dpow_int2+0xec>
10001dd6:	4632      	mov	r2, r6
10001dd8:	463b      	mov	r3, r7
10001dda:	f000 fb47 	bl	1000246c <__wrap___aeabi_dmul>
10001dde:	4602      	mov	r2, r0
10001de0:	460b      	mov	r3, r1
10001de2:	e001      	b.n	10001de8 <dpow_int2+0xec>
10001de4:	4602      	mov	r2, r0
10001de6:	460b      	mov	r3, r1
10001de8:	4610      	mov	r0, r2
10001dea:	4619      	mov	r1, r3
10001dec:	f000 fb3e 	bl	1000246c <__wrap___aeabi_dmul>
10001df0:	07e4      	lsls	r4, r4, #31
10001df2:	4602      	mov	r2, r0
10001df4:	460b      	mov	r3, r1
10001df6:	d505      	bpl.n	10001e04 <dpow_int2+0x108>
10001df8:	4632      	mov	r2, r6
10001dfa:	463b      	mov	r3, r7
10001dfc:	f000 fb36 	bl	1000246c <__wrap___aeabi_dmul>
10001e00:	4602      	mov	r2, r0
10001e02:	460b      	mov	r3, r1
10001e04:	4610      	mov	r0, r2
10001e06:	4619      	mov	r1, r3
10001e08:	e8bd 87f0 	ldmia.w	sp!, {r4, r5, r6, r7, r8, r9, sl, pc}
10001e0c:	4602      	mov	r2, r0
10001e0e:	460b      	mov	r3, r1
10001e10:	4610      	mov	r0, r2
10001e12:	4619      	mov	r1, r3
10001e14:	e8bd 87f0 	ldmia.w	sp!, {r4, r5, r6, r7, r8, r9, sl, pc}
10001e18:	4602      	mov	r2, r0
10001e1a:	460b      	mov	r3, r1
10001e1c:	e7c4      	b.n	10001da8 <dpow_int2+0xac>
10001e1e:	4602      	mov	r2, r0
10001e20:	460b      	mov	r3, r1
10001e22:	e7d0      	b.n	10001dc6 <dpow_int2+0xca>
10001e24:	4602      	mov	r2, r0
10001e26:	460b      	mov	r3, r1
10001e28:	e7af      	b.n	10001d8a <dpow_int2+0x8e>
10001e2a:	4602      	mov	r2, r0
10001e2c:	460b      	mov	r3, r1
10001e2e:	e79d      	b.n	10001d6c <dpow_int2+0x70>

10001e30 <dpow_0>:
10001e30:	e92d 4ff0 	stmdb	sp!, {r4, r5, r6, r7, r8, r9, sl, fp, lr}
10001e34:	2900      	cmp	r1, #0
10001e36:	4692      	mov	sl, r2
10001e38:	469b      	mov	fp, r3
10001e3a:	4604      	mov	r4, r0
10001e3c:	460d      	mov	r5, r1
10001e3e:	b081      	sub	sp, #4
10001e40:	f280 8091 	bge.w	10001f66 <dpow_0+0x136>
10001e44:	f3c3 530a 	ubfx	r3, r3, #20, #11
10001e48:	f2a3 33ff 	subw	r3, r3, #1023	@ 0x3ff
10001e4c:	2b00      	cmp	r3, #0
10001e4e:	db28      	blt.n	10001ea2 <dpow_0+0x72>
10001e50:	f1d3 0334 	rsbs	r3, r3, #52	@ 0x34
10001e54:	d425      	bmi.n	10001ea2 <dpow_0+0x72>
10001e56:	f04f 32ff 	mov.w	r2, #4294967295	@ 0xffffffff
10001e5a:	f1a3 0820 	sub.w	r8, r3, #32
10001e5e:	fa02 f908 	lsl.w	r9, r2, r8
10001e62:	fa02 f103 	lsl.w	r1, r2, r3
10001e66:	f1c3 0e20 	rsb	lr, r3, #32
10001e6a:	ea41 0109 	orr.w	r1, r1, r9
10001e6e:	fa22 f90e 	lsr.w	r9, r2, lr
10001e72:	ea41 0109 	orr.w	r1, r1, r9
10001e76:	409a      	lsls	r2, r3
10001e78:	ea2a 0202 	bic.w	r2, sl, r2
10001e7c:	ea2b 0101 	bic.w	r1, fp, r1
10001e80:	430a      	orrs	r2, r1
10001e82:	d10e      	bne.n	10001ea2 <dpow_0+0x72>
10001e84:	2b34      	cmp	r3, #52	@ 0x34
10001e86:	d03b      	beq.n	10001f00 <dpow_0+0xd0>
10001e88:	fa2a fc03 	lsr.w	ip, sl, r3
10001e8c:	fa0b fe0e 	lsl.w	lr, fp, lr
10001e90:	ea4c 0c0e 	orr.w	ip, ip, lr
10001e94:	fa2b f008 	lsr.w	r0, fp, r8
10001e98:	ea4c 0c00 	orr.w	ip, ip, r0
10001e9c:	f01c 0f01 	tst.w	ip, #1
10001ea0:	d12e      	bne.n	10001f00 <dpow_0+0xd0>
10001ea2:	f105 4300 	add.w	r3, r5, #2147483648	@ 0x80000000
10001ea6:	461d      	mov	r5, r3
10001ea8:	46a0      	mov	r8, r4
10001eaa:	4699      	mov	r9, r3
10001eac:	4650      	mov	r0, sl
10001eae:	4659      	mov	r1, fp
10001eb0:	f000 fb82 	bl	100025b8 <__wrap___aeabi_d2iz>
10001eb4:	0d2b      	lsrs	r3, r5, #20
10001eb6:	4606      	mov	r6, r0
10001eb8:	4602      	mov	r2, r0
10001eba:	d02e      	beq.n	10001f1a <dpow_0+0xea>
10001ebc:	f240 70ff 	movw	r0, #2047	@ 0x7ff
10001ec0:	4283      	cmp	r3, r0
10001ec2:	d02a      	beq.n	10001f1a <dpow_0+0xea>
10001ec4:	f3c5 0113 	ubfx	r1, r5, #0, #20
10001ec8:	4321      	orrs	r1, r4
10001eca:	d126      	bne.n	10001f1a <dpow_0+0xea>
10001ecc:	4a29      	ldr	r2, [pc, #164]	@ (10001f74 <dpow_0+0x144>)
10001ece:	f2a3 33ff 	subw	r3, r3, #1023	@ 0x3ff
10001ed2:	42b2      	cmp	r2, r6
10001ed4:	bfb8      	it	lt
10001ed6:	4632      	movlt	r2, r6
10001ed8:	4282      	cmp	r2, r0
10001eda:	bfa8      	it	ge
10001edc:	4602      	movge	r2, r0
10001ede:	fb02 f103 	mul.w	r1, r2, r3
10001ee2:	f201 33ff 	addw	r3, r1, #1023	@ 0x3ff
10001ee6:	2b00      	cmp	r3, #0
10001ee8:	dd3a      	ble.n	10001f60 <dpow_0+0x130>
10001eea:	f240 72fe 	movw	r2, #2046	@ 0x7fe
10001eee:	4293      	cmp	r3, r2
10001ef0:	dc3c      	bgt.n	10001f6c <dpow_0+0x13c>
10001ef2:	2200      	movs	r2, #0
10001ef4:	4820      	ldr	r0, [pc, #128]	@ (10001f78 <dpow_0+0x148>)
10001ef6:	eb00 5301 	add.w	r3, r0, r1, lsl #20
10001efa:	4619      	mov	r1, r3
10001efc:	4610      	mov	r0, r2
10001efe:	e009      	b.n	10001f14 <dpow_0+0xe4>
10001f00:	465b      	mov	r3, fp
10001f02:	4652      	mov	r2, sl
10001f04:	4620      	mov	r0, r4
10001f06:	f105 4100 	add.w	r1, r5, #2147483648	@ 0x80000000
10001f0a:	f7ff ff91 	bl	10001e30 <dpow_0>
10001f0e:	f101 4300 	add.w	r3, r1, #2147483648	@ 0x80000000
10001f12:	4619      	mov	r1, r3
10001f14:	b001      	add	sp, #4
10001f16:	e8bd 8ff0 	ldmia.w	sp!, {r4, r5, r6, r7, r8, r9, sl, fp, pc}
10001f1a:	b1ae      	cbz	r6, 10001f48 <dpow_0+0x118>
10001f1c:	f106 0320 	add.w	r3, r6, #32
10001f20:	2b40      	cmp	r3, #64	@ 0x40
10001f22:	d814      	bhi.n	10001f4e <dpow_0+0x11e>
10001f24:	2e00      	cmp	r6, #0
10001f26:	da08      	bge.n	10001f3a <dpow_0+0x10a>
10001f28:	4642      	mov	r2, r8
10001f2a:	464b      	mov	r3, r9
10001f2c:	2000      	movs	r0, #0
10001f2e:	4912      	ldr	r1, [pc, #72]	@ (10001f78 <dpow_0+0x148>)
10001f30:	f000 fac2 	bl	100024b8 <__wrap___aeabi_ddiv>
10001f34:	4680      	mov	r8, r0
10001f36:	4689      	mov	r9, r1
10001f38:	4272      	negs	r2, r6
10001f3a:	4640      	mov	r0, r8
10001f3c:	4649      	mov	r1, r9
10001f3e:	b001      	add	sp, #4
10001f40:	e8bd 4ff0 	ldmia.w	sp!, {r4, r5, r6, r7, r8, r9, sl, fp, lr}
10001f44:	f7ff beda 	b.w	10001cfc <dpow_int2>
10001f48:	2000      	movs	r0, #0
10001f4a:	490b      	ldr	r1, [pc, #44]	@ (10001f78 <dpow_0+0x148>)
10001f4c:	e7e2      	b.n	10001f14 <dpow_0+0xe4>
10001f4e:	4652      	mov	r2, sl
10001f50:	465b      	mov	r3, fp
10001f52:	4640      	mov	r0, r8
10001f54:	4649      	mov	r1, r9
10001f56:	b001      	add	sp, #4
10001f58:	e8bd 4ff0 	ldmia.w	sp!, {r4, r5, r6, r7, r8, r9, sl, fp, lr}
10001f5c:	f7ff bd9c 	b.w	10001a98 <dpow_1>
10001f60:	2000      	movs	r0, #0
10001f62:	2100      	movs	r1, #0
10001f64:	e7d6      	b.n	10001f14 <dpow_0+0xe4>
10001f66:	4680      	mov	r8, r0
10001f68:	4689      	mov	r9, r1
10001f6a:	e79f      	b.n	10001eac <dpow_0+0x7c>
10001f6c:	2000      	movs	r0, #0
10001f6e:	4903      	ldr	r1, [pc, #12]	@ (10001f7c <dpow_0+0x14c>)
10001f70:	e7d0      	b.n	10001f14 <dpow_0+0xe4>
10001f72:	bf00      	nop
10001f74:	fffff800 	.word	0xfffff800
10001f78:	3ff00000 	.word	0x3ff00000
10001f7c:	7ff00000 	.word	0x7ff00000

10001f80 <__wrap_ldexp>:
10001f80:	f3c1 530a 	ubfx	r3, r1, #20, #11
10001f84:	b1c3      	cbz	r3, 10001fb8 <__wrap_ldexp+0x38>
10001f86:	b510      	push	{r4, lr}
10001f88:	f240 7eff 	movw	lr, #2047	@ 0x7ff
10001f8c:	4573      	cmp	r3, lr
10001f8e:	d00e      	beq.n	10001fae <__wrap_ldexp+0x2e>
10001f90:	4413      	add	r3, r2
10001f92:	2b00      	cmp	r3, #0
10001f94:	468c      	mov	ip, r1
10001f96:	dd0b      	ble.n	10001fb0 <__wrap_ldexp+0x30>
10001f98:	f240 71fe 	movw	r1, #2046	@ 0x7fe
10001f9c:	428b      	cmp	r3, r1
10001f9e:	dd0c      	ble.n	10001fba <__wrap_ldexp+0x3a>
10001fa0:	2000      	movs	r0, #0
10001fa2:	f00c 4c00 	and.w	ip, ip, #2147483648	@ 0x80000000
10001fa6:	f04c 41ff 	orr.w	r1, ip, #2139095040	@ 0x7f800000
10001faa:	f441 01e0 	orr.w	r1, r1, #7340032	@ 0x700000
10001fae:	bd10      	pop	{r4, pc}
10001fb0:	2000      	movs	r0, #0
10001fb2:	f001 4100 	and.w	r1, r1, #2147483648	@ 0x80000000
10001fb6:	bd10      	pop	{r4, pc}
10001fb8:	4770      	bx	lr
10001fba:	2300      	movs	r3, #0
10001fbc:	eb0c 5102 	add.w	r1, ip, r2, lsl #20
10001fc0:	1818      	adds	r0, r3, r0
10001fc2:	bd10      	pop	{r4, pc}

10001fc4 <__wrap_round>:
10001fc4:	f3c1 530a 	ubfx	r3, r1, #20, #11
10001fc8:	f2a3 33ff 	subw	r3, r3, #1023	@ 0x3ff
10001fcc:	1c5a      	adds	r2, r3, #1
10001fce:	468c      	mov	ip, r1
10001fd0:	db2a      	blt.n	10002028 <__wrap_round+0x64>
10001fd2:	d02d      	beq.n	10002030 <__wrap_round+0x6c>
10001fd4:	2b34      	cmp	r3, #52	@ 0x34
10001fd6:	da26      	bge.n	10002026 <__wrap_round+0x62>
10001fd8:	2201      	movs	r2, #1
10001fda:	b570      	push	{r4, r5, r6, lr}
10001fdc:	2102      	movs	r1, #2
10001fde:	4605      	mov	r5, r0
10001fe0:	f1c3 0433 	rsb	r4, r3, #51	@ 0x33
10001fe4:	f1c3 0e13 	rsb	lr, r3, #19
10001fe8:	3b13      	subs	r3, #19
10001fea:	fa22 f303 	lsr.w	r3, r2, r3
10001fee:	fa02 fe0e 	lsl.w	lr, r2, lr
10001ff2:	ea4e 0e03 	orr.w	lr, lr, r3
10001ff6:	f1a4 0020 	sub.w	r0, r4, #32
10001ffa:	fa02 f304 	lsl.w	r3, r2, r4
10001ffe:	f1c4 0620 	rsb	r6, r4, #32
10002002:	195b      	adds	r3, r3, r5
10002004:	fa21 f606 	lsr.w	r6, r1, r6
10002008:	fa01 f000 	lsl.w	r0, r1, r0
1000200c:	fa01 f104 	lsl.w	r1, r1, r4
10002010:	eb4c 0c0e 	adc.w	ip, ip, lr
10002014:	4330      	orrs	r0, r6
10002016:	424a      	negs	r2, r1
10002018:	eb60 0e40 	sbc.w	lr, r0, r0, lsl #1
1000201c:	ea0e 010c 	and.w	r1, lr, ip
10002020:	ea02 0003 	and.w	r0, r2, r3
10002024:	bd70      	pop	{r4, r5, r6, pc}
10002026:	4770      	bx	lr
10002028:	2000      	movs	r0, #0
1000202a:	f001 4100 	and.w	r1, r1, #2147483648	@ 0x80000000
1000202e:	4770      	bx	lr
10002030:	f001 4c00 	and.w	ip, r1, #2147483648	@ 0x80000000
10002034:	f04c 517f 	orr.w	r1, ip, #1069547520	@ 0x3fc00000
10002038:	2000      	movs	r0, #0
1000203a:	f441 1140 	orr.w	r1, r1, #3145728	@ 0x300000
1000203e:	4770      	bx	lr

10002040 <__wrap_exp2>:
10002040:	b5f8      	push	{r3, r4, r5, r6, r7, lr}
10002042:	f640 73ff 	movw	r3, #4095	@ 0xfff
10002046:	ebb3 5f11 	cmp.w	r3, r1, lsr #20
1000204a:	d040      	beq.n	100020ce <__wrap_exp2+0x8e>
1000204c:	2200      	movs	r2, #0
1000204e:	4b28      	ldr	r3, [pc, #160]	@ (100020f0 <__wrap_exp2+0xb0>)
10002050:	4604      	mov	r4, r0
10002052:	460d      	mov	r5, r1
10002054:	f000 fb0c 	bl	10002670 <__wrap___aeabi_dcmple>
10002058:	bbc8      	cbnz	r0, 100020ce <__wrap_exp2+0x8e>
1000205a:	2200      	movs	r2, #0
1000205c:	4620      	mov	r0, r4
1000205e:	4629      	mov	r1, r5
10002060:	4b24      	ldr	r3, [pc, #144]	@ (100020f4 <__wrap_exp2+0xb4>)
10002062:	f000 fb19 	bl	10002698 <__wrap___aeabi_dcmpge>
10002066:	4606      	mov	r6, r0
10002068:	b110      	cbz	r0, 10002070 <__wrap_exp2+0x30>
1000206a:	2000      	movs	r0, #0
1000206c:	4922      	ldr	r1, [pc, #136]	@ (100020f8 <__wrap_exp2+0xb8>)
1000206e:	bdf8      	pop	{r3, r4, r5, r6, r7, pc}
10002070:	4620      	mov	r0, r4
10002072:	4629      	mov	r1, r5
10002074:	f7ff ffa6 	bl	10001fc4 <__wrap_round>
10002078:	f000 fa9e 	bl	100025b8 <__wrap___aeabi_d2iz>
1000207c:	4607      	mov	r7, r0
1000207e:	f000 fa77 	bl	10002570 <__wrap___aeabi_i2d>
10002082:	4602      	mov	r2, r0
10002084:	460b      	mov	r3, r1
10002086:	4620      	mov	r0, r4
10002088:	4629      	mov	r1, r5
1000208a:	f000 f9db 	bl	10002444 <__wrap___aeabi_dsub>
1000208e:	a316      	add	r3, pc, #88	@ (adr r3, 100020e8 <__wrap_exp2+0xa8>)
10002090:	e9d3 2300 	ldrd	r2, r3, [r3]
10002094:	f000 f9ea 	bl	1000246c <__wrap___aeabi_dmul>
10002098:	f000 fc9f 	bl	100029da <__wrap_exp>
1000209c:	f3c1 530a 	ubfx	r3, r1, #20, #11
100020a0:	f240 74ff 	movw	r4, #2047	@ 0x7ff
100020a4:	4605      	mov	r5, r0
100020a6:	460a      	mov	r2, r1
100020a8:	2b00      	cmp	r3, #0
100020aa:	d0e0      	beq.n	1000206e <__wrap_exp2+0x2e>
100020ac:	42a3      	cmp	r3, r4
100020ae:	d0de      	beq.n	1000206e <__wrap_exp2+0x2e>
100020b0:	443b      	add	r3, r7
100020b2:	2b00      	cmp	r3, #0
100020b4:	dd0e      	ble.n	100020d4 <__wrap_exp2+0x94>
100020b6:	f240 71fe 	movw	r1, #2046	@ 0x7fe
100020ba:	428b      	cmp	r3, r1
100020bc:	dd0e      	ble.n	100020dc <__wrap_exp2+0x9c>
100020be:	f002 4200 	and.w	r2, r2, #2147483648	@ 0x80000000
100020c2:	f042 41ff 	orr.w	r1, r2, #2139095040	@ 0x7f800000
100020c6:	4630      	mov	r0, r6
100020c8:	f441 01e0 	orr.w	r1, r1, #7340032	@ 0x700000
100020cc:	bdf8      	pop	{r3, r4, r5, r6, r7, pc}
100020ce:	2000      	movs	r0, #0
100020d0:	2100      	movs	r1, #0
100020d2:	bdf8      	pop	{r3, r4, r5, r6, r7, pc}
100020d4:	4630      	mov	r0, r6
100020d6:	f001 4100 	and.w	r1, r1, #2147483648	@ 0x80000000
100020da:	bdf8      	pop	{r3, r4, r5, r6, r7, pc}
100020dc:	1970      	adds	r0, r6, r5
100020de:	eb02 5107 	add.w	r1, r2, r7, lsl #20
100020e2:	bdf8      	pop	{r3, r4, r5, r6, r7, pc}
100020e4:	f3af 8000 	nop.w
100020e8:	fefa39ef 	.word	0xfefa39ef
100020ec:	3fe62e42 	.word	0x3fe62e42
100020f0:	c0b00000 	.word	0xc0b00000
100020f4:	40b00000 	.word	0x40b00000
100020f8:	7ff00000 	.word	0x7ff00000

100020fc <__wrap_pow>:
100020fc:	e92d 4ff0 	stmdb	sp!, {r4, r5, r6, r7, r8, r9, sl, fp, lr}
10002100:	4616      	mov	r6, r2
10002102:	461f      	mov	r7, r3
10002104:	b083      	sub	sp, #12
10002106:	2200      	movs	r2, #0
10002108:	4baf      	ldr	r3, [pc, #700]	@ (100023c8 <__wrap_pow+0x2cc>)
1000210a:	4604      	mov	r4, r0
1000210c:	460d      	mov	r5, r1
1000210e:	f000 fa89 	bl	10002624 <__wrap___aeabi_dcmpeq>
10002112:	2800      	cmp	r0, #0
10002114:	f040 8081 	bne.w	1000221a <__wrap_pow+0x11e>
10002118:	0d3b      	lsrs	r3, r7, #20
1000211a:	f3c7 590a 	ubfx	r9, r7, #20, #11
1000211e:	46b3      	mov	fp, r6
10002120:	46b8      	mov	r8, r7
10002122:	f240 7aff 	movw	sl, #2047	@ 0x7ff
10002126:	9301      	str	r3, [sp, #4]
10002128:	f1b9 0f00 	cmp.w	r9, #0
1000212c:	d041      	beq.n	100021b2 <__wrap_pow+0xb6>
1000212e:	4620      	mov	r0, r4
10002130:	4629      	mov	r1, r5
10002132:	2200      	movs	r2, #0
10002134:	4ba5      	ldr	r3, [pc, #660]	@ (100023cc <__wrap_pow+0x2d0>)
10002136:	f000 fa75 	bl	10002624 <__wrap___aeabi_dcmpeq>
1000213a:	2800      	cmp	r0, #0
1000213c:	d03e      	beq.n	100021bc <__wrap_pow+0xc0>
1000213e:	45d1      	cmp	r9, sl
10002140:	d037      	beq.n	100021b2 <__wrap_pow+0xb6>
10002142:	0d3b      	lsrs	r3, r7, #20
10002144:	4553      	cmp	r3, sl
10002146:	f000 8093 	beq.w	10002270 <__wrap_pow+0x174>
1000214a:	f640 73ff 	movw	r3, #4095	@ 0xfff
1000214e:	ea4f 5218 	mov.w	r2, r8, lsr #20
10002152:	429a      	cmp	r2, r3
10002154:	f000 8091 	beq.w	1000227a <__wrap_pow+0x17e>
10002158:	f2a9 39ff 	subw	r9, r9, #1023	@ 0x3ff
1000215c:	f1b9 0f00 	cmp.w	r9, #0
10002160:	f2c0 8086 	blt.w	10002270 <__wrap_pow+0x174>
10002164:	4a99      	ldr	r2, [pc, #612]	@ (100023cc <__wrap_pow+0x2d0>)
10002166:	f1c9 0934 	rsb	r9, r9, #52	@ 0x34
1000216a:	f1b9 0f00 	cmp.w	r9, #0
1000216e:	dd17      	ble.n	100021a0 <__wrap_pow+0xa4>
10002170:	f04f 33ff 	mov.w	r3, #4294967295	@ 0xffffffff
10002174:	f1a9 0c20 	sub.w	ip, r9, #32
10002178:	fa03 fc0c 	lsl.w	ip, r3, ip
1000217c:	fa03 f109 	lsl.w	r1, r3, r9
10002180:	f1c9 0020 	rsb	r0, r9, #32
10002184:	fa23 f000 	lsr.w	r0, r3, r0
10002188:	ea41 010c 	orr.w	r1, r1, ip
1000218c:	4301      	orrs	r1, r0
1000218e:	fa03 f309 	lsl.w	r3, r3, r9
10002192:	ea2b 0303 	bic.w	r3, fp, r3
10002196:	ea28 0101 	bic.w	r1, r8, r1
1000219a:	430b      	orrs	r3, r1
1000219c:	f040 80f1 	bne.w	10002382 <__wrap_pow+0x286>
100021a0:	4632      	mov	r2, r6
100021a2:	463b      	mov	r3, r7
100021a4:	4620      	mov	r0, r4
100021a6:	4629      	mov	r1, r5
100021a8:	b003      	add	sp, #12
100021aa:	e8bd 4ff0 	ldmia.w	sp!, {r4, r5, r6, r7, r8, r9, sl, fp, lr}
100021ae:	f7ff be3f 	b.w	10001e30 <dpow_0>
100021b2:	2000      	movs	r0, #0
100021b4:	4984      	ldr	r1, [pc, #528]	@ (100023c8 <__wrap_pow+0x2cc>)
100021b6:	b003      	add	sp, #12
100021b8:	e8bd 8ff0 	ldmia.w	sp!, {r4, r5, r6, r7, r8, r9, sl, fp, pc}
100021bc:	f3c5 530a 	ubfx	r3, r5, #20, #11
100021c0:	462a      	mov	r2, r5
100021c2:	0d29      	lsrs	r1, r5, #20
100021c4:	bb73      	cbnz	r3, 10002224 <__wrap_pow+0x128>
100021c6:	2f00      	cmp	r7, #0
100021c8:	f2a9 33ff 	subw	r3, r9, #1023	@ 0x3ff
100021cc:	db34      	blt.n	10002238 <__wrap_pow+0x13c>
100021ce:	2b00      	cmp	r3, #0
100021d0:	db53      	blt.n	1000227a <__wrap_pow+0x17e>
100021d2:	f1d3 0334 	rsbs	r3, r3, #52	@ 0x34
100021d6:	d450      	bmi.n	1000227a <__wrap_pow+0x17e>
100021d8:	f04f 32ff 	mov.w	r2, #4294967295	@ 0xffffffff
100021dc:	f1a3 0020 	sub.w	r0, r3, #32
100021e0:	fa02 f700 	lsl.w	r7, r2, r0
100021e4:	fa02 f103 	lsl.w	r1, r2, r3
100021e8:	f1c3 0620 	rsb	r6, r3, #32
100021ec:	4339      	orrs	r1, r7
100021ee:	fa22 f706 	lsr.w	r7, r2, r6
100021f2:	4339      	orrs	r1, r7
100021f4:	409a      	lsls	r2, r3
100021f6:	ea2b 0202 	bic.w	r2, fp, r2
100021fa:	ea28 0101 	bic.w	r1, r8, r1
100021fe:	430a      	orrs	r2, r1
10002200:	d13b      	bne.n	1000227a <__wrap_pow+0x17e>
10002202:	2b34      	cmp	r3, #52	@ 0x34
10002204:	d009      	beq.n	1000221a <__wrap_pow+0x11e>
10002206:	fa2b f303 	lsr.w	r3, fp, r3
1000220a:	fa08 f606 	lsl.w	r6, r8, r6
1000220e:	fa28 f000 	lsr.w	r0, r8, r0
10002212:	4333      	orrs	r3, r6
10002214:	4303      	orrs	r3, r0
10002216:	07d8      	lsls	r0, r3, #31
10002218:	d52f      	bpl.n	1000227a <__wrap_pow+0x17e>
1000221a:	4620      	mov	r0, r4
1000221c:	4629      	mov	r1, r5
1000221e:	b003      	add	sp, #12
10002220:	e8bd 8ff0 	ldmia.w	sp!, {r4, r5, r6, r7, r8, r9, sl, fp, pc}
10002224:	4551      	cmp	r1, sl
10002226:	d140      	bne.n	100022aa <__wrap_pow+0x1ae>
10002228:	2f00      	cmp	r7, #0
1000222a:	f04f 0000 	mov.w	r0, #0
1000222e:	da20      	bge.n	10002272 <__wrap_pow+0x176>
10002230:	2100      	movs	r1, #0
10002232:	b003      	add	sp, #12
10002234:	e8bd 8ff0 	ldmia.w	sp!, {r4, r5, r6, r7, r8, r9, sl, fp, pc}
10002238:	f240 31fe 	movw	r1, #1022	@ 0x3fe
1000223c:	4589      	cmp	r9, r1
1000223e:	dd17      	ble.n	10002270 <__wrap_pow+0x174>
10002240:	f1d3 0334 	rsbs	r3, r3, #52	@ 0x34
10002244:	d414      	bmi.n	10002270 <__wrap_pow+0x174>
10002246:	f04f 31ff 	mov.w	r1, #4294967295	@ 0xffffffff
1000224a:	f1a3 0420 	sub.w	r4, r3, #32
1000224e:	fa01 f604 	lsl.w	r6, r1, r4
10002252:	fa01 f003 	lsl.w	r0, r1, r3
10002256:	f1c3 0520 	rsb	r5, r3, #32
1000225a:	4330      	orrs	r0, r6
1000225c:	fa21 f605 	lsr.w	r6, r1, r5
10002260:	4330      	orrs	r0, r6
10002262:	4099      	lsls	r1, r3
10002264:	ea2b 0101 	bic.w	r1, fp, r1
10002268:	ea27 0000 	bic.w	r0, r7, r0
1000226c:	4301      	orrs	r1, r0
1000226e:	d007      	beq.n	10002280 <__wrap_pow+0x184>
10002270:	2000      	movs	r0, #0
10002272:	4957      	ldr	r1, [pc, #348]	@ (100023d0 <__wrap_pow+0x2d4>)
10002274:	b003      	add	sp, #12
10002276:	e8bd 8ff0 	ldmia.w	sp!, {r4, r5, r6, r7, r8, r9, sl, fp, pc}
1000227a:	2000      	movs	r0, #0
1000227c:	2100      	movs	r1, #0
1000227e:	e7d8      	b.n	10002232 <__wrap_pow+0x136>
10002280:	2b34      	cmp	r3, #52	@ 0x34
10002282:	f04f 0000 	mov.w	r0, #0
10002286:	d009      	beq.n	1000229c <__wrap_pow+0x1a0>
10002288:	fa2b f303 	lsr.w	r3, fp, r3
1000228c:	fa07 f505 	lsl.w	r5, r7, r5
10002290:	432b      	orrs	r3, r5
10002292:	fa27 f404 	lsr.w	r4, r7, r4
10002296:	4323      	orrs	r3, r4
10002298:	07d9      	lsls	r1, r3, #31
1000229a:	d5ea      	bpl.n	10002272 <__wrap_pow+0x176>
1000229c:	f002 4200 	and.w	r2, r2, #2147483648	@ 0x80000000
100022a0:	f042 41ff 	orr.w	r1, r2, #2139095040	@ 0x7f800000
100022a4:	f441 01e0 	orr.w	r1, r1, #7340032	@ 0x700000
100022a8:	e785      	b.n	100021b6 <__wrap_pow+0xba>
100022aa:	f640 70ff 	movw	r0, #4095	@ 0xfff
100022ae:	4281      	cmp	r1, r0
100022b0:	d15b      	bne.n	1000236a <__wrap_pow+0x26e>
100022b2:	2f00      	cmp	r7, #0
100022b4:	f2a9 33ff 	subw	r3, r9, #1023	@ 0x3ff
100022b8:	db29      	blt.n	1000230e <__wrap_pow+0x212>
100022ba:	2b00      	cmp	r3, #0
100022bc:	dbd8      	blt.n	10002270 <__wrap_pow+0x174>
100022be:	f1d3 0334 	rsbs	r3, r3, #52	@ 0x34
100022c2:	d4d5      	bmi.n	10002270 <__wrap_pow+0x174>
100022c4:	f04f 32ff 	mov.w	r2, #4294967295	@ 0xffffffff
100022c8:	f1a3 0020 	sub.w	r0, r3, #32
100022cc:	fa02 f500 	lsl.w	r5, r2, r0
100022d0:	fa02 f103 	lsl.w	r1, r2, r3
100022d4:	f1c3 0420 	rsb	r4, r3, #32
100022d8:	4329      	orrs	r1, r5
100022da:	fa22 f504 	lsr.w	r5, r2, r4
100022de:	4329      	orrs	r1, r5
100022e0:	409a      	lsls	r2, r3
100022e2:	ea26 0202 	bic.w	r2, r6, r2
100022e6:	ea27 0101 	bic.w	r1, r7, r1
100022ea:	430a      	orrs	r2, r1
100022ec:	d1c0      	bne.n	10002270 <__wrap_pow+0x174>
100022ee:	2b34      	cmp	r3, #52	@ 0x34
100022f0:	d053      	beq.n	1000239a <__wrap_pow+0x29e>
100022f2:	fa26 f303 	lsr.w	r3, r6, r3
100022f6:	fa07 f404 	lsl.w	r4, r7, r4
100022fa:	fa27 f000 	lsr.w	r0, r7, r0
100022fe:	4323      	orrs	r3, r4
10002300:	4303      	orrs	r3, r0
10002302:	07da      	lsls	r2, r3, #31
10002304:	f04f 0000 	mov.w	r0, #0
10002308:	d5b3      	bpl.n	10002272 <__wrap_pow+0x176>
1000230a:	4932      	ldr	r1, [pc, #200]	@ (100023d4 <__wrap_pow+0x2d8>)
1000230c:	e753      	b.n	100021b6 <__wrap_pow+0xba>
1000230e:	f240 32fe 	movw	r2, #1022	@ 0x3fe
10002312:	4591      	cmp	r9, r2
10002314:	ddb1      	ble.n	1000227a <__wrap_pow+0x17e>
10002316:	f1d3 0334 	rsbs	r3, r3, #52	@ 0x34
1000231a:	d4ae      	bmi.n	1000227a <__wrap_pow+0x17e>
1000231c:	f04f 32ff 	mov.w	r2, #4294967295	@ 0xffffffff
10002320:	f1a3 0020 	sub.w	r0, r3, #32
10002324:	fa02 f500 	lsl.w	r5, r2, r0
10002328:	fa02 f103 	lsl.w	r1, r2, r3
1000232c:	f1c3 0420 	rsb	r4, r3, #32
10002330:	4329      	orrs	r1, r5
10002332:	fa22 f504 	lsr.w	r5, r2, r4
10002336:	4329      	orrs	r1, r5
10002338:	409a      	lsls	r2, r3
1000233a:	ea26 0202 	bic.w	r2, r6, r2
1000233e:	ea27 0101 	bic.w	r1, r7, r1
10002342:	430a      	orrs	r2, r1
10002344:	d199      	bne.n	1000227a <__wrap_pow+0x17e>
10002346:	2b34      	cmp	r3, #52	@ 0x34
10002348:	d02a      	beq.n	100023a0 <__wrap_pow+0x2a4>
1000234a:	fa26 f303 	lsr.w	r3, r6, r3
1000234e:	fa07 f404 	lsl.w	r4, r7, r4
10002352:	fa27 f000 	lsr.w	r0, r7, r0
10002356:	4323      	orrs	r3, r4
10002358:	4303      	orrs	r3, r0
1000235a:	07db      	lsls	r3, r3, #31
1000235c:	f04f 0000 	mov.w	r0, #0
10002360:	f57f af66 	bpl.w	10002230 <__wrap_pow+0x134>
10002364:	f04f 4100 	mov.w	r1, #2147483648	@ 0x80000000
10002368:	e725      	b.n	100021b6 <__wrap_pow+0xba>
1000236a:	0d39      	lsrs	r1, r7, #20
1000236c:	4551      	cmp	r1, sl
1000236e:	d01b      	beq.n	100023a8 <__wrap_pow+0x2ac>
10002370:	0d39      	lsrs	r1, r7, #20
10002372:	4281      	cmp	r1, r0
10002374:	d020      	beq.n	100023b8 <__wrap_pow+0x2bc>
10002376:	f2a9 39ff 	subw	r9, r9, #1023	@ 0x3ff
1000237a:	f1b9 0f00 	cmp.w	r9, #0
1000237e:	f6bf aef2 	bge.w	10002166 <__wrap_pow+0x6a>
10002382:	2a00      	cmp	r2, #0
10002384:	f6ff af74 	blt.w	10002270 <__wrap_pow+0x174>
10002388:	4632      	mov	r2, r6
1000238a:	463b      	mov	r3, r7
1000238c:	4620      	mov	r0, r4
1000238e:	4629      	mov	r1, r5
10002390:	b003      	add	sp, #12
10002392:	e8bd 4ff0 	ldmia.w	sp!, {r4, r5, r6, r7, r8, r9, sl, fp, lr}
10002396:	f7ff bb7f 	b.w	10001a98 <dpow_1>
1000239a:	2000      	movs	r0, #0
1000239c:	490d      	ldr	r1, [pc, #52]	@ (100023d4 <__wrap_pow+0x2d8>)
1000239e:	e70a      	b.n	100021b6 <__wrap_pow+0xba>
100023a0:	2000      	movs	r0, #0
100023a2:	f04f 4100 	mov.w	r1, #2147483648	@ 0x80000000
100023a6:	e706      	b.n	100021b6 <__wrap_pow+0xba>
100023a8:	f240 32fe 	movw	r2, #1022	@ 0x3fe
100023ac:	4293      	cmp	r3, r2
100023ae:	f04f 0000 	mov.w	r0, #0
100023b2:	f77f af3d 	ble.w	10002230 <__wrap_pow+0x134>
100023b6:	e75c      	b.n	10002272 <__wrap_pow+0x176>
100023b8:	f240 32fe 	movw	r2, #1022	@ 0x3fe
100023bc:	4293      	cmp	r3, r2
100023be:	f04f 0000 	mov.w	r0, #0
100023c2:	f77f af56 	ble.w	10002272 <__wrap_pow+0x176>
100023c6:	e733      	b.n	10002230 <__wrap_pow+0x134>
100023c8:	3ff00000 	.word	0x3ff00000
100023cc:	bff00000 	.word	0xbff00000
100023d0:	7ff00000 	.word	0x7ff00000
100023d4:	fff00000 	.word	0xfff00000

100023d8 <generic_save_state>:
100023d8:	b086      	sub	sp, #24
100023da:	b403      	push	{r0, r1}
100023dc:	fc51 0408 	dcp_pxmd r0, r1
100023e0:	e9cd 0102 	strd	r0, r1, [sp, #8]
100023e4:	fc51 0409 	dcp_pymd r0, r1
100023e8:	e9cd 0104 	strd	r0, r1, [sp, #16]
100023ec:	ec51 040a 	dcp_refd r0, r1
100023f0:	e9cd 0106 	strd	r0, r1, [sp, #24]
100023f4:	bc03      	pop	{r0, r1}
100023f6:	47f0      	blx	lr

100023f8 <generic_restore_state>:
100023f8:	e8bd 5000 	ldmia.w	sp!, {ip, lr}
100023fc:	ec4e c400 	dcp_wxmd ip, lr
10002400:	e8bd 5000 	ldmia.w	sp!, {ip, lr}
10002404:	ec4e c401 	dcp_wymd ip, lr
10002408:	e8bd 5000 	ldmia.w	sp!, {ip, lr}
1000240c:	ec4e c402 	dcp_wefd ip, lr
10002410:	bd00      	pop	{pc}
10002412:	0000      	movs	r0, r0
10002414:	b500      	push	{lr}
10002416:	f7ff ffdf 	bl	100023d8 <generic_save_state>
1000241a:	e002      	b.n	10002422 <__wrap___aeabi_dadd+0x6>

1000241c <__wrap___aeabi_dadd>:
1000241c:	fe10 f430 	dcp_pcmp APSR_nzcv
10002420:	d4f8      	bmi.n	10002414 <generic_restore_state+0x1c>
10002422:	ec41 0410 	dcp_wxup r0, r1
10002426:	ec43 2411 	dcp_wyup r2, r3
1000242a:	ee00 0401 			dcp_add0
1000242e:	ee10 0401 			dcp_add1
10002432:	ee80 0420 			dcp_nrdd
10002436:	ec51 0410 	dcp_rdda r0, r1
1000243a:	4770      	bx	lr
1000243c:	b500      	push	{lr}
1000243e:	f7ff ffcb 	bl	100023d8 <generic_save_state>
10002442:	e002      	b.n	1000244a <__wrap___aeabi_dsub+0x6>

10002444 <__wrap___aeabi_dsub>:
10002444:	fe10 f430 	dcp_pcmp APSR_nzcv
10002448:	d4f8      	bmi.n	1000243c <__wrap___aeabi_dadd+0x20>
1000244a:	ec41 0410 	dcp_wxup r0, r1
1000244e:	ec43 2411 	dcp_wyup r2, r3
10002452:	ee00 0401 			dcp_add0
10002456:	ee10 0421 			dcp_sub1
1000245a:	ee80 0420 			dcp_nrdd
1000245e:	ec51 0430 	dcp_rdds r0, r1
10002462:	4770      	bx	lr
10002464:	b500      	push	{lr}
10002466:	f7ff ffb7 	bl	100023d8 <generic_save_state>
1000246a:	e002      	b.n	10002472 <__wrap___aeabi_dmul+0x6>

1000246c <__wrap___aeabi_dmul>:
1000246c:	fe10 f430 	dcp_pcmp APSR_nzcv
10002470:	d4f8      	bmi.n	10002464 <__wrap___aeabi_dsub+0x20>
10002472:	b510      	push	{r4, lr}
10002474:	ec41 0410 	dcp_wxup r0, r1
10002478:	ec43 2411 	dcp_wyup r2, r3
1000247c:	ec51 0404 	dcp_rxms r0, r1, #0x0
10002480:	ec53 2405 	dcp_ryms r2, r3, #0x0
10002484:	fba0 4c02 	umull	r4, ip, r0, r2
10002488:	f05f 0e00 	movs.w	lr, #0
1000248c:	fbe0 ce03 	umlal	ip, lr, r0, r3
10002490:	fbe1 ce02 	umlal	ip, lr, r1, r2
10002494:	ec4c 4420 	dcp_wxms r4, ip
10002498:	2400      	movs	r4, #0
1000249a:	fbe1 e403 	umlal	lr, r4, r1, r3
1000249e:	ec44 e430 	dcp_wxmo lr, r4
100024a2:	ee80 0420 			dcp_nrdd
100024a6:	ec51 0450 	dcp_rddm r0, r1
100024aa:	e8bd 4010 	ldmia.w	sp!, {r4, lr}
100024ae:	4770      	bx	lr
100024b0:	b500      	push	{lr}
100024b2:	f7ff ff91 	bl	100023d8 <generic_save_state>
100024b6:	e002      	b.n	100024be <__wrap___aeabi_ddiv+0x6>

100024b8 <__wrap___aeabi_ddiv>:
100024b8:	fe10 f430 	dcp_pcmp APSR_nzcv
100024bc:	d4f8      	bmi.n	100024b0 <__wrap___aeabi_dmul+0x44>
100024be:	ec41 0410 	dcp_wxup r0, r1
100024c2:	ec43 2411 	dcp_wyup r2, r3
100024c6:	ec51 0421 	dcp_rymr r0, r1
100024ca:	fba0 1201 	umull	r1, r2, r0, r1
100024ce:	ea6f 0282 	mvn.w	r2, r2, lsl #2
100024d2:	fb52 0010 	smmlar	r0, r2, r0, r0
100024d6:	fb52 f212 	smmulr	r2, r2, r2
100024da:	fb52 0010 	smmlar	r0, r2, r0, r0
100024de:	eba0 7cd0 	sub.w	ip, r0, r0, lsr #31
100024e2:	ec53 2404 	dcp_rxms r2, r3, #0x0
100024e6:	fb5c f113 	smmulr	r1, ip, r3
100024ea:	ec53 2415 	dcp_ryms r2, r3, #0x1
100024ee:	fba1 2002 	umull	r2, r0, r1, r2
100024f2:	fb01 0003 	mla	r0, r1, r3, r0
100024f6:	ec53 2444 	dcp_rxms r2, r3, #0x4
100024fa:	eba2 0000 	sub.w	r0, r2, r0
100024fe:	fb50 f21c 	smmulr	r2, r0, ip
10002502:	ea4f 1311 	mov.w	r3, r1, lsr #4
10002506:	eb12 7001 	adds.w	r0, r2, r1, lsl #28
1000250a:	eb43 71e2 	adc.w	r1, r3, r2, asr #31
1000250e:	ea40 5051 	orr.w	r0, r0, r1, lsr #21
10002512:	ea20 5091 	bic.w	r0, r0, r1, lsr #22
10002516:	f020 0007 	bic.w	r0, r0, #7
1000251a:	ec53 2475 	dcp_ryms r2, r3, #0x7
1000251e:	fba0 3c02 	umull	r3, ip, r0, r2
10002522:	ec53 2475 	dcp_ryms r2, r3, #0x7
10002526:	fb00 cc03 	mla	ip, r0, r3, ip
1000252a:	fb01 cc02 	mla	ip, r1, r2, ip
1000252e:	ec53 2404 	dcp_rxms r2, r3, #0x0
10002532:	ebac 4c82 	sub.w	ip, ip, r2, lsl #18
10002536:	ea40 705c 	orr.w	r0, r0, ip, lsr #29
1000253a:	f1a0 0001 	sub.w	r0, r0, #1
1000253e:	ec41 0440 	dcp_wxdd r0, r1
10002542:	ee80 0420 			dcp_nrdd
10002546:	ec51 0470 	dcp_rddd r0, r1
1000254a:	4770      	bx	lr
1000254c:	b500      	push	{lr}
1000254e:	f7ff ff43 	bl	100023d8 <generic_save_state>
10002552:	e002      	b.n	1000255a <__wrap___aeabi_d2f+0x6>

10002554 <__wrap___aeabi_d2f>:
10002554:	fe10 f430 	dcp_pcmp APSR_nzcv
10002558:	d4f8      	bmi.n	1000254c <__wrap___aeabi_ddiv+0x94>
1000255a:	ec41 0410 	dcp_wxup r0, r1
1000255e:	ee80 0422 			dcp_nrdf
10002562:	ee10 04b2 			dcp_rdfg r0
10002566:	4770      	bx	lr
10002568:	b500      	push	{lr}
1000256a:	f7ff ff35 	bl	100023d8 <generic_save_state>
1000256e:	e002      	b.n	10002576 <__wrap___aeabi_i2d+0x6>

10002570 <__wrap___aeabi_i2d>:
10002570:	fe10 f430 	dcp_pcmp APSR_nzcv
10002574:	d4f8      	bmi.n	10002568 <__wrap___aeabi_d2f+0x14>
10002576:	ec40 0470 	dcp_wxic r0, r0
1000257a:	ee00 0401 			dcp_add0
1000257e:	ee10 0421 			dcp_sub1
10002582:	ee80 0420 			dcp_nrdd
10002586:	ec51 0430 	dcp_rdds r0, r1
1000258a:	4770      	bx	lr
1000258c:	b500      	push	{lr}
1000258e:	f7ff ff23 	bl	100023d8 <generic_save_state>
10002592:	e002      	b.n	1000259a <__wrap___aeabi_ui2d+0x6>

10002594 <__wrap___aeabi_ui2d>:
10002594:	fe10 f430 	dcp_pcmp APSR_nzcv
10002598:	d4f8      	bmi.n	1000258c <__wrap___aeabi_i2d+0x1c>
1000259a:	ec40 0460 	dcp_wxuc r0, r0
1000259e:	ee00 0401 			dcp_add0
100025a2:	ee10 0421 			dcp_sub1
100025a6:	ee80 0420 			dcp_nrdd
100025aa:	ec51 0430 	dcp_rdds r0, r1
100025ae:	4770      	bx	lr
100025b0:	b500      	push	{lr}
100025b2:	f7ff ff11 	bl	100023d8 <generic_save_state>
100025b6:	e002      	b.n	100025be <double2int_z_entry>

100025b8 <__wrap___aeabi_d2iz>:
100025b8:	fe10 f430 	dcp_pcmp APSR_nzcv
100025bc:	d4f8      	bmi.n	100025b0 <__wrap___aeabi_ui2d+0x1c>

100025be <double2int_z_entry>:
100025be:	ec41 0480 	dcp_wxdc r0, r1
100025c2:	ee00 0401 			dcp_add0
100025c6:	ee10 0401 			dcp_add1
100025ca:	ee80 0440 			dcp_ntdc
100025ce:	ee10 0413 			dcp_rdic r0
100025d2:	4770      	bx	lr
100025d4:	b500      	push	{lr}
100025d6:	f7ff feff 	bl	100023d8 <generic_save_state>
100025da:	e002      	b.n	100025e2 <double2uint_z_entry>

100025dc <__wrap___aeabi_d2uiz>:
100025dc:	fe10 f430 	dcp_pcmp APSR_nzcv
100025e0:	d4f8      	bmi.n	100025d4 <double2int_z_entry+0x16>

100025e2 <double2uint_z_entry>:
100025e2:	ec41 0480 	dcp_wxdc r0, r1
100025e6:	ee00 0401 			dcp_add0
100025ea:	ee10 0401 			dcp_add1
100025ee:	ee80 0440 			dcp_ntdc
100025f2:	ee10 0433 			dcp_rduc r0
100025f6:	4770      	bx	lr
100025f8:	b500      	push	{lr}
100025fa:	f7ff feed 	bl	100023d8 <generic_save_state>
100025fe:	e002      	b.n	10002606 <__wrap___aeabi_dcmpun+0x6>

10002600 <__wrap___aeabi_dcmpun>:
10002600:	fe10 f430 	dcp_pcmp APSR_nzcv
10002604:	d4f8      	bmi.n	100025f8 <double2uint_z_entry+0x16>
10002606:	ec41 0410 	dcp_wxup r0, r1
1000260a:	ec43 2411 	dcp_wyup r2, r3
1000260e:	ee00 0401 			dcp_add0
10002612:	ee10 0430 			dcp_rcmp r0
10002616:	f3c0 7000 	ubfx	r0, r0, #28, #1
1000261a:	4770      	bx	lr
1000261c:	b500      	push	{lr}
1000261e:	f7ff fedb 	bl	100023d8 <generic_save_state>
10002622:	e002      	b.n	1000262a <__wrap___aeabi_dcmpeq+0x6>

10002624 <__wrap___aeabi_dcmpeq>:
10002624:	fe10 f430 	dcp_pcmp APSR_nzcv
10002628:	d4f8      	bmi.n	1000261c <__wrap___aeabi_dcmpun+0x1c>
1000262a:	ec41 0410 	dcp_wxup r0, r1
1000262e:	ec43 2411 	dcp_wyup r2, r3
10002632:	ee00 0401 			dcp_add0
10002636:	ee10 0430 			dcp_rcmp r0
1000263a:	f3c0 7080 	ubfx	r0, r0, #30, #1
1000263e:	4770      	bx	lr
10002640:	b500      	push	{lr}
10002642:	f7ff fec9 	bl	100023d8 <generic_save_state>
10002646:	e002      	b.n	1000264e <__wrap___aeabi_dcmplt+0x6>

10002648 <__wrap___aeabi_dcmplt>:
10002648:	fe10 f430 	dcp_pcmp APSR_nzcv
1000264c:	d4f8      	bmi.n	10002640 <__wrap___aeabi_dcmpeq+0x1c>
1000264e:	ec43 2410 	dcp_wxup r2, r3
10002652:	ec41 0411 	dcp_wyup r0, r1
10002656:	ee00 0401 			dcp_add0
1000265a:	ee10 f430 			dcp_rcmp APSR_nzcv
1000265e:	bf8c      	ite	hi
10002660:	2001      	movhi	r0, #1
10002662:	2000      	movls	r0, #0
10002664:	4770      	bx	lr
10002666:	bf00      	nop
10002668:	b500      	push	{lr}
1000266a:	f7ff feb5 	bl	100023d8 <generic_save_state>
1000266e:	e002      	b.n	10002676 <__wrap___aeabi_dcmple+0x6>

10002670 <__wrap___aeabi_dcmple>:
10002670:	fe10 f430 	dcp_pcmp APSR_nzcv
10002674:	d4f8      	bmi.n	10002668 <__wrap___aeabi_dcmplt+0x20>
10002676:	ec43 2410 	dcp_wxup r2, r3
1000267a:	ec41 0411 	dcp_wyup r0, r1
1000267e:	ee00 0401 			dcp_add0
10002682:	ee10 f430 			dcp_rcmp APSR_nzcv
10002686:	bf2c      	ite	cs
10002688:	2001      	movcs	r0, #1
1000268a:	2000      	movcc	r0, #0
1000268c:	4770      	bx	lr
1000268e:	bf00      	nop
10002690:	b500      	push	{lr}
10002692:	f7ff fea1 	bl	100023d8 <generic_save_state>
10002696:	e002      	b.n	1000269e <__wrap___aeabi_dcmpge+0x6>

10002698 <__wrap___aeabi_dcmpge>:
10002698:	fe10 f430 	dcp_pcmp APSR_nzcv
1000269c:	d4f8      	bmi.n	10002690 <__wrap___aeabi_dcmple+0x20>
1000269e:	ec41 0410 	dcp_wxup r0, r1
100026a2:	ec43 2411 	dcp_wyup r2, r3
100026a6:	ee00 0401 			dcp_add0
100026aa:	ee10 f430 			dcp_rcmp APSR_nzcv
100026ae:	bf2c      	ite	cs
100026b0:	2001      	movcs	r0, #1
100026b2:	2000      	movcc	r0, #0
100026b4:	4770      	bx	lr
100026b6:	bf00      	nop
100026b8:	b500      	push	{lr}
100026ba:	f7ff fe8d 	bl	100023d8 <generic_save_state>
100026be:	e002      	b.n	100026c6 <__wrap___aeabi_dcmpgt+0x6>

100026c0 <__wrap___aeabi_dcmpgt>:
100026c0:	fe10 f430 	dcp_pcmp APSR_nzcv
100026c4:	d4f8      	bmi.n	100026b8 <__wrap___aeabi_dcmpge+0x20>
100026c6:	ec41 0410 	dcp_wxup r0, r1
100026ca:	ec43 2411 	dcp_wyup r2, r3
100026ce:	ee00 0401 			dcp_add0
100026d2:	ee10 f430 			dcp_rcmp APSR_nzcv
100026d6:	bf8c      	ite	hi
100026d8:	2001      	movhi	r0, #1
100026da:	2000      	movls	r0, #0
100026dc:	4770      	bx	lr
100026de:	bf00      	nop

100026e0 <dnegpack_q63>:
100026e0:	4240      	negs	r0, r0
100026e2:	eb61 0141 	sbc.w	r1, r1, r1, lsl #1

100026e6 <dpack_q63>:
100026e6:	f240 34f3 	movw	r4, #1011	@ 0x3f3

100026ea <dpack_q>:
100026ea:	fab1 f281 	clz	r2, r1
100026ee:	2a0c      	cmp	r2, #12
100026f0:	d20c      	bcs.n	1000270c <dpack_q+0x22>
100026f2:	3215      	adds	r2, #21
100026f4:	fa11 f302 	lsls.w	r3, r1, r2
100026f8:	f1c2 0220 	rsb	r2, r2, #32
100026fc:	40d0      	lsrs	r0, r2
100026fe:	fa21 f102 	lsr.w	r1, r1, r2
10002702:	4422      	add	r2, r4
10002704:	4158      	adcs	r0, r3
10002706:	eb41 5102 	adc.w	r1, r1, r2, lsl #20
1000270a:	4770      	bx	lr
1000270c:	b169      	cbz	r1, 1000272a <dpack_q+0x40>
1000270e:	f1c2 022b 	rsb	r2, r2, #43	@ 0x2b
10002712:	fa30 f302 	lsrs.w	r3, r0, r2
10002716:	f1c2 0220 	rsb	r2, r2, #32
1000271a:	4091      	lsls	r1, r2
1000271c:	4090      	lsls	r0, r2
1000271e:	4319      	orrs	r1, r3
10002720:	eba4 0202 	sub.w	r2, r4, r2
10002724:	eb01 5102 	add.w	r1, r1, r2, lsl #20
10002728:	4770      	bx	lr
1000272a:	0001      	movs	r1, r0
1000272c:	f04f 0000 	mov.w	r0, #0
10002730:	f1a4 0420 	sub.w	r4, r4, #32
10002734:	d1d9      	bne.n	100026ea <dpack_q>
10002736:	4770      	bx	lr

10002738 <dreduce>:
10002738:	2701      	movs	r7, #1
1000273a:	f367 511f 	bfi	r1, r7, #20, #12
1000273e:	fa17 f803 	lsls.w	r8, r7, r3
10002742:	d017      	beq.n	10002774 <dreduce+0x3c>
10002744:	fba0 0708 	umull	r0, r7, r0, r8
10002748:	fb01 7108 	mla	r1, r1, r8, r7
1000274c:	fba1 7806 	umull	r7, r8, r1, r6
10002750:	ea5f 46d8 	movs.w	r6, r8, lsr #19
10002754:	1992      	adds	r2, r2, r6
10002756:	fba6 7804 	umull	r7, r8, r6, r4
1000275a:	fb06 8805 	mla	r8, r6, r5, r8
1000275e:	0309      	lsls	r1, r1, #12
10002760:	ea51 5110 	orrs.w	r1, r1, r0, lsr #20
10002764:	ebd7 3000 	rsbs	r0, r7, r0, lsl #12
10002768:	eb61 0108 	sbc.w	r1, r1, r8
1000276c:	42a9      	cmp	r1, r5
1000276e:	bf38      	it	cc
10002770:	4770      	bxcc	lr
10002772:	e00b      	b.n	1000278c <dreduce+0x54>
10002774:	330c      	adds	r3, #12
10002776:	2701      	movs	r7, #1
10002778:	fa17 f803 	lsls.w	r8, r7, r3
1000277c:	d00f      	beq.n	1000279e <dreduce+0x66>
1000277e:	fba0 0708 	umull	r0, r7, r0, r8
10002782:	fb01 7108 	mla	r1, r1, r8, r7
10002786:	42a9      	cmp	r1, r5
10002788:	bf38      	it	cc
1000278a:	4770      	bxcc	lr
1000278c:	bf08      	it	eq
1000278e:	42a0      	cmpeq	r0, r4
10002790:	bf38      	it	cc
10002792:	4770      	bxcc	lr
10002794:	1b00      	subs	r0, r0, r4
10002796:	eb61 0105 	sbc.w	r1, r1, r5
1000279a:	3201      	adds	r2, #1
1000279c:	4770      	bx	lr
1000279e:	f103 0320 	add.w	r3, r3, #32
100027a2:	fa11 f603 	lsls.w	r6, r1, r3
100027a6:	f1d3 0320 	rsbs	r3, r3, #32
100027aa:	40d8      	lsrs	r0, r3
100027ac:	40d9      	lsrs	r1, r3
100027ae:	4330      	orrs	r0, r6
100027b0:	4770      	bx	lr
	...

100027b4 <exptab0>:
	...
100027bc:	08b15304 	.word	0x08b15304
100027c0:	0f851860 	.word	0x0f851860
100027c4:	2af2e5c8 	.word	0x2af2e5c8
100027c8:	1e27076e 	.word	0x1e27076e
100027cc:	21b2120d 	.word	0x21b2120d
100027d0:	2f571204 	.word	0x2f571204
100027d4:	bc7c5512 	.word	0xbc7c5512
100027d8:	3f7230da 	.word	0x3f7230da
100027dc:	a517a717 	.word	0xa517a717
100027e0:	4e993155 	.word	0x4e993155
100027e4:	0abf0d9d 	.word	0x0abf0d9d
100027e8:	5fabe0ee 	.word	0x5fabe0ee
100027ec:	9c6defe3 	.word	0x9c6defe3
100027f0:	6fad3676 	.word	0x6fad3676
100027f4:	e3cc7b69 	.word	0xe3cc7b69
100027f8:	7ebd623d 	.word	0x7ebd623d
100027fc:	820681f0 	.word	0x820681f0
10002800:	8f42faf3 	.word	0x8f42faf3
10002804:	8ab7d537 	.word	0x8ab7d537
10002808:	9ec81353 	.word	0x9ec81353
1000280c:	20b3ab7f 	.word	0x20b3ab7f
10002810:	af701549 	.word	0xaf701549

10002814 <exptab1>:
	...
1000281c:	15885e02 	.word	0x15885e02
10002820:	00ff8055 	.word	0x00ff8055
10002824:	b1067890 	.word	0xb1067890
10002828:	01fe02a6 	.word	0x01fe02a6
1000282c:	f0214edc 	.word	0xf0214edc
10002830:	02fb88eb 	.word	0x02fb88eb
10002834:	1f807c7a 	.word	0x1f807c7a
10002838:	03f81516 	.word	0x03f81516
1000283c:	d1a95d3c 	.word	0xd1a95d3c
10002840:	04f3a910 	.word	0x04f3a910
10002844:	f56c46aa 	.word	0xf56c46aa
10002848:	05ee46c1 	.word	0x05ee46c1
1000284c:	ebe465ff 	.word	0xebe465ff
10002850:	06e7f009 	.word	0x06e7f009
10002854:	9e0cc013 	.word	0x9e0cc013
10002858:	07e0a6c3 	.word	0x07e0a6c3
1000285c:	91ecbfe1 	.word	0x91ecbfe1
10002860:	08d86cc4 	.word	0x08d86cc4
10002864:	ff5eafd5 	.word	0xff5eafd5
10002868:	09cf43dc 	.word	0x09cf43dc
1000286c:	e4726a46 	.word	0xe4726a46
10002870:	0ac52dd7 	.word	0x0ac52dd7
10002874:	196e7e23 	.word	0x196e7e23
10002878:	0bba2c7b 	.word	0x0bba2c7b
1000287c:	6471f5bf 	.word	0x6471f5bf
10002880:	0cae4187 	.word	0x0cae4187
10002884:	8cb8df61 	.word	0x8cb8df61
10002888:	0da16eb8 	.word	0x0da16eb8
1000288c:	6d85a909 	.word	0x6d85a909
10002890:	0e93b5c5 	.word	0x0e93b5c5
10002894:	08b15331 	.word	0x08b15331
10002898:	0f851860 	.word	0x0f851860
1000289c:	98e47130 	.word	0x98e47130
100028a0:	10759835 	.word	0x10759835

100028a4 <exptab2>:
100028a4:	05551559 	.word	0x05551559
100028a8:	000fff80 	.word	0x000fff80
100028ac:	8febc309 	.word	0x8febc309
100028b0:	002ffb80 	.word	0x002ffb80
100028b4:	9a0e91b1 	.word	0x9a0e91b1
100028b8:	004ff382 	.word	0x004ff382
100028bc:	22fde71f 	.word	0x22fde71f
100028c0:	006fe787 	.word	0x006fe787
100028c4:	299aa0c3 	.word	0x299aa0c3
100028c8:	008fd78f 	.word	0x008fd78f
100028cc:	ac66434f 	.word	0xac66434f
100028d0:	00afc39b 	.word	0x00afc39b
100028d4:	a9832a41 	.word	0xa9832a41
100028d8:	00cfabad 	.word	0x00cfabad
100028dc:	1eb4b74f 	.word	0x1eb4b74f
100028e0:	00ef8fc6 	.word	0x00ef8fc6
100028e4:	095f81b6 	.word	0x095f81b6
100028e8:	010f6fe6 	.word	0x010f6fe6
100028ec:	66898567 	.word	0x66898567
100028f0:	012f4c0e 	.word	0x012f4c0e
100028f4:	32da521a 	.word	0x32da521a
100028f8:	014f2440 	.word	0x014f2440
100028fc:	6a9b3a48 	.word	0x6a9b3a48
10002900:	016ef87c 	.word	0x016ef87c
10002904:	09b781ff 	.word	0x09b781ff
10002908:	018ec8c4 	.word	0x018ec8c4
1000290c:	0bbc8d9c 	.word	0x0bbc8d9c
10002910:	01ae9518 	.word	0x01ae9518
10002914:	6bda1070 	.word	0x6bda1070
10002918:	01ce5d79 	.word	0x01ce5d79
1000291c:	24e23b3a 	.word	0x24e23b3a
10002920:	01ee21e9 	.word	0x01ee21e9

10002924 <logtab0>:
10002924:	33957338 	.word	0x33957338
10002928:	a0ec7f42 	.word	0xa0ec7f42
1000292c:	f5fa1431 	.word	0xf5fa1431
10002930:	918986bd 	.word	0x918986bd
10002934:	e6fa026b 	.word	0xe6fa026b
10002938:	8391f2e0 	.word	0x8391f2e0
1000293c:	071282e6 	.word	0x071282e6
10002940:	7751a813 	.word	0x7751a813
10002944:	68212621 	.word	0x68212621
10002948:	6a73b26a 	.word	0x6a73b26a
1000294c:	0abf0d9d 	.word	0x0abf0d9d
10002950:	5fabe0ee 	.word	0x5fabe0ee
10002954:	b7e0b419 	.word	0xb7e0b419
10002958:	546ab61c 	.word	0x546ab61c
1000295c:	3de59695 	.word	0x3de59695
10002960:	48a507ef 	.word	0x48a507ef
10002964:	55e5cbd1 	.word	0x55e5cbd1
10002968:	3c4e0edc 	.word	0x3c4e0edc
1000296c:	e8ad68ce 	.word	0xe8ad68ce
10002970:	32a4b539 	.word	0x32a4b539
10002974:	96fa3ccb 	.word	0x96fa3ccb
10002978:	289a56d9 	.word	0x289a56d9
1000297c:	a11cb2c9 	.word	0xa11cb2c9
10002980:	21aefcf9 	.word	0x21aefcf9
10002984:	e56b4b86 	.word	0xe56b4b86
10002988:	16f0d28a 	.word	0x16f0d28a
1000298c:	08b15304 	.word	0x08b15304
10002990:	0f851860 	.word	0x0f851860
10002994:	9e0cc002 	.word	0x9e0cc002
10002998:	07e0a6c3 	.word	0x07e0a6c3
	...

100029a4 <exprrdata>:
100029a4:	d1cf79ac 	.word	0xd1cf79ac
100029a8:	b17217f7 	.word	0xb17217f7
100029ac:	b8aa3b29 	.word	0xb8aa3b29
100029b0:	ea4f 20c1 	mov.w	r0, r1, lsl #11
100029b4:	f040 4000 	orr.w	r0, r0, #2147483648	@ 0x80000000
100029b8:	0049      	lsls	r1, r1, #1
100029ba:	f143 0320 	adc.w	r3, r3, #32
100029be:	f240 0100 	movw	r1, #0
100029c2:	f6c3 71f0 	movt	r1, #16368	@ 0x3ff0
100029c6:	f1c3 030b 	rsb	r3, r3, #11
100029ca:	fa20 f003 	lsr.w	r0, r0, r3
100029ce:	bf38      	it	cc
100029d0:	4770      	bxcc	lr
100029d2:	4240      	negs	r0, r0
100029d4:	f161 0100 	sbc.w	r1, r1, #0
100029d8:	4770      	bx	lr

100029da <__wrap_exp>:
100029da:	ea5f 7cd1 	movs.w	ip, r1, lsr #31
100029de:	f3c1 530a 	ubfx	r3, r1, #20, #11
100029e2:	f2a3 33ff 	subw	r3, r3, #1023	@ 0x3ff
100029e6:	2b0c      	cmp	r3, #12
100029e8:	da62      	bge.n	10002ab0 <__wrap_exp+0xd6>
100029ea:	f113 0f20 	cmn.w	r3, #32
100029ee:	dddf      	ble.n	100029b0 <exprrdata+0xc>
100029f0:	e92d 41f0 	stmdb	sp!, {r4, r5, r6, r7, r8, lr}
100029f4:	4c3c      	ldr	r4, [pc, #240]	@ (10002ae8 <__wrap_exp+0x10e>)
100029f6:	cc70      	ldmia	r4, {r4, r5, r6}
100029f8:	f04f 0200 	mov.w	r2, #0
100029fc:	f7ff fe9c 	bl	10002738 <dreduce>
10002a00:	f01c 0f01 	tst.w	ip, #1
10002a04:	d004      	beq.n	10002a10 <__wrap_exp+0x36>
10002a06:	ea6f 0202 	mvn.w	r2, r2
10002a0a:	1a20      	subs	r0, r4, r0
10002a0c:	eb65 0101 	sbc.w	r1, r5, r1
10002a10:	f202 3cfe 	addw	ip, r2, #1022	@ 0x3fe
10002a14:	f240 73fe 	movw	r3, #2046	@ 0x7fe
10002a18:	459c      	cmp	ip, r3
10002a1a:	d25c      	bcs.n	10002ad6 <__wrap_exp+0xfc>
10002a1c:	0f0a      	lsrs	r2, r1, #28
10002a1e:	4b33      	ldr	r3, [pc, #204]	@ (10002aec <__wrap_exp+0x112>)
10002a20:	eb03 03c2 	add.w	r3, r3, r2, lsl #3
10002a24:	cb0c      	ldmia	r3, {r2, r3}
10002a26:	f002 053f 	and.w	r5, r2, #63	@ 0x3f
10002a2a:	f045 0540 	orr.w	r5, r5, #64	@ 0x40
10002a2e:	1a80      	subs	r0, r0, r2
10002a30:	4199      	sbcs	r1, r3
10002a32:	0e0a      	lsrs	r2, r1, #24
10002a34:	4b2e      	ldr	r3, [pc, #184]	@ (10002af0 <__wrap_exp+0x116>)
10002a36:	eb03 03c2 	add.w	r3, r3, r2, lsl #3
10002a3a:	cb18      	ldmia	r3, {r3, r4}
10002a3c:	f502 7280 	add.w	r2, r2, #256	@ 0x100
10002a40:	4355      	muls	r5, r2
10002a42:	1ac0      	subs	r0, r0, r3
10002a44:	41a1      	sbcs	r1, r4
10002a46:	0d4a      	lsrs	r2, r1, #21
10002a48:	4b2a      	ldr	r3, [pc, #168]	@ (10002af4 <__wrap_exp+0x11a>)
10002a4a:	eb03 03c2 	add.w	r3, r3, r2, lsl #3
10002a4e:	cb18      	ldmia	r3, {r3, r4}
10002a50:	4412      	add	r2, r2
10002a52:	f502 5280 	add.w	r2, r2, #4096	@ 0x1000
10002a56:	fb05 5502 	mla	r5, r5, r2, r5
10002a5a:	1ac0      	subs	r0, r0, r3
10002a5c:	41a1      	sbcs	r1, r4
10002a5e:	028a      	lsls	r2, r1, #10
10002a60:	ea52 5290 	orrs.w	r2, r2, r0, lsr #22
10002a64:	f142 0200 	adc.w	r2, r2, #0
10002a68:	fb82 3402 	smull	r3, r4, r2, r2
10002a6c:	0d5b      	lsrs	r3, r3, #21
10002a6e:	ea53 23c4 	orrs.w	r3, r3, r4, lsl #11
10002a72:	18c0      	adds	r0, r0, r3
10002a74:	eb41 5154 	adc.w	r1, r1, r4, lsr #21
10002a78:	fb84 3402 	smull	r3, r4, r4, r2
10002a7c:	f04f 3355 	mov.w	r3, #1431655765	@ 0x55555555
10002a80:	fb83 3404 	smull	r3, r4, r3, r4
10002a84:	fb54 f311 	smmulr	r3, r4, r1
10002a88:	eb04 0493 	add.w	r4, r4, r3, lsr #2
10002a8c:	eb10 0244 	adds.w	r2, r0, r4, lsl #1
10002a90:	eb41 73e4 	adc.w	r3, r1, r4, asr #31
10002a94:	00e9      	lsls	r1, r5, #3
10002a96:	fba1 4002 	umull	r4, r0, r1, r2
10002a9a:	fbc1 0103 	smlal	r0, r1, r1, r3
10002a9e:	0a40      	lsrs	r0, r0, #9
10002aa0:	eb50 50c1 	adcs.w	r0, r0, r1, lsl #23
10002aa4:	ea4f 2151 	mov.w	r1, r1, lsr #9
10002aa8:	eb51 510c 	adcs.w	r1, r1, ip, lsl #20
10002aac:	e8bd 81f0 	ldmia.w	sp!, {r4, r5, r6, r7, r8, pc}
10002ab0:	f5b3 6f80 	cmp.w	r3, #1024	@ 0x400
10002ab4:	d107      	bne.n	10002ac6 <__wrap_exp+0xec>
10002ab6:	ea50 3201 	orrs.w	r2, r0, r1, lsl #12
10002aba:	bf0c      	ite	eq
10002abc:	ea21 71e1 	biceq.w	r1, r1, r1, asr #31
10002ac0:	f441 2100 	orrne.w	r1, r1, #524288	@ 0x80000
10002ac4:	4770      	bx	lr
10002ac6:	2000      	movs	r0, #0
10002ac8:	2100      	movs	r1, #0
10002aca:	f01c 0f01 	tst.w	ip, #1
10002ace:	bf08      	it	eq
10002ad0:	f6c7 71f0 	movteq	r1, #32752	@ 0x7ff0
10002ad4:	4770      	bx	lr
10002ad6:	f04f 0000 	mov.w	r0, #0
10002ada:	f04f 0100 	mov.w	r1, #0
10002ade:	bfa8      	it	ge
10002ae0:	f6c7 71f0 	movtge	r1, #32752	@ 0x7ff0
10002ae4:	e8bd 81f0 	ldmia.w	sp!, {r4, r5, r6, r7, r8, pc}
10002ae8:	100029a4 	.word	0x100029a4
10002aec:	100027b4 	.word	0x100027b4
10002af0:	10002814 	.word	0x10002814
10002af4:	100028a4 	.word	0x100028a4
10002af8:	f240 0100 	movw	r1, #0
10002afc:	f6cf 71f0 	movt	r1, #65520	@ 0xfff0
10002b00:	2000      	movs	r0, #0
10002b02:	4770      	bx	lr
10002b04:	ea50 3201 	orrs.w	r2, r0, r1, lsl #12
10002b08:	bf18      	it	ne
10002b0a:	f441 2100 	orrne.w	r1, r1, #524288	@ 0x80000
10002b0e:	4770      	bx	lr
10002b10:	ea7f 55a6 	mvns.w	r5, r6, asr #22
10002b14:	f040 8119 	bne.w	10002d4a <__wrap_log+0x74>
10002b18:	f44f 5480 	mov.w	r4, #4096	@ 0x1000
10002b1c:	e120      	b.n	10002d60 <__wrap_log+0x8a>
10002b1e:	ea8c 3311 	eor.w	r3, ip, r1, lsr #12
10002b22:	061b      	lsls	r3, r3, #24
10002b24:	f040 80ee 	bne.w	10002d04 <__wrap_log+0x2e>
10002b28:	f1bc 0f00 	cmp.w	ip, #0
10002b2c:	d167      	bne.n	10002bfe <__wrap_exp+0x224>
10002b2e:	04c9      	lsls	r1, r1, #19
10002b30:	ea51 3150 	orrs.w	r1, r1, r0, lsr #13
10002b34:	04c0      	lsls	r0, r0, #19
10002b36:	fab1 f481 	clz	r4, r1
10002b3a:	2c20      	cmp	r4, #32
10002b3c:	d24b      	bcs.n	10002bd6 <__wrap_exp+0x1fc>
10002b3e:	2501      	movs	r5, #1
10002b40:	40a5      	lsls	r5, r4
10002b42:	fba0 2305 	umull	r2, r3, r0, r5
10002b46:	fb01 3305 	mla	r3, r1, r5, r3
10002b4a:	fba0 c503 	umull	ip, r5, r0, r3
10002b4e:	fba1 c602 	umull	ip, r6, r1, r2
10002b52:	fbe1 5663 	umaal	r5, r6, r1, r3
10002b56:	ebb2 2215 	subs.w	r2, r2, r5, lsr #8
10002b5a:	f163 0300 	sbc.w	r3, r3, #0
10002b5e:	ebb2 6206 	subs.w	r2, r2, r6, lsl #24
10002b62:	eb73 2316 	sbcs.w	r3, r3, r6, lsr #8
10002b66:	fba0 c706 	umull	ip, r7, r0, r6
10002b6a:	fba1 c805 	umull	ip, r8, r1, r5
10002b6e:	fbe1 7866 	umaal	r7, r8, r1, r6
10002b72:	f04f 3555 	mov.w	r5, #1431655765	@ 0x55555555
10002b76:	fba7 c605 	umull	ip, r6, r7, r5
10002b7a:	f05f 0c00 	movs.w	ip, #0
10002b7e:	fbe8 6c05 	umlal	r6, ip, r8, r5
10002b82:	eb16 060c 	adds.w	r6, r6, ip
10002b86:	f14c 0c00 	adc.w	ip, ip, #0
10002b8a:	eb12 3296 	adds.w	r2, r2, r6, lsr #14
10002b8e:	f143 0300 	adc.w	r3, r3, #0
10002b92:	eb12 428c 	adds.w	r2, r2, ip, lsl #18
10002b96:	eb43 339c 	adc.w	r3, r3, ip, lsr #14
10002b9a:	fb58 f511 	smmulr	r5, r8, r1
10002b9e:	f05f 3733 	movs.w	r7, #858993459	@ 0x33333333
10002ba2:	fb55 f611 	smmulr	r6, r5, r1
10002ba6:	fb56 f817 	smmulr	r8, r6, r7
10002baa:	eba5 1758 	sub.w	r7, r5, r8, lsr #5
10002bae:	fb56 f511 	smmulr	r5, r6, r1
10002bb2:	f6c2 2680 	movt	r6, #10880	@ 0x2a80
10002bb6:	fb56 f515 	smmulr	r5, r6, r5
10002bba:	eb07 3715 	add.w	r7, r7, r5, lsr #12
10002bbe:	ebb2 2047 	subs.w	r0, r2, r7, lsl #9
10002bc2:	eb63 51d7 	sbc.w	r1, r3, r7, lsr #23
10002bc6:	f5c4 6480 	rsb	r4, r4, #1024	@ 0x400
10002bca:	f1a4 0415 	sub.w	r4, r4, #21
10002bce:	f7ff fd8c 	bl	100026ea <dpack_q>
10002bd2:	e8bd 81f0 	ldmia.w	sp!, {r4, r5, r6, r7, r8, pc}
10002bd6:	fab0 f480 	clz	r4, r0
10002bda:	fa10 f104 	lsls.w	r1, r0, r4
10002bde:	fba0 2301 	umull	r2, r3, r0, r1
10002be2:	f04f 0000 	mov.w	r0, #0
10002be6:	ebb0 2013 	subs.w	r0, r0, r3, lsr #8
10002bea:	f161 0100 	sbc.w	r1, r1, #0
10002bee:	f5c4 6480 	rsb	r4, r4, #1024	@ 0x400
10002bf2:	f1a4 0435 	sub.w	r4, r4, #53	@ 0x35
10002bf6:	f7ff fd78 	bl	100026ea <dpack_q>
10002bfa:	e8bd 81f0 	ldmia.w	sp!, {r4, r5, r6, r7, r8, pc}
10002bfe:	0489      	lsls	r1, r1, #18
10002c00:	ea51 3190 	orrs.w	r1, r1, r0, lsr #14
10002c04:	0480      	lsls	r0, r0, #18
10002c06:	4240      	negs	r0, r0
10002c08:	eb61 0141 	sbc.w	r1, r1, r1, lsl #1
10002c0c:	fab1 f481 	clz	r4, r1
10002c10:	2c20      	cmp	r4, #32
10002c12:	d24e      	bcs.n	10002cb2 <__wrap_exp+0x2d8>
10002c14:	3c01      	subs	r4, #1
10002c16:	2501      	movs	r5, #1
10002c18:	40a5      	lsls	r5, r4
10002c1a:	fba0 2305 	umull	r2, r3, r0, r5
10002c1e:	fb01 3305 	mla	r3, r1, r5, r3
10002c22:	fba0 c503 	umull	ip, r5, r0, r3
10002c26:	fba1 c602 	umull	ip, r6, r1, r2
10002c2a:	fbe1 5663 	umaal	r5, r6, r1, r3
10002c2e:	eb12 2215 	adds.w	r2, r2, r5, lsr #8
10002c32:	f143 0300 	adc.w	r3, r3, #0
10002c36:	eb12 6206 	adds.w	r2, r2, r6, lsl #24
10002c3a:	eb53 2316 	adcs.w	r3, r3, r6, lsr #8
10002c3e:	fba0 c706 	umull	ip, r7, r0, r6
10002c42:	fba1 c805 	umull	ip, r8, r1, r5
10002c46:	fbe1 7866 	umaal	r7, r8, r1, r6
10002c4a:	f04f 3555 	mov.w	r5, #1431655765	@ 0x55555555
10002c4e:	fba7 c605 	umull	ip, r6, r7, r5
10002c52:	f05f 0c00 	movs.w	ip, #0
10002c56:	fbe8 6c05 	umlal	r6, ip, r8, r5
10002c5a:	eb16 060c 	adds.w	r6, r6, ip
10002c5e:	f14c 0c00 	adc.w	ip, ip, #0
10002c62:	eb12 3296 	adds.w	r2, r2, r6, lsr #14
10002c66:	f143 0300 	adc.w	r3, r3, #0
10002c6a:	eb12 428c 	adds.w	r2, r2, ip, lsl #18
10002c6e:	eb43 339c 	adc.w	r3, r3, ip, lsr #14
10002c72:	fb58 f511 	smmulr	r5, r8, r1
10002c76:	f05f 3733 	movs.w	r7, #858993459	@ 0x33333333
10002c7a:	fb55 f611 	smmulr	r6, r5, r1
10002c7e:	fb56 f817 	smmulr	r8, r6, r7
10002c82:	eb05 1758 	add.w	r7, r5, r8, lsr #5
10002c86:	fb56 f511 	smmulr	r5, r6, r1
10002c8a:	f6c2 2680 	movt	r6, #10880	@ 0x2a80
10002c8e:	fb56 f515 	smmulr	r5, r6, r5
10002c92:	eb07 3715 	add.w	r7, r7, r5, lsr #12
10002c96:	eb12 2047 	adds.w	r0, r2, r7, lsl #9
10002c9a:	eb43 51d7 	adc.w	r1, r3, r7, lsr #23
10002c9e:	f5c4 6480 	rsb	r4, r4, #1024	@ 0x400
10002ca2:	f1a4 0415 	sub.w	r4, r4, #21
10002ca6:	f7ff fd20 	bl	100026ea <dpack_q>
10002caa:	f041 4100 	orr.w	r1, r1, #2147483648	@ 0x80000000
10002cae:	e8bd 81f0 	ldmia.w	sp!, {r4, r5, r6, r7, r8, pc}
10002cb2:	fab0 f480 	clz	r4, r0
10002cb6:	fa10 f104 	lsls.w	r1, r0, r4
10002cba:	fba0 2301 	umull	r2, r3, r0, r1
10002cbe:	ea4f 2013 	mov.w	r0, r3, lsr #8
10002cc2:	f5c4 6480 	rsb	r4, r4, #1024	@ 0x400
10002cc6:	f1a4 0435 	sub.w	r4, r4, #53	@ 0x35
10002cca:	f7ff fd0e 	bl	100026ea <dpack_q>
10002cce:	f091 4100 	eors.w	r1, r1, #2147483648	@ 0x80000000
10002cd2:	e8bd 81f0 	ldmia.w	sp!, {r4, r5, r6, r7, r8, pc}

10002cd6 <__wrap_log>:
10002cd6:	ea5f 0c41 	movs.w	ip, r1, lsl #1
10002cda:	f4bf af0d 	bcs.w	10002af8 <__wrap_exp+0x11e>
10002cde:	ea5f 5c5c 	movs.w	ip, ip, lsr #21
10002ce2:	f43f af09 	beq.w	10002af8 <__wrap_exp+0x11e>
10002ce6:	f2ac 3cff 	subw	ip, ip, #1023	@ 0x3ff
10002cea:	f5bc 6f80 	cmp.w	ip, #1024	@ 0x400
10002cee:	f43f af09 	beq.w	10002b04 <__wrap_exp+0x12a>
10002cf2:	2201      	movs	r2, #1
10002cf4:	f362 511f 	bfi	r1, r2, #20, #12
10002cf8:	e92d 41f0 	stmdb	sp!, {r4, r5, r6, r7, r8, lr}
10002cfc:	ebbc 7fec 	cmp.w	ip, ip, asr #31
10002d00:	f43f af0d 	beq.w	10002b1e <__wrap_exp+0x144>
10002d04:	0c0c      	lsrs	r4, r1, #16
10002d06:	4d4e      	ldr	r5, [pc, #312]	@ (10002e40 <__wrap_log+0x16a>)
10002d08:	eb05 05c4 	add.w	r5, r5, r4, lsl #3
10002d0c:	e895 000c 	ldmia.w	r5, {r2, r3}
10002d10:	f002 053f 	and.w	r5, r2, #63	@ 0x3f
10002d14:	f105 0540 	add.w	r5, r5, #64	@ 0x40
10002d18:	fba5 0600 	umull	r0, r6, r5, r0
10002d1c:	fb05 6101 	mla	r1, r5, r1, r6
10002d20:	ea6f 44e1 	mvn.w	r4, r1, asr #19
10002d24:	f004 041f 	and.w	r4, r4, #31
10002d28:	4d46      	ldr	r5, [pc, #280]	@ (10002e44 <__wrap_log+0x16e>)
10002d2a:	eb05 05c4 	add.w	r5, r5, r4, lsl #3
10002d2e:	cd60      	ldmia	r5, {r5, r6}
10002d30:	1952      	adds	r2, r2, r5
10002d32:	eb43 0306 	adc.w	r3, r3, r6
10002d36:	f504 7480 	add.w	r4, r4, #256	@ 0x100
10002d3a:	fba4 0600 	umull	r0, r6, r4, r0
10002d3e:	fb04 6601 	mla	r6, r4, r1, r6
10002d42:	ea7f 6426 	mvns.w	r4, r6, asr #24
10002d46:	f43f aee3 	beq.w	10002b10 <__wrap_exp+0x136>
10002d4a:	4d3f      	ldr	r5, [pc, #252]	@ (10002e48 <__wrap_log+0x172>)
10002d4c:	eb05 05c4 	add.w	r5, r5, r4, lsl #3
10002d50:	cd22      	ldmia	r5, {r1, r5}
10002d52:	1852      	adds	r2, r2, r1
10002d54:	eb43 0305 	adc.w	r3, r3, r5
10002d58:	f241 0501 	movw	r5, #4097	@ 0x1001
10002d5c:	eb05 0444 	add.w	r4, r5, r4, lsl #1
10002d60:	0464      	lsls	r4, r4, #17
10002d62:	fba4 5000 	umull	r5, r0, r4, r0
10002d66:	ebc4 01c4 	rsb	r1, r4, r4, lsl #3
10002d6a:	fbe4 0106 	umlal	r0, r1, r4, r6
10002d6e:	ea80 74e1 	eor.w	r4, r0, r1, asr #31
10002d72:	ea81 75e1 	eor.w	r5, r1, r1, asr #31
10002d76:	fba5 6705 	umull	r6, r7, r5, r5
10002d7a:	fba4 4805 	umull	r4, r8, r4, r5
10002d7e:	087f      	lsrs	r7, r7, #1
10002d80:	ea4f 0636 	mov.w	r6, r6, rrx
10002d84:	eb16 0608 	adds.w	r6, r6, r8
10002d88:	f147 0700 	adc.w	r7, r7, #0
10002d8c:	028c      	lsls	r4, r1, #10
10002d8e:	ea54 5490 	orrs.w	r4, r4, r0, lsr #22
10002d92:	f144 0400 	adc.w	r4, r4, #0
10002d96:	1b80      	subs	r0, r0, r6
10002d98:	eb61 0107 	sbc.w	r1, r1, r7
10002d9c:	fb54 f514 	smmulr	r5, r4, r4
10002da0:	fb55 f614 	smmulr	r6, r5, r4
10002da4:	fb55 f715 	smmulr	r7, r5, r5
10002da8:	f04f 3455 	mov.w	r4, #1431655765	@ 0x55555555
10002dac:	fb56 f614 	smmulr	r6, r6, r4
10002db0:	ebb6 3617 	subs.w	r6, r6, r7, lsr #12
10002db4:	eb10 0086 	adds.w	r0, r0, r6, lsl #2
10002db8:	eb41 71a6 	adc.w	r1, r1, r6, asr #30
10002dbc:	1a10      	subs	r0, r2, r0
10002dbe:	eb63 0101 	sbc.w	r1, r3, r1
10002dc2:	4a22      	ldr	r2, [pc, #136]	@ (10002e4c <__wrap_log+0x176>)
10002dc4:	ca24      	ldmia	r2, {r2, r5}
10002dc6:	f11c 0c01 	adds.w	ip, ip, #1
10002dca:	dd0b      	ble.n	10002de4 <__wrap_log+0x10e>
10002dcc:	fba2 230c 	umull	r2, r3, r2, ip
10002dd0:	2400      	movs	r4, #0
10002dd2:	fbe5 340c 	umlal	r3, r4, r5, ip
10002dd6:	1a12      	subs	r2, r2, r0
10002dd8:	418b      	sbcs	r3, r1
10002dda:	f164 0400 	sbc.w	r4, r4, #0
10002dde:	f05f 4180 	movs.w	r1, #1073741824	@ 0x40000000
10002de2:	e00c      	b.n	10002dfe <__wrap_log+0x128>
10002de4:	f1dc 0c00 	rsbs	ip, ip, #0
10002de8:	fba2 230c 	umull	r2, r3, r2, ip
10002dec:	2400      	movs	r4, #0
10002dee:	fbe5 340c 	umlal	r3, r4, r5, ip
10002df2:	1882      	adds	r2, r0, r2
10002df4:	414b      	adcs	r3, r1
10002df6:	f144 0400 	adc.w	r4, r4, #0
10002dfa:	f05f 4140 	movs.w	r1, #3221225472	@ 0xc0000000
10002dfe:	b94c      	cbnz	r4, 10002e14 <__wrap_log+0x13e>
10002e00:	001c      	movs	r4, r3
10002e02:	0013      	movs	r3, r2
10002e04:	2200      	movs	r2, #0
10002e06:	f1b1 7100 	subs.w	r1, r1, #33554432	@ 0x2000000
10002e0a:	b91c      	cbnz	r4, 10002e14 <__wrap_log+0x13e>
10002e0c:	001c      	movs	r4, r3
10002e0e:	2300      	movs	r3, #0
10002e10:	f1b1 7100 	subs.w	r1, r1, #33554432	@ 0x2000000
10002e14:	fab4 f584 	clz	r5, r4
10002e18:	f1a5 061d 	sub.w	r6, r5, #29
10002e1c:	eba1 5106 	sub.w	r1, r1, r6, lsl #20
10002e20:	40ac      	lsls	r4, r5
10002e22:	fa13 f005 	lsls.w	r0, r3, r5
10002e26:	f1c5 0520 	rsb	r5, r5, #32
10002e2a:	40eb      	lsrs	r3, r5
10002e2c:	431c      	orrs	r4, r3
10002e2e:	40ea      	lsrs	r2, r5
10002e30:	4310      	orrs	r0, r2
10002e32:	0ac0      	lsrs	r0, r0, #11
10002e34:	eb50 5044 	adcs.w	r0, r0, r4, lsl #21
10002e38:	eb41 21d4 	adc.w	r1, r1, r4, lsr #11
10002e3c:	e8bd 81f0 	ldmia.w	sp!, {r4, r5, r6, r7, r8, pc}
10002e40:	100028a4 	.word	0x100028a4
10002e44:	10002814 	.word	0x10002814
10002e48:	100028a4 	.word	0x100028a4
10002e4c:	100029a4 	.word	0x100029a4

10002e50 <__wrap_logf>:
10002e50:	f1b0 4fff 	cmp.w	r0, #2139095040	@ 0x7f800000
10002e54:	d23e      	bcs.n	10002ed4 <__wrap_logf+0x84>
10002e56:	15c1      	asrs	r1, r0, #23
10002e58:	d03e      	beq.n	10002ed8 <__wrap_logf+0x88>
10002e5a:	f04f 0201 	mov.w	r2, #1
10002e5e:	f362 50df 	bfi	r0, r2, #23, #9
10002e62:	bf38      	it	cc
10002e64:	0040      	lslcc	r0, r0, #1
10002e66:	a326      	add	r3, pc, #152	@ (adr r3, 10002f00 <k_log3>)
10002e68:	ec93 4a03 	vldmia	r3, {s8-s10}
10002e6c:	f2af 031c 	subw	r3, pc, #28
10002e70:	eb03 4310 	add.w	r3, r3, r0, lsr #16
10002e74:	f023 0307 	bic.w	r3, r3, #7
10002e78:	e9d3 2300 	ldrd	r2, r3, [r3]
10002e7c:	fb00 f002 	mul.w	r0, r0, r2
10002e80:	ec40 3a10 	vmov	s0, s1, r3, r0
10002e84:	eefa 0ac0 	vcvt.f32.s32	s1, s1, #32
10002e88:	ee20 1aa0 	vmul.f32	s2, s1, s1
10002e8c:	f161 017e 	sbc.w	r1, r1, #126	@ 0x7e
10002e90:	ee60 1a81 	vmul.f32	s3, s1, s2
10002e94:	05c9      	lsls	r1, r1, #23
10002e96:	ee21 2a01 	vmul.f32	s4, s2, s2
10002e9a:	f640 32fc 	movw	r2, #3068	@ 0xbfc
10002e9e:	ee21 1a04 	vmul.f32	s2, s2, s8
10002ea2:	f6c5 02b9 	movt	r2, #22713	@ 0x58b9
10002ea6:	ee61 1aa4 	vmul.f32	s3, s3, s9
10002eaa:	fb51 f112 	smmulr	r1, r1, r2
10002eae:	ee22 2a05 	vmul.f32	s4, s4, s10
10002eb2:	ee03 1a90 	vmov	s7, r1
10002eb6:	ee71 1ac2 	vsub.f32	s3, s3, s4
10002eba:	eefa 3ac5 	vcvt.f32.s32	s7, s7, #22
10002ebe:	ee31 1a61 	vsub.f32	s2, s2, s3
10002ec2:	ee70 0ac1 	vsub.f32	s1, s1, s2
10002ec6:	ee30 0a20 	vadd.f32	s0, s0, s1
10002eca:	ee30 0a23 	vadd.f32	s0, s0, s7
10002ece:	ee10 0a10 	vmov	r0, s0
10002ed2:	4770      	bx	lr
10002ed4:	dc05      	bgt.n	10002ee2 <__wrap_logf+0x92>
10002ed6:	d00b      	beq.n	10002ef0 <__wrap_logf+0xa0>
10002ed8:	f110 4fff 	cmn.w	r0, #2139095040	@ 0x7f800000
10002edc:	d309      	bcc.n	10002ef2 <__wrap_logf+0xa2>
10002ede:	f510 0f00 	cmn.w	r0, #8388608	@ 0x800000
10002ee2:	f440 0080 	orr.w	r0, r0, #4194304	@ 0x400000
10002ee6:	d803      	bhi.n	10002ef0 <__wrap_logf+0xa0>
10002ee8:	f240 0000 	movw	r0, #0
10002eec:	f6cf 70c0 	movt	r0, #65472	@ 0xffc0
10002ef0:	4770      	bx	lr
10002ef2:	f240 0000 	movw	r0, #0
10002ef6:	f6cf 7080 	movt	r0, #65408	@ 0xff80
10002efa:	4770      	bx	lr
10002efc:	f3af 8000 	nop.w

10002f00 <k_log3>:
10002f00:	3f000000 	.word	0x3f000000
10002f04:	3eaaaaab 	.word	0x3eaaaaab
10002f08:	3e800000 	.word	0x3e800000
10002f0c:	00000000 	.word	0x00000000

10002f10 <logtab3>:
10002f10:	00000155 	.word	0x00000155
10002f14:	be92cb01 	.word	0xbe92cb01
10002f18:	00000148 	.word	0x00000148
10002f1c:	be7dc8c3 	.word	0xbe7dc8c3
10002f20:	0000013b 	.word	0x0000013b
10002f24:	be545f68 	.word	0xbe545f68
10002f28:	0000012f 	.word	0x0000012f
10002f2c:	be2c99c7 	.word	0xbe2c99c7
10002f30:	00000125 	.word	0x00000125
10002f34:	be0a3c2c 	.word	0xbe0a3c2c
10002f38:	0000011a 	.word	0x0000011a
10002f3c:	bdc61a2f 	.word	0xbdc61a2f
10002f40:	00000111 	.word	0x00000111
10002f44:	bd83acc2 	.word	0xbd83acc2
10002f48:	00000108 	.word	0x00000108
10002f4c:	bcfc14d8 	.word	0xbcfc14d8
10002f50:	00000100 	.word	0x00000100
10002f54:	00000000 	.word	0x00000000
10002f58:	000000f8 	.word	0x000000f8
10002f5c:	3d020aec 	.word	0x3d020aec
10002f60:	000000f1 	.word	0x000000f1
10002f64:	3d77518e 	.word	0x3d77518e
10002f68:	000000ea 	.word	0x000000ea
10002f6c:	3db80698 	.word	0x3db80698
10002f70:	000000e4 	.word	0x000000e4
10002f74:	3ded393b 	.word	0x3ded393b
10002f78:	000000dd 	.word	0x000000dd
10002f7c:	3e168b08 	.word	0x3e168b08
10002f80:	000000d8 	.word	0x000000d8
10002f84:	3e2dfa03 	.word	0x3e2dfa03
10002f88:	000000d2 	.word	0x000000d2
10002f8c:	3e4ad2d7 	.word	0x3e4ad2d7
10002f90:	000000cd 	.word	0x000000cd
10002f94:	3e637fde 	.word	0x3e637fde
10002f98:	000000c8 	.word	0x000000c8
10002f9c:	3e7cc8e3 	.word	0x3e7cc8e3
10002fa0:	000000c3 	.word	0x000000c3
10002fa4:	3e8b5ae6 	.word	0x3e8b5ae6
10002fa8:	000000bf 	.word	0x000000bf
10002fac:	3e95f784 	.word	0x3e95f784
10002fb0:	000000ba 	.word	0x000000ba
10002fb4:	3ea38c6e 	.word	0x3ea38c6e
10002fb8:	000000b6 	.word	0x000000b6
10002fbc:	3eaeadef 	.word	0x3eaeadef
10002fc0:	000000b2 	.word	0x000000b2
10002fc4:	3eba0ec4 	.word	0x3eba0ec4
10002fc8:	000000ae 	.word	0x000000ae
10002fcc:	3ec5b1cd 	.word	0x3ec5b1cd
10002fd0:	000000ab 	.word	0x000000ab
10002fd4:	3ece995f 	.word	0x3ece995f

10002fd8 <__wrap_malloc>:
10002fd8:	b538      	push	{r3, r4, r5, lr}
10002fda:	4604      	mov	r4, r0
10002fdc:	4809      	ldr	r0, [pc, #36]	@ (10003004 <__wrap_malloc+0x2c>)
10002fde:	f005 fbcf 	bl	10008780 <__mutex_enter_blocking_veneer>
10002fe2:	4620      	mov	r0, r4
10002fe4:	f004 fa72 	bl	100074cc <malloc>
10002fe8:	4605      	mov	r5, r0
10002fea:	4806      	ldr	r0, [pc, #24]	@ (10003004 <__wrap_malloc+0x2c>)
10002fec:	f005 fbbc 	bl	10008768 <__mutex_exit_veneer>
10002ff0:	b12d      	cbz	r5, 10002ffe <__wrap_malloc+0x26>
10002ff2:	4b05      	ldr	r3, [pc, #20]	@ (10003008 <__wrap_malloc+0x30>)
10002ff4:	442c      	add	r4, r5
10002ff6:	429c      	cmp	r4, r3
10002ff8:	d801      	bhi.n	10002ffe <__wrap_malloc+0x26>
10002ffa:	4628      	mov	r0, r5
10002ffc:	bd38      	pop	{r3, r4, r5, pc}
10002ffe:	4803      	ldr	r0, [pc, #12]	@ (1000300c <__wrap_malloc+0x34>)
10003000:	f7fd fb6e 	bl	100006e0 <panic>
10003004:	20001c18 	.word	0x20001c18
10003008:	20080000 	.word	0x20080000
1000300c:	10008914 	.word	0x10008914

10003010 <_out_null>:
10003010:	4770      	bx	lr
10003012:	bf00      	nop

10003014 <_out_rev>:
10003014:	e92d 4ff0 	stmdb	sp!, {r4, r5, r6, r7, r8, r9, sl, fp, lr}
10003018:	b083      	sub	sp, #12
1000301a:	4699      	mov	r9, r3
1000301c:	e9dd ab0d 	ldrd	sl, fp, [sp, #52]	@ 0x34
10003020:	9b0f      	ldr	r3, [sp, #60]	@ 0x3c
10003022:	4688      	mov	r8, r1
10003024:	4611      	mov	r1, r2
10003026:	079a      	lsls	r2, r3, #30
10003028:	4607      	mov	r7, r0
1000302a:	d116      	bne.n	1000305a <_out_rev+0x46>
1000302c:	45da      	cmp	sl, fp
1000302e:	d23a      	bcs.n	100030a6 <_out_rev+0x92>
10003030:	460c      	mov	r4, r1
10003032:	460d      	mov	r5, r1
10003034:	ebab 060a 	sub.w	r6, fp, sl
10003038:	440e      	add	r6, r1
1000303a:	4622      	mov	r2, r4
1000303c:	464b      	mov	r3, r9
1000303e:	4641      	mov	r1, r8
10003040:	2020      	movs	r0, #32
10003042:	3401      	adds	r4, #1
10003044:	47b8      	blx	r7
10003046:	42b4      	cmp	r4, r6
10003048:	d1f7      	bne.n	1000303a <_out_rev+0x26>
1000304a:	4629      	mov	r1, r5
1000304c:	f1ba 0f00 	cmp.w	sl, #0
10003050:	d108      	bne.n	10003064 <_out_rev+0x50>
10003052:	4620      	mov	r0, r4
10003054:	b003      	add	sp, #12
10003056:	e8bd 8ff0 	ldmia.w	sp!, {r4, r5, r6, r7, r8, r9, sl, fp, pc}
1000305a:	460c      	mov	r4, r1
1000305c:	f1ba 0f00 	cmp.w	sl, #0
10003060:	d010      	beq.n	10003084 <_out_rev+0x70>
10003062:	460e      	mov	r6, r1
10003064:	4655      	mov	r5, sl
10003066:	9b0c      	ldr	r3, [sp, #48]	@ 0x30
10003068:	442e      	add	r6, r5
1000306a:	449a      	add	sl, r3
1000306c:	9101      	str	r1, [sp, #4]
1000306e:	1b72      	subs	r2, r6, r5
10003070:	464b      	mov	r3, r9
10003072:	3d01      	subs	r5, #1
10003074:	4641      	mov	r1, r8
10003076:	f81a 0d01 	ldrb.w	r0, [sl, #-1]!
1000307a:	4634      	mov	r4, r6
1000307c:	47b8      	blx	r7
1000307e:	2d00      	cmp	r5, #0
10003080:	d1f5      	bne.n	1000306e <_out_rev+0x5a>
10003082:	9901      	ldr	r1, [sp, #4]
10003084:	9b0f      	ldr	r3, [sp, #60]	@ 0x3c
10003086:	079b      	lsls	r3, r3, #30
10003088:	d5e3      	bpl.n	10003052 <_out_rev+0x3e>
1000308a:	1a65      	subs	r5, r4, r1
1000308c:	45ab      	cmp	fp, r5
1000308e:	d9e0      	bls.n	10003052 <_out_rev+0x3e>
10003090:	4622      	mov	r2, r4
10003092:	464b      	mov	r3, r9
10003094:	4641      	mov	r1, r8
10003096:	2020      	movs	r0, #32
10003098:	3501      	adds	r5, #1
1000309a:	47b8      	blx	r7
1000309c:	455d      	cmp	r5, fp
1000309e:	f104 0401 	add.w	r4, r4, #1
100030a2:	d3f5      	bcc.n	10003090 <_out_rev+0x7c>
100030a4:	e7d5      	b.n	10003052 <_out_rev+0x3e>
100030a6:	460c      	mov	r4, r1
100030a8:	f1ba 0f00 	cmp.w	sl, #0
100030ac:	d1d9      	bne.n	10003062 <_out_rev+0x4e>
100030ae:	e7d0      	b.n	10003052 <_out_rev+0x3e>

100030b0 <_ntoa_format>:
100030b0:	e92d 4ff0 	stmdb	sp!, {r4, r5, r6, r7, r8, r9, sl, fp, lr}
100030b4:	9f0f      	ldr	r7, [sp, #60]	@ 0x3c
100030b6:	f8dd 8024 	ldr.w	r8, [sp, #36]	@ 0x24
100030ba:	f017 0f02 	tst.w	r7, #2
100030be:	9c0a      	ldr	r4, [sp, #40]	@ 0x28
100030c0:	f89d a02c 	ldrb.w	sl, [sp, #44]	@ 0x2c
100030c4:	9d0e      	ldr	r5, [sp, #56]	@ 0x38
100030c6:	e9dd 960c 	ldrd	r9, r6, [sp, #48]	@ 0x30
100030ca:	d144      	bne.n	10003156 <_ntoa_format+0xa6>
100030cc:	bbf5      	cbnz	r5, 1000314c <_ntoa_format+0x9c>
100030ce:	42b4      	cmp	r4, r6
100030d0:	d241      	bcs.n	10003156 <_ntoa_format+0xa6>
100030d2:	f007 0b01 	and.w	fp, r7, #1
100030d6:	f104 3cff 	add.w	ip, r4, #4294967295	@ 0xffffffff
100030da:	f04f 0e30 	mov.w	lr, #48	@ 0x30
100030de:	44c4      	add	ip, r8
100030e0:	e004      	b.n	100030ec <_ntoa_format+0x3c>
100030e2:	3401      	adds	r4, #1
100030e4:	42a6      	cmp	r6, r4
100030e6:	f80c ef01 	strb.w	lr, [ip, #1]!
100030ea:	d901      	bls.n	100030f0 <_ntoa_format+0x40>
100030ec:	2c20      	cmp	r4, #32
100030ee:	d1f8      	bne.n	100030e2 <_ntoa_format+0x32>
100030f0:	f1bb 0f00 	cmp.w	fp, #0
100030f4:	f000 8088 	beq.w	10003208 <_ntoa_format+0x158>
100030f8:	42a5      	cmp	r5, r4
100030fa:	d92c      	bls.n	10003156 <_ntoa_format+0xa6>
100030fc:	f104 3cff 	add.w	ip, r4, #4294967295	@ 0xffffffff
10003100:	f04f 0e30 	mov.w	lr, #48	@ 0x30
10003104:	44c4      	add	ip, r8
10003106:	e004      	b.n	10003112 <_ntoa_format+0x62>
10003108:	3401      	adds	r4, #1
1000310a:	42ac      	cmp	r4, r5
1000310c:	f80c ef01 	strb.w	lr, [ip, #1]!
10003110:	d021      	beq.n	10003156 <_ntoa_format+0xa6>
10003112:	2c20      	cmp	r4, #32
10003114:	d1f8      	bne.n	10003108 <_ntoa_format+0x58>
10003116:	f017 0f10 	tst.w	r7, #16
1000311a:	d00e      	beq.n	1000313a <_ntoa_format+0x8a>
1000311c:	f417 6f80 	tst.w	r7, #1024	@ 0x400
10003120:	d154      	bne.n	100031cc <_ntoa_format+0x11c>
10003122:	42a6      	cmp	r6, r4
10003124:	d063      	beq.n	100031ee <_ntoa_format+0x13e>
10003126:	42a5      	cmp	r5, r4
10003128:	d061      	beq.n	100031ee <_ntoa_format+0x13e>
1000312a:	f1b9 0f10 	cmp.w	r9, #16
1000312e:	d050      	beq.n	100031d2 <_ntoa_format+0x122>
10003130:	f1b9 0f02 	cmp.w	r9, #2
10003134:	d056      	beq.n	100031e4 <_ntoa_format+0x134>
10003136:	2c20      	cmp	r4, #32
10003138:	d129      	bne.n	1000318e <_ntoa_format+0xde>
1000313a:	2420      	movs	r4, #32
1000313c:	e9cd 570b 	strd	r5, r7, [sp, #44]	@ 0x2c
10003140:	e9cd 8409 	strd	r8, r4, [sp, #36]	@ 0x24
10003144:	e8bd 4ff0 	ldmia.w	sp!, {r4, r5, r6, r7, r8, r9, sl, fp, lr}
10003148:	f7ff bf64 	b.w	10003014 <_out_rev>
1000314c:	f017 0b01 	ands.w	fp, r7, #1
10003150:	d134      	bne.n	100031bc <_ntoa_format+0x10c>
10003152:	42b4      	cmp	r4, r6
10003154:	d3bf      	bcc.n	100030d6 <_ntoa_format+0x26>
10003156:	f017 0f10 	tst.w	r7, #16
1000315a:	d01e      	beq.n	1000319a <_ntoa_format+0xea>
1000315c:	f417 6f80 	tst.w	r7, #1024	@ 0x400
10003160:	d1e3      	bne.n	1000312a <_ntoa_format+0x7a>
10003162:	2c00      	cmp	r4, #0
10003164:	d1dd      	bne.n	10003122 <_ntoa_format+0x72>
10003166:	f1b9 0f10 	cmp.w	r9, #16
1000316a:	d063      	beq.n	10003234 <_ntoa_format+0x184>
1000316c:	f1b9 0f02 	cmp.w	r9, #2
10003170:	d077      	beq.n	10003262 <_ntoa_format+0x1b2>
10003172:	2430      	movs	r4, #48	@ 0x30
10003174:	f888 4000 	strb.w	r4, [r8]
10003178:	2401      	movs	r4, #1
1000317a:	f1ba 0f00 	cmp.w	sl, #0
1000317e:	d111      	bne.n	100031a4 <_ntoa_format+0xf4>
10003180:	077e      	lsls	r6, r7, #29
10003182:	d548      	bpl.n	10003216 <_ntoa_format+0x166>
10003184:	262b      	movs	r6, #43	@ 0x2b
10003186:	f808 6004 	strb.w	r6, [r8, r4]
1000318a:	3401      	adds	r4, #1
1000318c:	e7d6      	b.n	1000313c <_ntoa_format+0x8c>
1000318e:	4626      	mov	r6, r4
10003190:	3401      	adds	r4, #1
10003192:	f04f 0c30 	mov.w	ip, #48	@ 0x30
10003196:	f808 c006 	strb.w	ip, [r8, r6]
1000319a:	2c20      	cmp	r4, #32
1000319c:	d0cd      	beq.n	1000313a <_ntoa_format+0x8a>
1000319e:	f1ba 0f00 	cmp.w	sl, #0
100031a2:	d0ed      	beq.n	10003180 <_ntoa_format+0xd0>
100031a4:	262d      	movs	r6, #45	@ 0x2d
100031a6:	f808 6004 	strb.w	r6, [r8, r4]
100031aa:	3401      	adds	r4, #1
100031ac:	e9cd 570b 	strd	r5, r7, [sp, #44]	@ 0x2c
100031b0:	e9cd 8409 	strd	r8, r4, [sp, #36]	@ 0x24
100031b4:	e8bd 4ff0 	ldmia.w	sp!, {r4, r5, r6, r7, r8, r9, sl, fp, lr}
100031b8:	f7ff bf2c 	b.w	10003014 <_out_rev>
100031bc:	f1ba 0f00 	cmp.w	sl, #0
100031c0:	d030      	beq.n	10003224 <_ntoa_format+0x174>
100031c2:	42b4      	cmp	r4, r6
100031c4:	f105 35ff 	add.w	r5, r5, #4294967295	@ 0xffffffff
100031c8:	d385      	bcc.n	100030d6 <_ntoa_format+0x26>
100031ca:	e795      	b.n	100030f8 <_ntoa_format+0x48>
100031cc:	f1b9 0f10 	cmp.w	r9, #16
100031d0:	d1b3      	bne.n	1000313a <_ntoa_format+0x8a>
100031d2:	06be      	lsls	r6, r7, #26
100031d4:	d53b      	bpl.n	1000324e <_ntoa_format+0x19e>
100031d6:	2c20      	cmp	r4, #32
100031d8:	d0af      	beq.n	1000313a <_ntoa_format+0x8a>
100031da:	2658      	movs	r6, #88	@ 0x58
100031dc:	f808 6004 	strb.w	r6, [r8, r4]
100031e0:	3401      	adds	r4, #1
100031e2:	e7a8      	b.n	10003136 <_ntoa_format+0x86>
100031e4:	2c20      	cmp	r4, #32
100031e6:	d0a8      	beq.n	1000313a <_ntoa_format+0x8a>
100031e8:	4626      	mov	r6, r4
100031ea:	3401      	adds	r4, #1
100031ec:	e007      	b.n	100031fe <_ntoa_format+0x14e>
100031ee:	1e66      	subs	r6, r4, #1
100031f0:	d0b9      	beq.n	10003166 <_ntoa_format+0xb6>
100031f2:	f1b9 0f10 	cmp.w	r9, #16
100031f6:	d036      	beq.n	10003266 <_ntoa_format+0x1b6>
100031f8:	f1b9 0f02 	cmp.w	r9, #2
100031fc:	d1c9      	bne.n	10003192 <_ntoa_format+0xe2>
100031fe:	f04f 0c62 	mov.w	ip, #98	@ 0x62
10003202:	f808 c006 	strb.w	ip, [r8, r6]
10003206:	e796      	b.n	10003136 <_ntoa_format+0x86>
10003208:	f017 0f10 	tst.w	r7, #16
1000320c:	d0c5      	beq.n	1000319a <_ntoa_format+0xea>
1000320e:	f417 6f80 	tst.w	r7, #1024	@ 0x400
10003212:	d086      	beq.n	10003122 <_ntoa_format+0x72>
10003214:	e789      	b.n	1000312a <_ntoa_format+0x7a>
10003216:	073e      	lsls	r6, r7, #28
10003218:	d590      	bpl.n	1000313c <_ntoa_format+0x8c>
1000321a:	2620      	movs	r6, #32
1000321c:	f808 6004 	strb.w	r6, [r8, r4]
10003220:	3401      	adds	r4, #1
10003222:	e78b      	b.n	1000313c <_ntoa_format+0x8c>
10003224:	f017 0f0c 	tst.w	r7, #12
10003228:	d000      	beq.n	1000322c <_ntoa_format+0x17c>
1000322a:	3d01      	subs	r5, #1
1000322c:	42b4      	cmp	r4, r6
1000322e:	f4ff af52 	bcc.w	100030d6 <_ntoa_format+0x26>
10003232:	e761      	b.n	100030f8 <_ntoa_format+0x48>
10003234:	06bc      	lsls	r4, r7, #26
10003236:	d412      	bmi.n	1000325e <_ntoa_format+0x1ae>
10003238:	2478      	movs	r4, #120	@ 0x78
1000323a:	f888 4000 	strb.w	r4, [r8]
1000323e:	2430      	movs	r4, #48	@ 0x30
10003240:	f888 4001 	strb.w	r4, [r8, #1]
10003244:	2402      	movs	r4, #2
10003246:	f1ba 0f00 	cmp.w	sl, #0
1000324a:	d099      	beq.n	10003180 <_ntoa_format+0xd0>
1000324c:	e7aa      	b.n	100031a4 <_ntoa_format+0xf4>
1000324e:	2c20      	cmp	r4, #32
10003250:	f43f af73 	beq.w	1000313a <_ntoa_format+0x8a>
10003254:	2678      	movs	r6, #120	@ 0x78
10003256:	f808 6004 	strb.w	r6, [r8, r4]
1000325a:	3401      	adds	r4, #1
1000325c:	e76b      	b.n	10003136 <_ntoa_format+0x86>
1000325e:	2458      	movs	r4, #88	@ 0x58
10003260:	e7eb      	b.n	1000323a <_ntoa_format+0x18a>
10003262:	2462      	movs	r4, #98	@ 0x62
10003264:	e7e9      	b.n	1000323a <_ntoa_format+0x18a>
10003266:	f017 0f20 	tst.w	r7, #32
1000326a:	f1a4 0c02 	sub.w	ip, r4, #2
1000326e:	d004      	beq.n	1000327a <_ntoa_format+0x1ca>
10003270:	f04f 0e58 	mov.w	lr, #88	@ 0x58
10003274:	f808 e00c 	strb.w	lr, [r8, ip]
10003278:	e78b      	b.n	10003192 <_ntoa_format+0xe2>
1000327a:	f04f 0e78 	mov.w	lr, #120	@ 0x78
1000327e:	f808 e00c 	strb.w	lr, [r8, ip]
10003282:	e786      	b.n	10003192 <_ntoa_format+0xe2>

10003284 <_out_char>:
10003284:	b900      	cbnz	r0, 10003288 <_out_char+0x4>
10003286:	4770      	bx	lr
10003288:	f001 bc4c 	b.w	10004b24 <__wrap_putchar>

1000328c <_out_fct>:
1000328c:	b110      	cbz	r0, 10003294 <_out_fct+0x8>
1000328e:	e9d1 3100 	ldrd	r3, r1, [r1]
10003292:	4718      	bx	r3
10003294:	4770      	bx	lr
10003296:	bf00      	nop

10003298 <_ftoa>:
10003298:	e92d 4ff0 	stmdb	sp!, {r4, r5, r6, r7, r8, r9, sl, fp, lr}
1000329c:	b097      	sub	sp, #92	@ 0x5c
1000329e:	ed9d 7b20 	vldr	d7, [sp, #128]	@ 0x80
100032a2:	e9dd 5b22 	ldrd	r5, fp, [sp, #136]	@ 0x88
100032a6:	4607      	mov	r7, r0
100032a8:	4688      	mov	r8, r1
100032aa:	ec51 0b17 	vmov	r0, r1, d7
100032ae:	9c24      	ldr	r4, [sp, #144]	@ 0x90
100032b0:	4699      	mov	r9, r3
100032b2:	920c      	str	r2, [sp, #48]	@ 0x30
100032b4:	460b      	mov	r3, r1
100032b6:	4602      	mov	r2, r0
100032b8:	ed8d 7b04 	vstr	d7, [sp, #16]
100032bc:	9407      	str	r4, [sp, #28]
100032be:	f7ff f99f 	bl	10002600 <__wrap___aeabi_dcmpun>
100032c2:	2800      	cmp	r0, #0
100032c4:	f040 81f4 	bne.w	100036b0 <_ftoa+0x418>
100032c8:	e9dd 0104 	ldrd	r0, r1, [sp, #16]
100032cc:	f04f 32ff 	mov.w	r2, #4294967295	@ 0xffffffff
100032d0:	f46f 1380 	mvn.w	r3, #1048576	@ 0x100000
100032d4:	f7ff f9b8 	bl	10002648 <__wrap___aeabi_dcmplt>
100032d8:	2800      	cmp	r0, #0
100032da:	f040 811b 	bne.w	10003514 <_ftoa+0x27c>
100032de:	e9dd 0104 	ldrd	r0, r1, [sp, #16]
100032e2:	f04f 32ff 	mov.w	r2, #4294967295	@ 0xffffffff
100032e6:	4bac      	ldr	r3, [pc, #688]	@ (10003598 <_ftoa+0x300>)
100032e8:	f7ff f9ea 	bl	100026c0 <__wrap___aeabi_dcmpgt>
100032ec:	2800      	cmp	r0, #0
100032ee:	f040 80ee 	bne.w	100034ce <_ftoa+0x236>
100032f2:	e9dd 0104 	ldrd	r0, r1, [sp, #16]
100032f6:	a3a4      	add	r3, pc, #656	@ (adr r3, 10003588 <_ftoa+0x2f0>)
100032f8:	e9d3 2300 	ldrd	r2, r3, [r3]
100032fc:	f7ff f9e0 	bl	100026c0 <__wrap___aeabi_dcmpgt>
10003300:	2800      	cmp	r0, #0
10003302:	f040 80d3 	bne.w	100034ac <_ftoa+0x214>
10003306:	e9dd 0104 	ldrd	r0, r1, [sp, #16]
1000330a:	a3a1      	add	r3, pc, #644	@ (adr r3, 10003590 <_ftoa+0x2f8>)
1000330c:	e9d3 2300 	ldrd	r2, r3, [r3]
10003310:	f7ff f99a 	bl	10002648 <__wrap___aeabi_dcmplt>
10003314:	2800      	cmp	r0, #0
10003316:	f040 80c9 	bne.w	100034ac <_ftoa+0x214>
1000331a:	e9dd 0104 	ldrd	r0, r1, [sp, #16]
1000331e:	2200      	movs	r2, #0
10003320:	2300      	movs	r3, #0
10003322:	f7ff f991 	bl	10002648 <__wrap___aeabi_dcmplt>
10003326:	2800      	cmp	r0, #0
10003328:	f040 80e8 	bne.w	100034fc <_ftoa+0x264>
1000332c:	4623      	mov	r3, r4
1000332e:	900d      	str	r0, [sp, #52]	@ 0x34
10003330:	f413 6f80 	tst.w	r3, #1024	@ 0x400
10003334:	bf08      	it	eq
10003336:	2506      	moveq	r5, #6
10003338:	2130      	movs	r1, #48	@ 0x30
1000333a:	462b      	mov	r3, r5
1000333c:	aa0e      	add	r2, sp, #56	@ 0x38
1000333e:	f1a5 0620 	sub.w	r6, r5, #32
10003342:	e005      	b.n	10003350 <_ftoa+0xb8>
10003344:	3b01      	subs	r3, #1
10003346:	42b3      	cmp	r3, r6
10003348:	f802 1b01 	strb.w	r1, [r2], #1
1000334c:	f000 8193 	beq.w	10003676 <_ftoa+0x3de>
10003350:	2b09      	cmp	r3, #9
10003352:	d8f7      	bhi.n	10003344 <_ftoa+0xac>
10003354:	461e      	mov	r6, r3
10003356:	1aed      	subs	r5, r5, r3
10003358:	e9dd 0104 	ldrd	r0, r1, [sp, #16]
1000335c:	f7ff f92c 	bl	100025b8 <__wrap___aeabi_d2iz>
10003360:	4b8e      	ldr	r3, [pc, #568]	@ (1000359c <_ftoa+0x304>)
10003362:	4604      	mov	r4, r0
10003364:	eb03 03c6 	add.w	r3, r3, r6, lsl #3
10003368:	ed93 7b00 	vldr	d7, [r3]
1000336c:	ed8d 7b08 	vstr	d7, [sp, #32]
10003370:	f7ff f8fe 	bl	10002570 <__wrap___aeabi_i2d>
10003374:	4602      	mov	r2, r0
10003376:	460b      	mov	r3, r1
10003378:	e9dd 0104 	ldrd	r0, r1, [sp, #16]
1000337c:	f7ff f862 	bl	10002444 <__wrap___aeabi_dsub>
10003380:	e9dd 2308 	ldrd	r2, r3, [sp, #32]
10003384:	f7ff f872 	bl	1000246c <__wrap___aeabi_dmul>
10003388:	4602      	mov	r2, r0
1000338a:	460b      	mov	r3, r1
1000338c:	e9cd 230a 	strd	r2, r3, [sp, #40]	@ 0x28
10003390:	f7ff f924 	bl	100025dc <__wrap___aeabi_d2uiz>
10003394:	4682      	mov	sl, r0
10003396:	f7ff f8fd 	bl	10002594 <__wrap___aeabi_ui2d>
1000339a:	4602      	mov	r2, r0
1000339c:	460b      	mov	r3, r1
1000339e:	e9dd 010a 	ldrd	r0, r1, [sp, #40]	@ 0x28
100033a2:	f7ff f84f 	bl	10002444 <__wrap___aeabi_dsub>
100033a6:	4602      	mov	r2, r0
100033a8:	460b      	mov	r3, r1
100033aa:	e9cd 230a 	strd	r2, r3, [sp, #40]	@ 0x28
100033ae:	2200      	movs	r2, #0
100033b0:	4b7b      	ldr	r3, [pc, #492]	@ (100035a0 <_ftoa+0x308>)
100033b2:	f7ff f985 	bl	100026c0 <__wrap___aeabi_dcmpgt>
100033b6:	2800      	cmp	r0, #0
100033b8:	f000 80fe 	beq.w	100035b8 <_ftoa+0x320>
100033bc:	f10a 0a01 	add.w	sl, sl, #1
100033c0:	4650      	mov	r0, sl
100033c2:	f7ff f8e7 	bl	10002594 <__wrap___aeabi_ui2d>
100033c6:	4602      	mov	r2, r0
100033c8:	460b      	mov	r3, r1
100033ca:	e9dd 0108 	ldrd	r0, r1, [sp, #32]
100033ce:	f7ff f94f 	bl	10002670 <__wrap___aeabi_dcmple>
100033d2:	b110      	cbz	r0, 100033da <_ftoa+0x142>
100033d4:	f04f 0a00 	mov.w	sl, #0
100033d8:	3401      	adds	r4, #1
100033da:	2e00      	cmp	r6, #0
100033dc:	f000 80fd 	beq.w	100035da <_ftoa+0x342>
100033e0:	1e68      	subs	r0, r5, #1
100033e2:	ab0e      	add	r3, sp, #56	@ 0x38
100033e4:	f8df c1cc 	ldr.w	ip, [pc, #460]	@ 100035b4 <_ftoa+0x31c>
100033e8:	4418      	add	r0, r3
100033ea:	e00f      	b.n	1000340c <_ftoa+0x174>
100033ec:	fbac 210a 	umull	r2, r1, ip, sl
100033f0:	08c9      	lsrs	r1, r1, #3
100033f2:	eb01 0281 	add.w	r2, r1, r1, lsl #2
100033f6:	ebaa 0242 	sub.w	r2, sl, r2, lsl #1
100033fa:	3230      	adds	r2, #48	@ 0x30
100033fc:	f1ba 0f09 	cmp.w	sl, #9
10003400:	f800 2f01 	strb.w	r2, [r0, #1]!
10003404:	f240 811c 	bls.w	10003640 <_ftoa+0x3a8>
10003408:	468a      	mov	sl, r1
1000340a:	461d      	mov	r5, r3
1000340c:	2d20      	cmp	r5, #32
1000340e:	f105 0301 	add.w	r3, r5, #1
10003412:	f106 36ff 	add.w	r6, r6, #4294967295	@ 0xffffffff
10003416:	d1e9      	bne.n	100033ec <_ftoa+0x154>
10003418:	2520      	movs	r5, #32
1000341a:	1e69      	subs	r1, r5, #1
1000341c:	ab0e      	add	r3, sp, #56	@ 0x38
1000341e:	4861      	ldr	r0, [pc, #388]	@ (100035a4 <_ftoa+0x30c>)
10003420:	4419      	add	r1, r3
10003422:	e010      	b.n	10003446 <_ftoa+0x1ae>
10003424:	fb80 6204 	smull	r6, r2, r0, r4
10003428:	ebc3 03a2 	rsb	r3, r3, r2, asr #2
1000342c:	eb03 0283 	add.w	r2, r3, r3, lsl #2
10003430:	eba4 0442 	sub.w	r4, r4, r2, lsl #1
10003434:	f104 0230 	add.w	r2, r4, #48	@ 0x30
10003438:	3501      	adds	r5, #1
1000343a:	461c      	mov	r4, r3
1000343c:	f801 2f01 	strb.w	r2, [r1, #1]!
10003440:	2b00      	cmp	r3, #0
10003442:	f000 80eb 	beq.w	1000361c <_ftoa+0x384>
10003446:	2d20      	cmp	r5, #32
10003448:	ea4f 73e4 	mov.w	r3, r4, asr #31
1000344c:	d1ea      	bne.n	10003424 <_ftoa+0x18c>
1000344e:	9b07      	ldr	r3, [sp, #28]
10003450:	f003 0303 	and.w	r3, r3, #3
10003454:	2b01      	cmp	r3, #1
10003456:	d118      	bne.n	1000348a <_ftoa+0x1f2>
10003458:	f1bb 0f00 	cmp.w	fp, #0
1000345c:	d015      	beq.n	1000348a <_ftoa+0x1f2>
1000345e:	9b0d      	ldr	r3, [sp, #52]	@ 0x34
10003460:	2b00      	cmp	r3, #0
10003462:	f000 810a 	beq.w	1000367a <_ftoa+0x3e2>
10003466:	f10b 3bff 	add.w	fp, fp, #4294967295	@ 0xffffffff
1000346a:	f1bb 0f20 	cmp.w	fp, #32
1000346e:	d90c      	bls.n	1000348a <_ftoa+0x1f2>
10003470:	1e6b      	subs	r3, r5, #1
10003472:	a90e      	add	r1, sp, #56	@ 0x38
10003474:	2230      	movs	r2, #48	@ 0x30
10003476:	440b      	add	r3, r1
10003478:	e005      	b.n	10003486 <_ftoa+0x1ee>
1000347a:	3501      	adds	r5, #1
1000347c:	455d      	cmp	r5, fp
1000347e:	f803 2f01 	strb.w	r2, [r3, #1]!
10003482:	f080 80d1 	bcs.w	10003628 <_ftoa+0x390>
10003486:	2d20      	cmp	r5, #32
10003488:	d1f7      	bne.n	1000347a <_ftoa+0x1e2>
1000348a:	9b07      	ldr	r3, [sp, #28]
1000348c:	ac0e      	add	r4, sp, #56	@ 0x38
1000348e:	e9cd b302 	strd	fp, r3, [sp, #8]
10003492:	4641      	mov	r1, r8
10003494:	464b      	mov	r3, r9
10003496:	4638      	mov	r0, r7
10003498:	9a0c      	ldr	r2, [sp, #48]	@ 0x30
1000349a:	9501      	str	r5, [sp, #4]
1000349c:	9400      	str	r4, [sp, #0]
1000349e:	f7ff fdb9 	bl	10003014 <_out_rev>
100034a2:	4682      	mov	sl, r0
100034a4:	4650      	mov	r0, sl
100034a6:	b017      	add	sp, #92	@ 0x5c
100034a8:	e8bd 8ff0 	ldmia.w	sp!, {r4, r5, r6, r7, r8, r9, sl, fp, pc}
100034ac:	9b07      	ldr	r3, [sp, #28]
100034ae:	ed9d 7b04 	vldr	d7, [sp, #16]
100034b2:	e9cd b323 	strd	fp, r3, [sp, #140]	@ 0x8c
100034b6:	4641      	mov	r1, r8
100034b8:	464b      	mov	r3, r9
100034ba:	4638      	mov	r0, r7
100034bc:	9a0c      	ldr	r2, [sp, #48]	@ 0x30
100034be:	ed8d 7b20 	vstr	d7, [sp, #128]	@ 0x80
100034c2:	9522      	str	r5, [sp, #136]	@ 0x88
100034c4:	b017      	add	sp, #92	@ 0x5c
100034c6:	e8bd 4ff0 	ldmia.w	sp!, {r4, r5, r6, r7, r8, r9, sl, fp, lr}
100034ca:	f000 b945 	b.w	10003758 <_etoa>
100034ce:	0761      	lsls	r1, r4, #29
100034d0:	4623      	mov	r3, r4
100034d2:	bf4c      	ite	mi
100034d4:	2304      	movmi	r3, #4
100034d6:	2303      	movpl	r3, #3
100034d8:	4641      	mov	r1, r8
100034da:	9321      	str	r3, [sp, #132]	@ 0x84
100034dc:	4638      	mov	r0, r7
100034de:	464b      	mov	r3, r9
100034e0:	9a07      	ldr	r2, [sp, #28]
100034e2:	bf48      	it	mi
100034e4:	4c30      	ldrmi	r4, [pc, #192]	@ (100035a8 <_ftoa+0x310>)
100034e6:	e9cd b222 	strd	fp, r2, [sp, #136]	@ 0x88
100034ea:	bf58      	it	pl
100034ec:	4c2f      	ldrpl	r4, [pc, #188]	@ (100035ac <_ftoa+0x314>)
100034ee:	9a0c      	ldr	r2, [sp, #48]	@ 0x30
100034f0:	9420      	str	r4, [sp, #128]	@ 0x80
100034f2:	b017      	add	sp, #92	@ 0x5c
100034f4:	e8bd 4ff0 	ldmia.w	sp!, {r4, r5, r6, r7, r8, r9, sl, fp, lr}
100034f8:	f7ff bd8c 	b.w	10003014 <_out_rev>
100034fc:	e9dd 2304 	ldrd	r2, r3, [sp, #16]
10003500:	2000      	movs	r0, #0
10003502:	2100      	movs	r1, #0
10003504:	f7fe ff9e 	bl	10002444 <__wrap___aeabi_dsub>
10003508:	2301      	movs	r3, #1
1000350a:	e9cd 0104 	strd	r0, r1, [sp, #16]
1000350e:	930d      	str	r3, [sp, #52]	@ 0x34
10003510:	4623      	mov	r3, r4
10003512:	e70d      	b.n	10003330 <_ftoa+0x98>
10003514:	4623      	mov	r3, r4
10003516:	079c      	lsls	r4, r3, #30
10003518:	f040 80aa 	bne.w	10003670 <_ftoa+0x3d8>
1000351c:	f1bb 0f04 	cmp.w	fp, #4
10003520:	f240 80a6 	bls.w	10003670 <_ftoa+0x3d8>
10003524:	9b0c      	ldr	r3, [sp, #48]	@ 0x30
10003526:	461d      	mov	r5, r3
10003528:	1f1c      	subs	r4, r3, #4
1000352a:	eb04 0a0b 	add.w	sl, r4, fp
1000352e:	462a      	mov	r2, r5
10003530:	464b      	mov	r3, r9
10003532:	4641      	mov	r1, r8
10003534:	2020      	movs	r0, #32
10003536:	3501      	adds	r5, #1
10003538:	47b8      	blx	r7
1000353a:	45aa      	cmp	sl, r5
1000353c:	d1f7      	bne.n	1000352e <_ftoa+0x296>
1000353e:	4655      	mov	r5, sl
10003540:	4c1b      	ldr	r4, [pc, #108]	@ (100035b0 <_ftoa+0x318>)
10003542:	1f26      	subs	r6, r4, #4
10003544:	f814 0d01 	ldrb.w	r0, [r4, #-1]!
10003548:	462a      	mov	r2, r5
1000354a:	464b      	mov	r3, r9
1000354c:	4641      	mov	r1, r8
1000354e:	47b8      	blx	r7
10003550:	42b4      	cmp	r4, r6
10003552:	f105 0501 	add.w	r5, r5, #1
10003556:	d1f5      	bne.n	10003544 <_ftoa+0x2ac>
10003558:	9b07      	ldr	r3, [sp, #28]
1000355a:	f10a 0a04 	add.w	sl, sl, #4
1000355e:	0798      	lsls	r0, r3, #30
10003560:	d5a0      	bpl.n	100034a4 <_ftoa+0x20c>
10003562:	9c0c      	ldr	r4, [sp, #48]	@ 0x30
10003564:	ebaa 0304 	sub.w	r3, sl, r4
10003568:	459b      	cmp	fp, r3
1000356a:	d99b      	bls.n	100034a4 <_ftoa+0x20c>
1000356c:	4652      	mov	r2, sl
1000356e:	464b      	mov	r3, r9
10003570:	4641      	mov	r1, r8
10003572:	2020      	movs	r0, #32
10003574:	f10a 0a01 	add.w	sl, sl, #1
10003578:	47b8      	blx	r7
1000357a:	ebaa 0304 	sub.w	r3, sl, r4
1000357e:	455b      	cmp	r3, fp
10003580:	d3f4      	bcc.n	1000356c <_ftoa+0x2d4>
10003582:	e78f      	b.n	100034a4 <_ftoa+0x20c>
10003584:	f3af 8000 	nop.w
10003588:	00000000 	.word	0x00000000
1000358c:	41cdcd65 	.word	0x41cdcd65
10003590:	00000000 	.word	0x00000000
10003594:	c1cdcd65 	.word	0xc1cdcd65
10003598:	7fefffff 	.word	0x7fefffff
1000359c:	10008a78 	.word	0x10008a78
100035a0:	3fe00000 	.word	0x3fe00000
100035a4:	66666667 	.word	0x66666667
100035a8:	10008964 	.word	0x10008964
100035ac:	1000896c 	.word	0x1000896c
100035b0:	10008978 	.word	0x10008978
100035b4:	cccccccd 	.word	0xcccccccd
100035b8:	2200      	movs	r2, #0
100035ba:	e9dd 010a 	ldrd	r0, r1, [sp, #40]	@ 0x28
100035be:	4b63      	ldr	r3, [pc, #396]	@ (1000374c <_ftoa+0x4b4>)
100035c0:	f7ff f842 	bl	10002648 <__wrap___aeabi_dcmplt>
100035c4:	2800      	cmp	r0, #0
100035c6:	f47f af08 	bne.w	100033da <_ftoa+0x142>
100035ca:	f1ba 0f00 	cmp.w	sl, #0
100035ce:	d16a      	bne.n	100036a6 <_ftoa+0x40e>
100035d0:	f10a 0a01 	add.w	sl, sl, #1
100035d4:	2e00      	cmp	r6, #0
100035d6:	f47f af03 	bne.w	100033e0 <_ftoa+0x148>
100035da:	4620      	mov	r0, r4
100035dc:	f7fe ffc8 	bl	10002570 <__wrap___aeabi_i2d>
100035e0:	4602      	mov	r2, r0
100035e2:	460b      	mov	r3, r1
100035e4:	e9dd 0104 	ldrd	r0, r1, [sp, #16]
100035e8:	f7fe ff2c 	bl	10002444 <__wrap___aeabi_dsub>
100035ec:	4602      	mov	r2, r0
100035ee:	460b      	mov	r3, r1
100035f0:	e9cd 2304 	strd	r2, r3, [sp, #16]
100035f4:	2200      	movs	r2, #0
100035f6:	4b55      	ldr	r3, [pc, #340]	@ (1000374c <_ftoa+0x4b4>)
100035f8:	f7ff f826 	bl	10002648 <__wrap___aeabi_dcmplt>
100035fc:	2800      	cmp	r0, #0
100035fe:	f47f af0c 	bne.w	1000341a <_ftoa+0x182>
10003602:	e9dd 0104 	ldrd	r0, r1, [sp, #16]
10003606:	2200      	movs	r2, #0
10003608:	4b50      	ldr	r3, [pc, #320]	@ (1000374c <_ftoa+0x4b4>)
1000360a:	f7ff f859 	bl	100026c0 <__wrap___aeabi_dcmpgt>
1000360e:	2800      	cmp	r0, #0
10003610:	f47f af03 	bne.w	1000341a <_ftoa+0x182>
10003614:	3401      	adds	r4, #1
10003616:	f024 0401 	bic.w	r4, r4, #1
1000361a:	e6fe      	b.n	1000341a <_ftoa+0x182>
1000361c:	9b07      	ldr	r3, [sp, #28]
1000361e:	f003 0303 	and.w	r3, r3, #3
10003622:	2b01      	cmp	r3, #1
10003624:	f000 8082 	beq.w	1000372c <_ftoa+0x494>
10003628:	2d20      	cmp	r5, #32
1000362a:	f43f af2e 	beq.w	1000348a <_ftoa+0x1f2>
1000362e:	9b0d      	ldr	r3, [sp, #52]	@ 0x34
10003630:	b37b      	cbz	r3, 10003692 <_ftoa+0x3fa>
10003632:	222d      	movs	r2, #45	@ 0x2d
10003634:	eb0d 0305 	add.w	r3, sp, r5
10003638:	f883 2038 	strb.w	r2, [r3, #56]	@ 0x38
1000363c:	3501      	adds	r5, #1
1000363e:	e724      	b.n	1000348a <_ftoa+0x1f2>
10003640:	2b20      	cmp	r3, #32
10003642:	f43f aee9 	beq.w	10003418 <_ftoa+0x180>
10003646:	aa0e      	add	r2, sp, #56	@ 0x38
10003648:	4415      	add	r5, r2
1000364a:	441e      	add	r6, r3
1000364c:	2230      	movs	r2, #48	@ 0x30
1000364e:	e004      	b.n	1000365a <_ftoa+0x3c2>
10003650:	2b20      	cmp	r3, #32
10003652:	f805 2f01 	strb.w	r2, [r5, #1]!
10003656:	f43f aedf 	beq.w	10003418 <_ftoa+0x180>
1000365a:	429e      	cmp	r6, r3
1000365c:	f103 0301 	add.w	r3, r3, #1
10003660:	d1f6      	bne.n	10003650 <_ftoa+0x3b8>
10003662:	222e      	movs	r2, #46	@ 0x2e
10003664:	eb0d 0306 	add.w	r3, sp, r6
10003668:	f883 2038 	strb.w	r2, [r3, #56]	@ 0x38
1000366c:	1c75      	adds	r5, r6, #1
1000366e:	e6d4      	b.n	1000341a <_ftoa+0x182>
10003670:	f8dd a030 	ldr.w	sl, [sp, #48]	@ 0x30
10003674:	e763      	b.n	1000353e <_ftoa+0x2a6>
10003676:	2520      	movs	r5, #32
10003678:	e66e      	b.n	10003358 <_ftoa+0xc0>
1000367a:	9b07      	ldr	r3, [sp, #28]
1000367c:	f013 0f0c 	tst.w	r3, #12
10003680:	d050      	beq.n	10003724 <_ftoa+0x48c>
10003682:	f10b 3bff 	add.w	fp, fp, #4294967295	@ 0xffffffff
10003686:	45ab      	cmp	fp, r5
10003688:	f63f aef2 	bhi.w	10003470 <_ftoa+0x1d8>
1000368c:	2d20      	cmp	r5, #32
1000368e:	f43f aefc 	beq.w	1000348a <_ftoa+0x1f2>
10003692:	9b07      	ldr	r3, [sp, #28]
10003694:	075a      	lsls	r2, r3, #29
10003696:	d501      	bpl.n	1000369c <_ftoa+0x404>
10003698:	222b      	movs	r2, #43	@ 0x2b
1000369a:	e7cb      	b.n	10003634 <_ftoa+0x39c>
1000369c:	071b      	lsls	r3, r3, #28
1000369e:	f57f aef4 	bpl.w	1000348a <_ftoa+0x1f2>
100036a2:	2220      	movs	r2, #32
100036a4:	e7c6      	b.n	10003634 <_ftoa+0x39c>
100036a6:	f01a 0f01 	tst.w	sl, #1
100036aa:	f43f ae96 	beq.w	100033da <_ftoa+0x142>
100036ae:	e78f      	b.n	100035d0 <_ftoa+0x338>
100036b0:	07a6      	lsls	r6, r4, #30
100036b2:	d134      	bne.n	1000371e <_ftoa+0x486>
100036b4:	f1bb 0f03 	cmp.w	fp, #3
100036b8:	d931      	bls.n	1000371e <_ftoa+0x486>
100036ba:	9b0c      	ldr	r3, [sp, #48]	@ 0x30
100036bc:	461d      	mov	r5, r3
100036be:	1edc      	subs	r4, r3, #3
100036c0:	eb04 0a0b 	add.w	sl, r4, fp
100036c4:	462a      	mov	r2, r5
100036c6:	464b      	mov	r3, r9
100036c8:	4641      	mov	r1, r8
100036ca:	2020      	movs	r0, #32
100036cc:	3501      	adds	r5, #1
100036ce:	47b8      	blx	r7
100036d0:	4555      	cmp	r5, sl
100036d2:	d1f7      	bne.n	100036c4 <_ftoa+0x42c>
100036d4:	4655      	mov	r5, sl
100036d6:	4c1e      	ldr	r4, [pc, #120]	@ (10003750 <_ftoa+0x4b8>)
100036d8:	1ee6      	subs	r6, r4, #3
100036da:	f814 0d01 	ldrb.w	r0, [r4, #-1]!
100036de:	462a      	mov	r2, r5
100036e0:	464b      	mov	r3, r9
100036e2:	4641      	mov	r1, r8
100036e4:	47b8      	blx	r7
100036e6:	42a6      	cmp	r6, r4
100036e8:	f105 0501 	add.w	r5, r5, #1
100036ec:	d1f5      	bne.n	100036da <_ftoa+0x442>
100036ee:	9b07      	ldr	r3, [sp, #28]
100036f0:	f10a 0a03 	add.w	sl, sl, #3
100036f4:	079d      	lsls	r5, r3, #30
100036f6:	f57f aed5 	bpl.w	100034a4 <_ftoa+0x20c>
100036fa:	9c0c      	ldr	r4, [sp, #48]	@ 0x30
100036fc:	ebaa 0304 	sub.w	r3, sl, r4
10003700:	459b      	cmp	fp, r3
10003702:	f67f aecf 	bls.w	100034a4 <_ftoa+0x20c>
10003706:	4652      	mov	r2, sl
10003708:	464b      	mov	r3, r9
1000370a:	4641      	mov	r1, r8
1000370c:	2020      	movs	r0, #32
1000370e:	f10a 0a01 	add.w	sl, sl, #1
10003712:	47b8      	blx	r7
10003714:	ebaa 0304 	sub.w	r3, sl, r4
10003718:	459b      	cmp	fp, r3
1000371a:	d8f4      	bhi.n	10003706 <_ftoa+0x46e>
1000371c:	e6c2      	b.n	100034a4 <_ftoa+0x20c>
1000371e:	f8dd a030 	ldr.w	sl, [sp, #48]	@ 0x30
10003722:	e7d7      	b.n	100036d4 <_ftoa+0x43c>
10003724:	45ab      	cmp	fp, r5
10003726:	f63f aea3 	bhi.w	10003470 <_ftoa+0x1d8>
1000372a:	e6ae      	b.n	1000348a <_ftoa+0x1f2>
1000372c:	f1bb 0f00 	cmp.w	fp, #0
10003730:	f43f af7a 	beq.w	10003628 <_ftoa+0x390>
10003734:	9b0d      	ldr	r3, [sp, #52]	@ 0x34
10003736:	2b00      	cmp	r3, #0
10003738:	d09f      	beq.n	1000367a <_ftoa+0x3e2>
1000373a:	f10b 3bff 	add.w	fp, fp, #4294967295	@ 0xffffffff
1000373e:	455d      	cmp	r5, fp
10003740:	f4ff ae96 	bcc.w	10003470 <_ftoa+0x1d8>
10003744:	2d20      	cmp	r5, #32
10003746:	f47f af74 	bne.w	10003632 <_ftoa+0x39a>
1000374a:	e69e      	b.n	1000348a <_ftoa+0x1f2>
1000374c:	3fe00000 	.word	0x3fe00000
10003750:	10008973 	.word	0x10008973
10003754:	00000000 	.word	0x00000000

10003758 <_etoa>:
10003758:	e92d 4ff0 	stmdb	sp!, {r4, r5, r6, r7, r8, r9, sl, fp, lr}
1000375c:	b09f      	sub	sp, #124	@ 0x7c
1000375e:	9e2a      	ldr	r6, [sp, #168]	@ 0xa8
10003760:	e9dd 4528 	ldrd	r4, r5, [sp, #160]	@ 0xa0
10003764:	4607      	mov	r7, r0
10003766:	4693      	mov	fp, r2
10003768:	9108      	str	r1, [sp, #32]
1000376a:	9309      	str	r3, [sp, #36]	@ 0x24
1000376c:	4622      	mov	r2, r4
1000376e:	462b      	mov	r3, r5
10003770:	4620      	mov	r0, r4
10003772:	4629      	mov	r1, r5
10003774:	960e      	str	r6, [sp, #56]	@ 0x38
10003776:	e9dd a62b 	ldrd	sl, r6, [sp, #172]	@ 0xac
1000377a:	f7fe ff41 	bl	10002600 <__wrap___aeabi_dcmpun>
1000377e:	2800      	cmp	r0, #0
10003780:	f040 80be 	bne.w	10003900 <_etoa+0x1a8>
10003784:	4620      	mov	r0, r4
10003786:	4629      	mov	r1, r5
10003788:	f04f 32ff 	mov.w	r2, #4294967295	@ 0xffffffff
1000378c:	4b78      	ldr	r3, [pc, #480]	@ (10003970 <_etoa+0x218>)
1000378e:	f7fe ff97 	bl	100026c0 <__wrap___aeabi_dcmpgt>
10003792:	2800      	cmp	r0, #0
10003794:	f040 80b4 	bne.w	10003900 <_etoa+0x1a8>
10003798:	4620      	mov	r0, r4
1000379a:	4629      	mov	r1, r5
1000379c:	f04f 32ff 	mov.w	r2, #4294967295	@ 0xffffffff
100037a0:	f46f 1380 	mvn.w	r3, #1048576	@ 0x100000
100037a4:	f7fe ff50 	bl	10002648 <__wrap___aeabi_dcmplt>
100037a8:	2800      	cmp	r0, #0
100037aa:	f040 80a9 	bne.w	10003900 <_etoa+0x1a8>
100037ae:	4620      	mov	r0, r4
100037b0:	4629      	mov	r1, r5
100037b2:	2200      	movs	r2, #0
100037b4:	2300      	movs	r3, #0
100037b6:	f7fe ff47 	bl	10002648 <__wrap___aeabi_dcmplt>
100037ba:	2800      	cmp	r0, #0
100037bc:	f040 81d5 	bne.w	10003b6a <_etoa+0x412>
100037c0:	e9cd 450a 	strd	r4, r5, [sp, #40]	@ 0x28
100037c4:	e9dd 230a 	ldrd	r2, r3, [sp, #40]	@ 0x28
100037c8:	4690      	mov	r8, r2
100037ca:	4699      	mov	r9, r3
100037cc:	f406 6200 	and.w	r2, r6, #2048	@ 0x800
100037d0:	f416 6380 	ands.w	r3, r6, #1024	@ 0x400
100037d4:	920f      	str	r2, [sp, #60]	@ 0x3c
100037d6:	9313      	str	r3, [sp, #76]	@ 0x4c
100037d8:	f040 80a1 	bne.w	1000391e <_etoa+0x1c6>
100037dc:	ea58 0309 	orrs.w	r3, r8, r9
100037e0:	f040 80ca 	bne.w	10003978 <_etoa+0x220>
100037e4:	2a00      	cmp	r2, #0
100037e6:	f040 81e3 	bne.w	10003bb0 <_etoa+0x458>
100037ea:	2306      	movs	r3, #6
100037ec:	930e      	str	r3, [sp, #56]	@ 0x38
100037ee:	f016 0202 	ands.w	r2, r6, #2
100037f2:	9210      	str	r2, [sp, #64]	@ 0x40
100037f4:	f040 81d4 	bne.w	10003ba0 <_etoa+0x448>
100037f8:	4653      	mov	r3, sl
100037fa:	2b04      	cmp	r3, #4
100037fc:	bf38      	it	cc
100037fe:	2304      	movcc	r3, #4
10003800:	920c      	str	r2, [sp, #48]	@ 0x30
10003802:	2204      	movs	r2, #4
10003804:	3b04      	subs	r3, #4
10003806:	9212      	str	r2, [sp, #72]	@ 0x48
10003808:	930f      	str	r3, [sp, #60]	@ 0x3c
1000380a:	4620      	mov	r0, r4
1000380c:	4629      	mov	r1, r5
1000380e:	2200      	movs	r2, #0
10003810:	2300      	movs	r3, #0
10003812:	f7fe ff19 	bl	10002648 <__wrap___aeabi_dcmplt>
10003816:	2800      	cmp	r0, #0
10003818:	f040 81f3 	bne.w	10003c02 <_etoa+0x4aa>
1000381c:	ed9d 7b0a 	vldr	d7, [sp, #40]	@ 0x28
10003820:	9b0f      	ldr	r3, [sp, #60]	@ 0x3c
10003822:	465a      	mov	r2, fp
10003824:	9303      	str	r3, [sp, #12]
10003826:	9b0e      	ldr	r3, [sp, #56]	@ 0x38
10003828:	ed8d 7b00 	vstr	d7, [sp]
1000382c:	9302      	str	r3, [sp, #8]
1000382e:	f426 6300 	bic.w	r3, r6, #2048	@ 0x800
10003832:	9304      	str	r3, [sp, #16]
10003834:	4638      	mov	r0, r7
10003836:	9b09      	ldr	r3, [sp, #36]	@ 0x24
10003838:	9908      	ldr	r1, [sp, #32]
1000383a:	f7ff fd2d 	bl	10003298 <_ftoa>
1000383e:	4602      	mov	r2, r0
10003840:	f016 0f20 	tst.w	r6, #32
10003844:	9b09      	ldr	r3, [sp, #36]	@ 0x24
10003846:	9908      	ldr	r1, [sp, #32]
10003848:	bf0c      	ite	eq
1000384a:	2065      	moveq	r0, #101	@ 0x65
1000384c:	2045      	movne	r0, #69	@ 0x45
1000384e:	f102 0801 	add.w	r8, r2, #1
10003852:	47b8      	blx	r7
10003854:	9a0c      	ldr	r2, [sp, #48]	@ 0x30
10003856:	9b12      	ldr	r3, [sp, #72]	@ 0x48
10003858:	ac16      	add	r4, sp, #88	@ 0x58
1000385a:	1e5d      	subs	r5, r3, #1
1000385c:	ea82 73e2 	eor.w	r3, r2, r2, asr #31
10003860:	eba3 73e2 	sub.w	r3, r3, r2, asr #31
10003864:	0fd1      	lsrs	r1, r2, #31
10003866:	2600      	movs	r6, #0
10003868:	4622      	mov	r2, r4
1000386a:	4699      	mov	r9, r3
1000386c:	f8df c104 	ldr.w	ip, [pc, #260]	@ 10003974 <_etoa+0x21c>
10003870:	e001      	b.n	10003876 <_etoa+0x11e>
10003872:	2e20      	cmp	r6, #32
10003874:	d010      	beq.n	10003898 <_etoa+0x140>
10003876:	46ce      	mov	lr, r9
10003878:	fbac 3009 	umull	r3, r0, ip, r9
1000387c:	08c0      	lsrs	r0, r0, #3
1000387e:	eb00 0380 	add.w	r3, r0, r0, lsl #2
10003882:	eba9 0343 	sub.w	r3, r9, r3, lsl #1
10003886:	3330      	adds	r3, #48	@ 0x30
10003888:	f1be 0f09 	cmp.w	lr, #9
1000388c:	4681      	mov	r9, r0
1000388e:	f106 0601 	add.w	r6, r6, #1
10003892:	f802 3b01 	strb.w	r3, [r2], #1
10003896:	d8ec      	bhi.n	10003872 <_etoa+0x11a>
10003898:	2305      	movs	r3, #5
1000389a:	2000      	movs	r0, #0
1000389c:	9306      	str	r3, [sp, #24]
1000389e:	230a      	movs	r3, #10
100038a0:	9505      	str	r5, [sp, #20]
100038a2:	9400      	str	r4, [sp, #0]
100038a4:	9d09      	ldr	r5, [sp, #36]	@ 0x24
100038a6:	9c08      	ldr	r4, [sp, #32]
100038a8:	4642      	mov	r2, r8
100038aa:	e9cd 3003 	strd	r3, r0, [sp, #12]
100038ae:	e9cd 6101 	strd	r6, r1, [sp, #4]
100038b2:	462b      	mov	r3, r5
100038b4:	4621      	mov	r1, r4
100038b6:	4638      	mov	r0, r7
100038b8:	f7ff fbfa 	bl	100030b0 <_ntoa_format>
100038bc:	9a10      	ldr	r2, [sp, #64]	@ 0x40
100038be:	4680      	mov	r8, r0
100038c0:	b1d2      	cbz	r2, 100038f8 <_etoa+0x1a0>
100038c2:	eba0 060b 	sub.w	r6, r0, fp
100038c6:	45b2      	cmp	sl, r6
100038c8:	d916      	bls.n	100038f8 <_etoa+0x1a0>
100038ca:	eb0b 0206 	add.w	r2, fp, r6
100038ce:	462b      	mov	r3, r5
100038d0:	4621      	mov	r1, r4
100038d2:	2020      	movs	r0, #32
100038d4:	3601      	adds	r6, #1
100038d6:	47b8      	blx	r7
100038d8:	45b2      	cmp	sl, r6
100038da:	d8f6      	bhi.n	100038ca <_etoa+0x172>
100038dc:	f10b 33ff 	add.w	r3, fp, #4294967295	@ 0xffffffff
100038e0:	4453      	add	r3, sl
100038e2:	f1cb 0201 	rsb	r2, fp, #1
100038e6:	eba3 0308 	sub.w	r3, r3, r8
100038ea:	4442      	add	r2, r8
100038ec:	4592      	cmp	sl, r2
100038ee:	bf38      	it	cc
100038f0:	2300      	movcc	r3, #0
100038f2:	f108 0801 	add.w	r8, r8, #1
100038f6:	4498      	add	r8, r3
100038f8:	4640      	mov	r0, r8
100038fa:	b01f      	add	sp, #124	@ 0x7c
100038fc:	e8bd 8ff0 	ldmia.w	sp!, {r4, r5, r6, r7, r8, r9, sl, fp, pc}
10003900:	465a      	mov	r2, fp
10003902:	4638      	mov	r0, r7
10003904:	e9cd 4528 	strd	r4, r5, [sp, #160]	@ 0xa0
10003908:	e9cd a62b 	strd	sl, r6, [sp, #172]	@ 0xac
1000390c:	9c0e      	ldr	r4, [sp, #56]	@ 0x38
1000390e:	9b09      	ldr	r3, [sp, #36]	@ 0x24
10003910:	9908      	ldr	r1, [sp, #32]
10003912:	942a      	str	r4, [sp, #168]	@ 0xa8
10003914:	b01f      	add	sp, #124	@ 0x7c
10003916:	e8bd 4ff0 	ldmia.w	sp!, {r4, r5, r6, r7, r8, r9, sl, fp, lr}
1000391a:	f7ff bcbd 	b.w	10003298 <_ftoa>
1000391e:	ea58 0309 	orrs.w	r3, r8, r9
10003922:	d12b      	bne.n	1000397c <_etoa+0x224>
10003924:	2a00      	cmp	r2, #0
10003926:	f43f af62 	beq.w	100037ee <_etoa+0x96>
1000392a:	2300      	movs	r3, #0
1000392c:	930c      	str	r3, [sp, #48]	@ 0x30
1000392e:	9b0e      	ldr	r3, [sp, #56]	@ 0x38
10003930:	9a0c      	ldr	r2, [sp, #48]	@ 0x30
10003932:	4293      	cmp	r3, r2
10003934:	f300 81b9 	bgt.w	10003caa <_etoa+0x552>
10003938:	f04f 0800 	mov.w	r8, #0
1000393c:	4620      	mov	r0, r4
1000393e:	4629      	mov	r1, r5
10003940:	2200      	movs	r2, #0
10003942:	2300      	movs	r3, #0
10003944:	f7fe fe80 	bl	10002648 <__wrap___aeabi_dcmplt>
10003948:	2800      	cmp	r0, #0
1000394a:	f040 8113 	bne.w	10003b74 <_etoa+0x41c>
1000394e:	ed9d 7b0a 	vldr	d7, [sp, #40]	@ 0x28
10003952:	f426 6600 	bic.w	r6, r6, #2048	@ 0x800
10003956:	f446 6680 	orr.w	r6, r6, #1024	@ 0x400
1000395a:	ed8d 7b28 	vstr	d7, [sp, #160]	@ 0xa0
1000395e:	465a      	mov	r2, fp
10003960:	4638      	mov	r0, r7
10003962:	e9cd 8a2a 	strd	r8, sl, [sp, #168]	@ 0xa8
10003966:	9b09      	ldr	r3, [sp, #36]	@ 0x24
10003968:	9908      	ldr	r1, [sp, #32]
1000396a:	962c      	str	r6, [sp, #176]	@ 0xb0
1000396c:	e7d2      	b.n	10003914 <_etoa+0x1bc>
1000396e:	bf00      	nop
10003970:	7fefffff 	.word	0x7fefffff
10003974:	cccccccd 	.word	0xcccccccd
10003978:	2306      	movs	r3, #6
1000397a:	930e      	str	r3, [sp, #56]	@ 0x38
1000397c:	f3c9 500a 	ubfx	r0, r9, #20, #11
10003980:	f2a0 30ff 	subw	r0, r0, #1023	@ 0x3ff
10003984:	f7fe fdf4 	bl	10002570 <__wrap___aeabi_i2d>
10003988:	a3c1      	add	r3, pc, #772	@ (adr r3, 10003c90 <_etoa+0x538>)
1000398a:	e9d3 2300 	ldrd	r2, r3, [r3]
1000398e:	f7fe fd6d 	bl	1000246c <__wrap___aeabi_dmul>
10003992:	a3c1      	add	r3, pc, #772	@ (adr r3, 10003c98 <_etoa+0x540>)
10003994:	e9d3 2300 	ldrd	r2, r3, [r3]
10003998:	f7fe fd40 	bl	1000241c <__wrap___aeabi_dadd>
1000399c:	f3c9 0913 	ubfx	r9, r9, #0, #20
100039a0:	e9cd 010c 	strd	r0, r1, [sp, #48]	@ 0x30
100039a4:	f049 517f 	orr.w	r1, r9, #1069547520	@ 0x3fc00000
100039a8:	4640      	mov	r0, r8
100039aa:	2200      	movs	r2, #0
100039ac:	4bb2      	ldr	r3, [pc, #712]	@ (10003c78 <_etoa+0x520>)
100039ae:	f441 1140 	orr.w	r1, r1, #3145728	@ 0x300000
100039b2:	f7fe fd47 	bl	10002444 <__wrap___aeabi_dsub>
100039b6:	a3a4      	add	r3, pc, #656	@ (adr r3, 10003c48 <_etoa+0x4f0>)
100039b8:	e9d3 2300 	ldrd	r2, r3, [r3]
100039bc:	f7fe fd56 	bl	1000246c <__wrap___aeabi_dmul>
100039c0:	4602      	mov	r2, r0
100039c2:	460b      	mov	r3, r1
100039c4:	e9dd 010c 	ldrd	r0, r1, [sp, #48]	@ 0x30
100039c8:	f7fe fd28 	bl	1000241c <__wrap___aeabi_dadd>
100039cc:	f7fe fdf4 	bl	100025b8 <__wrap___aeabi_d2iz>
100039d0:	900c      	str	r0, [sp, #48]	@ 0x30
100039d2:	f7fe fdcd 	bl	10002570 <__wrap___aeabi_i2d>
100039d6:	a39e      	add	r3, pc, #632	@ (adr r3, 10003c50 <_etoa+0x4f8>)
100039d8:	e9d3 2300 	ldrd	r2, r3, [r3]
100039dc:	4680      	mov	r8, r0
100039de:	4689      	mov	r9, r1
100039e0:	f7fe fd44 	bl	1000246c <__wrap___aeabi_dmul>
100039e4:	2200      	movs	r2, #0
100039e6:	4ba5      	ldr	r3, [pc, #660]	@ (10003c7c <_etoa+0x524>)
100039e8:	f7fe fd18 	bl	1000241c <__wrap___aeabi_dadd>
100039ec:	f7fe fde4 	bl	100025b8 <__wrap___aeabi_d2iz>
100039f0:	4603      	mov	r3, r0
100039f2:	4649      	mov	r1, r9
100039f4:	4640      	mov	r0, r8
100039f6:	9312      	str	r3, [sp, #72]	@ 0x48
100039f8:	a397      	add	r3, pc, #604	@ (adr r3, 10003c58 <_etoa+0x500>)
100039fa:	e9d3 2300 	ldrd	r2, r3, [r3]
100039fe:	f7fe fd35 	bl	1000246c <__wrap___aeabi_dmul>
10003a02:	4680      	mov	r8, r0
10003a04:	9812      	ldr	r0, [sp, #72]	@ 0x48
10003a06:	4689      	mov	r9, r1
10003a08:	f7fe fdb2 	bl	10002570 <__wrap___aeabi_i2d>
10003a0c:	a394      	add	r3, pc, #592	@ (adr r3, 10003c60 <_etoa+0x508>)
10003a0e:	e9d3 2300 	ldrd	r2, r3, [r3]
10003a12:	f7fe fd2b 	bl	1000246c <__wrap___aeabi_dmul>
10003a16:	4602      	mov	r2, r0
10003a18:	460b      	mov	r3, r1
10003a1a:	4640      	mov	r0, r8
10003a1c:	4649      	mov	r1, r9
10003a1e:	f7fe fd11 	bl	10002444 <__wrap___aeabi_dsub>
10003a22:	4602      	mov	r2, r0
10003a24:	460b      	mov	r3, r1
10003a26:	4680      	mov	r8, r0
10003a28:	4689      	mov	r9, r1
10003a2a:	f7fe fd1f 	bl	1000246c <__wrap___aeabi_dmul>
10003a2e:	4642      	mov	r2, r8
10003a30:	464b      	mov	r3, r9
10003a32:	e9cd 0110 	strd	r0, r1, [sp, #64]	@ 0x40
10003a36:	4640      	mov	r0, r8
10003a38:	4649      	mov	r1, r9
10003a3a:	f7fe fcef 	bl	1000241c <__wrap___aeabi_dadd>
10003a3e:	2200      	movs	r2, #0
10003a40:	e9cd 0114 	strd	r0, r1, [sp, #80]	@ 0x50
10003a44:	e9dd 0110 	ldrd	r0, r1, [sp, #64]	@ 0x40
10003a48:	4b8d      	ldr	r3, [pc, #564]	@ (10003c80 <_etoa+0x528>)
10003a4a:	f7fe fd35 	bl	100024b8 <__wrap___aeabi_ddiv>
10003a4e:	2200      	movs	r2, #0
10003a50:	4b8c      	ldr	r3, [pc, #560]	@ (10003c84 <_etoa+0x52c>)
10003a52:	f7fe fce3 	bl	1000241c <__wrap___aeabi_dadd>
10003a56:	4602      	mov	r2, r0
10003a58:	460b      	mov	r3, r1
10003a5a:	e9dd 0110 	ldrd	r0, r1, [sp, #64]	@ 0x40
10003a5e:	f7fe fd2b 	bl	100024b8 <__wrap___aeabi_ddiv>
10003a62:	2200      	movs	r2, #0
10003a64:	4b88      	ldr	r3, [pc, #544]	@ (10003c88 <_etoa+0x530>)
10003a66:	f7fe fcd9 	bl	1000241c <__wrap___aeabi_dadd>
10003a6a:	4602      	mov	r2, r0
10003a6c:	460b      	mov	r3, r1
10003a6e:	e9dd 0110 	ldrd	r0, r1, [sp, #64]	@ 0x40
10003a72:	f7fe fd21 	bl	100024b8 <__wrap___aeabi_ddiv>
10003a76:	4642      	mov	r2, r8
10003a78:	464b      	mov	r3, r9
10003a7a:	4680      	mov	r8, r0
10003a7c:	4689      	mov	r9, r1
10003a7e:	2000      	movs	r0, #0
10003a80:	f04f 4180 	mov.w	r1, #1073741824	@ 0x40000000
10003a84:	f7fe fcde 	bl	10002444 <__wrap___aeabi_dsub>
10003a88:	4602      	mov	r2, r0
10003a8a:	460b      	mov	r3, r1
10003a8c:	4640      	mov	r0, r8
10003a8e:	4649      	mov	r1, r9
10003a90:	f7fe fcc4 	bl	1000241c <__wrap___aeabi_dadd>
10003a94:	4602      	mov	r2, r0
10003a96:	460b      	mov	r3, r1
10003a98:	e9dd 0114 	ldrd	r0, r1, [sp, #80]	@ 0x50
10003a9c:	f7fe fd0c 	bl	100024b8 <__wrap___aeabi_ddiv>
10003aa0:	2200      	movs	r2, #0
10003aa2:	4b7a      	ldr	r3, [pc, #488]	@ (10003c8c <_etoa+0x534>)
10003aa4:	f7fe fcba 	bl	1000241c <__wrap___aeabi_dadd>
10003aa8:	9b12      	ldr	r3, [sp, #72]	@ 0x48
10003aaa:	2200      	movs	r2, #0
10003aac:	f203 3cff 	addw	ip, r3, #1023	@ 0x3ff
10003ab0:	ea4f 530c 	mov.w	r3, ip, lsl #20
10003ab4:	f7fe fcda 	bl	1000246c <__wrap___aeabi_dmul>
10003ab8:	4680      	mov	r8, r0
10003aba:	4689      	mov	r9, r1
10003abc:	e9dd 010a 	ldrd	r0, r1, [sp, #40]	@ 0x28
10003ac0:	4642      	mov	r2, r8
10003ac2:	464b      	mov	r3, r9
10003ac4:	f7fe fdc0 	bl	10002648 <__wrap___aeabi_dcmplt>
10003ac8:	b150      	cbz	r0, 10003ae0 <_etoa+0x388>
10003aca:	9b0c      	ldr	r3, [sp, #48]	@ 0x30
10003acc:	4640      	mov	r0, r8
10003ace:	3b01      	subs	r3, #1
10003ad0:	4649      	mov	r1, r9
10003ad2:	930c      	str	r3, [sp, #48]	@ 0x30
10003ad4:	2200      	movs	r2, #0
10003ad6:	4b6b      	ldr	r3, [pc, #428]	@ (10003c84 <_etoa+0x52c>)
10003ad8:	f7fe fcee 	bl	100024b8 <__wrap___aeabi_ddiv>
10003adc:	4680      	mov	r8, r0
10003ade:	4689      	mov	r9, r1
10003ae0:	9a0c      	ldr	r2, [sp, #48]	@ 0x30
10003ae2:	4643      	mov	r3, r8
10003ae4:	3263      	adds	r2, #99	@ 0x63
10003ae6:	2ac6      	cmp	r2, #198	@ 0xc6
10003ae8:	f006 0202 	and.w	r2, r6, #2
10003aec:	9210      	str	r2, [sp, #64]	@ 0x40
10003aee:	4649      	mov	r1, r9
10003af0:	9a0f      	ldr	r2, [sp, #60]	@ 0x3c
10003af2:	d82c      	bhi.n	10003b4e <_etoa+0x3f6>
10003af4:	2a00      	cmp	r2, #0
10003af6:	d05e      	beq.n	10003bb6 <_etoa+0x45e>
10003af8:	2204      	movs	r2, #4
10003afa:	9212      	str	r2, [sp, #72]	@ 0x48
10003afc:	430b      	orrs	r3, r1
10003afe:	f43f af16 	beq.w	1000392e <_etoa+0x1d6>
10003b02:	e9dd 010a 	ldrd	r0, r1, [sp, #40]	@ 0x28
10003b06:	a358      	add	r3, pc, #352	@ (adr r3, 10003c68 <_etoa+0x510>)
10003b08:	e9d3 2300 	ldrd	r2, r3, [r3]
10003b0c:	f7fe fdc4 	bl	10002698 <__wrap___aeabi_dcmpge>
10003b10:	b148      	cbz	r0, 10003b26 <_etoa+0x3ce>
10003b12:	e9dd 010a 	ldrd	r0, r1, [sp, #40]	@ 0x28
10003b16:	a356      	add	r3, pc, #344	@ (adr r3, 10003c70 <_etoa+0x518>)
10003b18:	e9d3 2300 	ldrd	r2, r3, [r3]
10003b1c:	f7fe fd94 	bl	10002648 <__wrap___aeabi_dcmplt>
10003b20:	2800      	cmp	r0, #0
10003b22:	f47f af04 	bne.w	1000392e <_etoa+0x1d6>
10003b26:	9b0e      	ldr	r3, [sp, #56]	@ 0x38
10003b28:	2b00      	cmp	r3, #0
10003b2a:	d050      	beq.n	10003bce <_etoa+0x476>
10003b2c:	9a13      	ldr	r2, [sp, #76]	@ 0x4c
10003b2e:	2a00      	cmp	r2, #0
10003b30:	d07d      	beq.n	10003c2e <_etoa+0x4d6>
10003b32:	3b01      	subs	r3, #1
10003b34:	930e      	str	r3, [sp, #56]	@ 0x38
10003b36:	9b12      	ldr	r3, [sp, #72]	@ 0x48
10003b38:	459a      	cmp	sl, r3
10003b3a:	d905      	bls.n	10003b48 <_etoa+0x3f0>
10003b3c:	9b10      	ldr	r3, [sp, #64]	@ 0x40
10003b3e:	2b00      	cmp	r3, #0
10003b40:	f000 80ae 	beq.w	10003ca0 <_etoa+0x548>
10003b44:	2302      	movs	r3, #2
10003b46:	9310      	str	r3, [sp, #64]	@ 0x40
10003b48:	2300      	movs	r3, #0
10003b4a:	930f      	str	r3, [sp, #60]	@ 0x3c
10003b4c:	e044      	b.n	10003bd8 <_etoa+0x480>
10003b4e:	bb22      	cbnz	r2, 10003b9a <_etoa+0x442>
10003b50:	f1ba 0f05 	cmp.w	sl, #5
10003b54:	d94f      	bls.n	10003bf6 <_etoa+0x49e>
10003b56:	f006 0302 	and.w	r3, r6, #2
10003b5a:	2b00      	cmp	r3, #0
10003b5c:	d149      	bne.n	10003bf2 <_etoa+0x49a>
10003b5e:	2305      	movs	r3, #5
10003b60:	9312      	str	r3, [sp, #72]	@ 0x48
10003b62:	f1aa 0305 	sub.w	r3, sl, #5
10003b66:	930f      	str	r3, [sp, #60]	@ 0x3c
10003b68:	e03a      	b.n	10003be0 <_etoa+0x488>
10003b6a:	f105 4300 	add.w	r3, r5, #2147483648	@ 0x80000000
10003b6e:	940a      	str	r4, [sp, #40]	@ 0x28
10003b70:	930b      	str	r3, [sp, #44]	@ 0x2c
10003b72:	e627      	b.n	100037c4 <_etoa+0x6c>
10003b74:	f426 6600 	bic.w	r6, r6, #2048	@ 0x800
10003b78:	f446 6680 	orr.w	r6, r6, #1024	@ 0x400
10003b7c:	4638      	mov	r0, r7
10003b7e:	962c      	str	r6, [sp, #176]	@ 0xb0
10003b80:	e9dd 670a 	ldrd	r6, r7, [sp, #40]	@ 0x28
10003b84:	4634      	mov	r4, r6
10003b86:	f107 4500 	add.w	r5, r7, #2147483648	@ 0x80000000
10003b8a:	465a      	mov	r2, fp
10003b8c:	e9cd 8a2a 	strd	r8, sl, [sp, #168]	@ 0xa8
10003b90:	e9cd 4528 	strd	r4, r5, [sp, #160]	@ 0xa0
10003b94:	9b09      	ldr	r3, [sp, #36]	@ 0x24
10003b96:	9908      	ldr	r1, [sp, #32]
10003b98:	e6bc      	b.n	10003914 <_etoa+0x1bc>
10003b9a:	2205      	movs	r2, #5
10003b9c:	9212      	str	r2, [sp, #72]	@ 0x48
10003b9e:	e7ad      	b.n	10003afc <_etoa+0x3a4>
10003ba0:	2300      	movs	r3, #0
10003ba2:	2202      	movs	r2, #2
10003ba4:	e9cd 320f 	strd	r3, r2, [sp, #60]	@ 0x3c
10003ba8:	2204      	movs	r2, #4
10003baa:	930c      	str	r3, [sp, #48]	@ 0x30
10003bac:	9212      	str	r2, [sp, #72]	@ 0x48
10003bae:	e62c      	b.n	1000380a <_etoa+0xb2>
10003bb0:	f04f 0805 	mov.w	r8, #5
10003bb4:	e6c2      	b.n	1000393c <_etoa+0x1e4>
10003bb6:	f1ba 0f04 	cmp.w	sl, #4
10003bba:	d91f      	bls.n	10003bfc <_etoa+0x4a4>
10003bbc:	9b10      	ldr	r3, [sp, #64]	@ 0x40
10003bbe:	2b00      	cmp	r3, #0
10003bc0:	d178      	bne.n	10003cb4 <_etoa+0x55c>
10003bc2:	2304      	movs	r3, #4
10003bc4:	9312      	str	r3, [sp, #72]	@ 0x48
10003bc6:	f1aa 0304 	sub.w	r3, sl, #4
10003bca:	930f      	str	r3, [sp, #60]	@ 0x3c
10003bcc:	e004      	b.n	10003bd8 <_etoa+0x480>
10003bce:	9b12      	ldr	r3, [sp, #72]	@ 0x48
10003bd0:	459a      	cmp	sl, r3
10003bd2:	d831      	bhi.n	10003c38 <_etoa+0x4e0>
10003bd4:	9b0e      	ldr	r3, [sp, #56]	@ 0x38
10003bd6:	930f      	str	r3, [sp, #60]	@ 0x3c
10003bd8:	9b0c      	ldr	r3, [sp, #48]	@ 0x30
10003bda:	2b00      	cmp	r3, #0
10003bdc:	f43f ae15 	beq.w	1000380a <_etoa+0xb2>
10003be0:	e9dd 010a 	ldrd	r0, r1, [sp, #40]	@ 0x28
10003be4:	4642      	mov	r2, r8
10003be6:	464b      	mov	r3, r9
10003be8:	f7fe fc66 	bl	100024b8 <__wrap___aeabi_ddiv>
10003bec:	e9cd 010a 	strd	r0, r1, [sp, #40]	@ 0x28
10003bf0:	e60b      	b.n	1000380a <_etoa+0xb2>
10003bf2:	2302      	movs	r3, #2
10003bf4:	9310      	str	r3, [sp, #64]	@ 0x40
10003bf6:	2305      	movs	r3, #5
10003bf8:	9312      	str	r3, [sp, #72]	@ 0x48
10003bfa:	e7f1      	b.n	10003be0 <_etoa+0x488>
10003bfc:	2304      	movs	r3, #4
10003bfe:	9312      	str	r3, [sp, #72]	@ 0x48
10003c00:	e7ea      	b.n	10003bd8 <_etoa+0x480>
10003c02:	e9dd 450a 	ldrd	r4, r5, [sp, #40]	@ 0x28
10003c06:	46a0      	mov	r8, r4
10003c08:	9b0f      	ldr	r3, [sp, #60]	@ 0x3c
10003c0a:	f105 4900 	add.w	r9, r5, #2147483648	@ 0x80000000
10003c0e:	9303      	str	r3, [sp, #12]
10003c10:	9b0e      	ldr	r3, [sp, #56]	@ 0x38
10003c12:	465a      	mov	r2, fp
10003c14:	9302      	str	r3, [sp, #8]
10003c16:	f426 6300 	bic.w	r3, r6, #2048	@ 0x800
10003c1a:	9304      	str	r3, [sp, #16]
10003c1c:	4638      	mov	r0, r7
10003c1e:	e9cd 8900 	strd	r8, r9, [sp]
10003c22:	9b09      	ldr	r3, [sp, #36]	@ 0x24
10003c24:	9908      	ldr	r1, [sp, #32]
10003c26:	f7ff fb37 	bl	10003298 <_ftoa>
10003c2a:	4602      	mov	r2, r0
10003c2c:	e608      	b.n	10003840 <_etoa+0xe8>
10003c2e:	9b12      	ldr	r3, [sp, #72]	@ 0x48
10003c30:	459a      	cmp	sl, r3
10003c32:	d844      	bhi.n	10003cbe <_etoa+0x566>
10003c34:	920f      	str	r2, [sp, #60]	@ 0x3c
10003c36:	e7cf      	b.n	10003bd8 <_etoa+0x480>
10003c38:	9b10      	ldr	r3, [sp, #64]	@ 0x40
10003c3a:	b38b      	cbz	r3, 10003ca0 <_etoa+0x548>
10003c3c:	9b0e      	ldr	r3, [sp, #56]	@ 0x38
10003c3e:	930f      	str	r3, [sp, #60]	@ 0x3c
10003c40:	2302      	movs	r3, #2
10003c42:	9310      	str	r3, [sp, #64]	@ 0x40
10003c44:	e7c8      	b.n	10003bd8 <_etoa+0x480>
10003c46:	bf00      	nop
10003c48:	636f4361 	.word	0x636f4361
10003c4c:	3fd287a7 	.word	0x3fd287a7
10003c50:	0979a371 	.word	0x0979a371
10003c54:	400a934f 	.word	0x400a934f
10003c58:	bbb55516 	.word	0xbbb55516
10003c5c:	40026bb1 	.word	0x40026bb1
10003c60:	fefa39ef 	.word	0xfefa39ef
10003c64:	3fe62e42 	.word	0x3fe62e42
10003c68:	eb1c432d 	.word	0xeb1c432d
10003c6c:	3f1a36e2 	.word	0x3f1a36e2
10003c70:	00000000 	.word	0x00000000
10003c74:	412e8480 	.word	0x412e8480
10003c78:	3ff80000 	.word	0x3ff80000
10003c7c:	3fe00000 	.word	0x3fe00000
10003c80:	402c0000 	.word	0x402c0000
10003c84:	40240000 	.word	0x40240000
10003c88:	40180000 	.word	0x40180000
10003c8c:	3ff00000 	.word	0x3ff00000
10003c90:	509f79fb 	.word	0x509f79fb
10003c94:	3fd34413 	.word	0x3fd34413
10003c98:	8b60c8b3 	.word	0x8b60c8b3
10003c9c:	3fc68a28 	.word	0x3fc68a28
10003ca0:	9b12      	ldr	r3, [sp, #72]	@ 0x48
10003ca2:	ebaa 0303 	sub.w	r3, sl, r3
10003ca6:	930f      	str	r3, [sp, #60]	@ 0x3c
10003ca8:	e796      	b.n	10003bd8 <_etoa+0x480>
10003caa:	eba3 0802 	sub.w	r8, r3, r2
10003cae:	f108 38ff 	add.w	r8, r8, #4294967295	@ 0xffffffff
10003cb2:	e643      	b.n	1000393c <_etoa+0x1e4>
10003cb4:	2304      	movs	r3, #4
10003cb6:	9312      	str	r3, [sp, #72]	@ 0x48
10003cb8:	2302      	movs	r3, #2
10003cba:	9310      	str	r3, [sp, #64]	@ 0x40
10003cbc:	e78c      	b.n	10003bd8 <_etoa+0x480>
10003cbe:	9b10      	ldr	r3, [sp, #64]	@ 0x40
10003cc0:	2b00      	cmp	r3, #0
10003cc2:	d0ed      	beq.n	10003ca0 <_etoa+0x548>
10003cc4:	2302      	movs	r3, #2
10003cc6:	920f      	str	r2, [sp, #60]	@ 0x3c
10003cc8:	9310      	str	r3, [sp, #64]	@ 0x40
10003cca:	e785      	b.n	10003bd8 <_etoa+0x480>

10003ccc <_vsnprintf>:
10003ccc:	e92d 4ff0 	stmdb	sp!, {r4, r5, r6, r7, r8, r9, sl, fp, lr}
10003cd0:	b09b      	sub	sp, #108	@ 0x6c
10003cd2:	9c24      	ldr	r4, [sp, #144]	@ 0x90
10003cd4:	4d95      	ldr	r5, [pc, #596]	@ (10003f2c <_vsnprintf+0x260>)
10003cd6:	940a      	str	r4, [sp, #40]	@ 0x28
10003cd8:	4c95      	ldr	r4, [pc, #596]	@ (10003f30 <_vsnprintf+0x264>)
10003cda:	f1b1 0a00 	subs.w	sl, r1, #0
10003cde:	bf18      	it	ne
10003ce0:	4683      	movne	fp, r0
10003ce2:	6025      	str	r5, [r4, #0]
10003ce4:	7818      	ldrb	r0, [r3, #0]
10003ce6:	4c93      	ldr	r4, [pc, #588]	@ (10003f34 <_vsnprintf+0x268>)
10003ce8:	4691      	mov	r9, r2
10003cea:	bf08      	it	eq
10003cec:	46a3      	moveq	fp, r4
10003cee:	9309      	str	r3, [sp, #36]	@ 0x24
10003cf0:	2800      	cmp	r0, #0
10003cf2:	f000 8293 	beq.w	1000421c <_vsnprintf+0x550>
10003cf6:	f04f 0800 	mov.w	r8, #0
10003cfa:	e00a      	b.n	10003d12 <_vsnprintf+0x46>
10003cfc:	4642      	mov	r2, r8
10003cfe:	464b      	mov	r3, r9
10003d00:	4651      	mov	r1, sl
10003d02:	f108 0801 	add.w	r8, r8, #1
10003d06:	47d8      	blx	fp
10003d08:	9b09      	ldr	r3, [sp, #36]	@ 0x24
10003d0a:	7818      	ldrb	r0, [r3, #0]
10003d0c:	2800      	cmp	r0, #0
10003d0e:	f000 80ce 	beq.w	10003eae <_vsnprintf+0x1e2>
10003d12:	9b09      	ldr	r3, [sp, #36]	@ 0x24
10003d14:	2825      	cmp	r0, #37	@ 0x25
10003d16:	f103 0301 	add.w	r3, r3, #1
10003d1a:	9309      	str	r3, [sp, #36]	@ 0x24
10003d1c:	d1ee      	bne.n	10003cfc <_vsnprintf+0x30>
10003d1e:	461c      	mov	r4, r3
10003d20:	2300      	movs	r3, #0
10003d22:	4622      	mov	r2, r4
10003d24:	f812 0b01 	ldrb.w	r0, [r2], #1
10003d28:	f1a0 0120 	sub.w	r1, r0, #32
10003d2c:	2910      	cmp	r1, #16
10003d2e:	d80a      	bhi.n	10003d46 <_vsnprintf+0x7a>
10003d30:	e8df f001 	tbb	[pc, r1]
10003d34:	3c090940 	.word	0x3c090940
10003d38:	09090909 	.word	0x09090909
10003d3c:	38090909 	.word	0x38090909
10003d40:	09093409 	.word	0x09093409
10003d44:	30          	.byte	0x30
10003d45:	00          	.byte	0x00
10003d46:	f1a0 0130 	sub.w	r1, r0, #48	@ 0x30
10003d4a:	2909      	cmp	r1, #9
10003d4c:	9409      	str	r4, [sp, #36]	@ 0x24
10003d4e:	f240 808a 	bls.w	10003e66 <_vsnprintf+0x19a>
10003d52:	282a      	cmp	r0, #42	@ 0x2a
10003d54:	f000 80f0 	beq.w	10003f38 <_vsnprintf+0x26c>
10003d58:	2500      	movs	r5, #0
10003d5a:	282e      	cmp	r0, #46	@ 0x2e
10003d5c:	f000 8096 	beq.w	10003e8c <_vsnprintf+0x1c0>
10003d60:	2600      	movs	r6, #0
10003d62:	f1a0 0168 	sub.w	r1, r0, #104	@ 0x68
10003d66:	2912      	cmp	r1, #18
10003d68:	d82d      	bhi.n	10003dc6 <_vsnprintf+0xfa>
10003d6a:	e8df f011 	tbh	[pc, r1, lsl #1]
10003d6e:	0149      	.short	0x0149
10003d70:	0143002c 	.word	0x0143002c
10003d74:	0138002c 	.word	0x0138002c
10003d78:	002c002c 	.word	0x002c002c
10003d7c:	002c002c 	.word	0x002c002c
10003d80:	002c002c 	.word	0x002c002c
10003d84:	0027002c 	.word	0x0027002c
10003d88:	002c002c 	.word	0x002c002c
10003d8c:	002c002c 	.word	0x002c002c
10003d90:	0027002c 	.word	0x0027002c
10003d94:	4614      	mov	r4, r2
10003d96:	f043 0301 	orr.w	r3, r3, #1
10003d9a:	e7c2      	b.n	10003d22 <_vsnprintf+0x56>
10003d9c:	4614      	mov	r4, r2
10003d9e:	f043 0302 	orr.w	r3, r3, #2
10003da2:	e7be      	b.n	10003d22 <_vsnprintf+0x56>
10003da4:	4614      	mov	r4, r2
10003da6:	f043 0304 	orr.w	r3, r3, #4
10003daa:	e7ba      	b.n	10003d22 <_vsnprintf+0x56>
10003dac:	4614      	mov	r4, r2
10003dae:	f043 0310 	orr.w	r3, r3, #16
10003db2:	e7b6      	b.n	10003d22 <_vsnprintf+0x56>
10003db4:	4614      	mov	r4, r2
10003db6:	f043 0308 	orr.w	r3, r3, #8
10003dba:	e7b2      	b.n	10003d22 <_vsnprintf+0x56>
10003dbc:	9909      	ldr	r1, [sp, #36]	@ 0x24
10003dbe:	7848      	ldrb	r0, [r1, #1]
10003dc0:	f443 7380 	orr.w	r3, r3, #256	@ 0x100
10003dc4:	3201      	adds	r2, #1
10003dc6:	2867      	cmp	r0, #103	@ 0x67
10003dc8:	9209      	str	r2, [sp, #36]	@ 0x24
10003dca:	d87e      	bhi.n	10003eca <_vsnprintf+0x1fe>
10003dcc:	2824      	cmp	r0, #36	@ 0x24
10003dce:	f240 80c1 	bls.w	10003f54 <_vsnprintf+0x288>
10003dd2:	f1a0 0225 	sub.w	r2, r0, #37	@ 0x25
10003dd6:	2a42      	cmp	r2, #66	@ 0x42
10003dd8:	f200 80bc 	bhi.w	10003f54 <_vsnprintf+0x288>
10003ddc:	e8df f012 	tbh	[pc, r2, lsl #1]
10003de0:	00ba0150 	.word	0x00ba0150
10003de4:	00ba00ba 	.word	0x00ba00ba
10003de8:	00ba00ba 	.word	0x00ba00ba
10003dec:	00ba00ba 	.word	0x00ba00ba
10003df0:	00ba00ba 	.word	0x00ba00ba
10003df4:	00ba00ba 	.word	0x00ba00ba
10003df8:	00ba00ba 	.word	0x00ba00ba
10003dfc:	00ba00ba 	.word	0x00ba00ba
10003e00:	00ba00ba 	.word	0x00ba00ba
10003e04:	00ba00ba 	.word	0x00ba00ba
10003e08:	00ba00ba 	.word	0x00ba00ba
10003e0c:	00ba00ba 	.word	0x00ba00ba
10003e10:	00ba00ba 	.word	0x00ba00ba
10003e14:	00ba00ba 	.word	0x00ba00ba
10003e18:	00ba00ba 	.word	0x00ba00ba
10003e1c:	00ba00ba 	.word	0x00ba00ba
10003e20:	01370119 	.word	0x01370119
10003e24:	00ba0119 	.word	0x00ba0119
10003e28:	00ba00ba 	.word	0x00ba00ba
10003e2c:	00ba00ba 	.word	0x00ba00ba
10003e30:	00ba00ba 	.word	0x00ba00ba
10003e34:	00ba00ba 	.word	0x00ba00ba
10003e38:	00ba00ba 	.word	0x00ba00ba
10003e3c:	00ba00ba 	.word	0x00ba00ba
10003e40:	00ba00ba 	.word	0x00ba00ba
10003e44:	01bc00ba 	.word	0x01bc00ba
10003e48:	00ba00ba 	.word	0x00ba00ba
10003e4c:	00ba00ba 	.word	0x00ba00ba
10003e50:	00ba00ba 	.word	0x00ba00ba
10003e54:	00ba00ba 	.word	0x00ba00ba
10003e58:	01bc00ba 	.word	0x01bc00ba
10003e5c:	01bc0158 	.word	0x01bc0158
10003e60:	01370119 	.word	0x01370119
10003e64:	0119      	.short	0x0119
10003e66:	2500      	movs	r5, #0
10003e68:	e000      	b.n	10003e6c <_vsnprintf+0x1a0>
10003e6a:	3201      	adds	r2, #1
10003e6c:	eb05 0585 	add.w	r5, r5, r5, lsl #2
10003e70:	eb00 0545 	add.w	r5, r0, r5, lsl #1
10003e74:	7810      	ldrb	r0, [r2, #0]
10003e76:	3d30      	subs	r5, #48	@ 0x30
10003e78:	f1a0 0130 	sub.w	r1, r0, #48	@ 0x30
10003e7c:	2909      	cmp	r1, #9
10003e7e:	d9f4      	bls.n	10003e6a <_vsnprintf+0x19e>
10003e80:	282e      	cmp	r0, #46	@ 0x2e
10003e82:	9209      	str	r2, [sp, #36]	@ 0x24
10003e84:	f102 0201 	add.w	r2, r2, #1
10003e88:	f47f af6a 	bne.w	10003d60 <_vsnprintf+0x94>
10003e8c:	9909      	ldr	r1, [sp, #36]	@ 0x24
10003e8e:	f443 6380 	orr.w	r3, r3, #1024	@ 0x400
10003e92:	7848      	ldrb	r0, [r1, #1]
10003e94:	4611      	mov	r1, r2
10003e96:	f1a0 0630 	sub.w	r6, r0, #48	@ 0x30
10003e9a:	2e09      	cmp	r6, #9
10003e9c:	f240 8121 	bls.w	100040e2 <_vsnprintf+0x416>
10003ea0:	282a      	cmp	r0, #42	@ 0x2a
10003ea2:	f000 812f 	beq.w	10004104 <_vsnprintf+0x438>
10003ea6:	9209      	str	r2, [sp, #36]	@ 0x24
10003ea8:	2600      	movs	r6, #0
10003eaa:	3201      	adds	r2, #1
10003eac:	e759      	b.n	10003d62 <_vsnprintf+0x96>
10003eae:	4644      	mov	r4, r8
10003eb0:	45c1      	cmp	r9, r8
10003eb2:	d801      	bhi.n	10003eb8 <_vsnprintf+0x1ec>
10003eb4:	f109 38ff 	add.w	r8, r9, #4294967295	@ 0xffffffff
10003eb8:	464b      	mov	r3, r9
10003eba:	4642      	mov	r2, r8
10003ebc:	4651      	mov	r1, sl
10003ebe:	2000      	movs	r0, #0
10003ec0:	47d8      	blx	fp
10003ec2:	4620      	mov	r0, r4
10003ec4:	b01b      	add	sp, #108	@ 0x6c
10003ec6:	e8bd 8ff0 	ldmia.w	sp!, {r4, r5, r6, r7, r8, r9, sl, fp, pc}
10003eca:	f1a0 0269 	sub.w	r2, r0, #105	@ 0x69
10003ece:	b2d2      	uxtb	r2, r2
10003ed0:	2a0f      	cmp	r2, #15
10003ed2:	d83f      	bhi.n	10003f54 <_vsnprintf+0x288>
10003ed4:	2101      	movs	r1, #1
10003ed6:	f249 0741 	movw	r7, #36929	@ 0x9041
10003eda:	4091      	lsls	r1, r2
10003edc:	4039      	ands	r1, r7
10003ede:	f040 80f3 	bne.w	100040c8 <_vsnprintf+0x3fc>
10003ee2:	2a0a      	cmp	r2, #10
10003ee4:	d03d      	beq.n	10003f62 <_vsnprintf+0x296>
10003ee6:	2a07      	cmp	r2, #7
10003ee8:	d134      	bne.n	10003f54 <_vsnprintf+0x288>
10003eea:	9d0a      	ldr	r5, [sp, #40]	@ 0x28
10003eec:	f855 2b04 	ldr.w	r2, [r5], #4
10003ef0:	2a00      	cmp	r2, #0
10003ef2:	f000 8113 	beq.w	1000411c <_vsnprintf+0x450>
10003ef6:	f043 0021 	orr.w	r0, r3, #33	@ 0x21
10003efa:	ab12      	add	r3, sp, #72	@ 0x48
10003efc:	461f      	mov	r7, r3
10003efe:	930b      	str	r3, [sp, #44]	@ 0x2c
10003f00:	e003      	b.n	10003f0a <_vsnprintf+0x23e>
10003f02:	2920      	cmp	r1, #32
10003f04:	f000 8114 	beq.w	10004130 <_vsnprintf+0x464>
10003f08:	461a      	mov	r2, r3
10003f0a:	f002 040f 	and.w	r4, r2, #15
10003f0e:	4623      	mov	r3, r4
10003f10:	2c09      	cmp	r4, #9
10003f12:	bf94      	ite	ls
10003f14:	3330      	addls	r3, #48	@ 0x30
10003f16:	3337      	addhi	r3, #55	@ 0x37
10003f18:	2a0f      	cmp	r2, #15
10003f1a:	f807 3b01 	strb.w	r3, [r7], #1
10003f1e:	f101 0101 	add.w	r1, r1, #1
10003f22:	ea4f 1312 	mov.w	r3, r2, lsr #4
10003f26:	d8ec      	bhi.n	10003f02 <_vsnprintf+0x236>
10003f28:	e102      	b.n	10004130 <_vsnprintf+0x464>
10003f2a:	bf00      	nop
10003f2c:	10003ccd 	.word	0x10003ccd
10003f30:	2000298c 	.word	0x2000298c
10003f34:	10003011 	.word	0x10003011
10003f38:	990a      	ldr	r1, [sp, #40]	@ 0x28
10003f3a:	9809      	ldr	r0, [sp, #36]	@ 0x24
10003f3c:	f851 5b04 	ldr.w	r5, [r1], #4
10003f40:	7840      	ldrb	r0, [r0, #1]
10003f42:	2d00      	cmp	r5, #0
10003f44:	e9cd 2109 	strd	r2, r1, [sp, #36]	@ 0x24
10003f48:	bfbc      	itt	lt
10003f4a:	f043 0302 	orrlt.w	r3, r3, #2
10003f4e:	426d      	neglt	r5, r5
10003f50:	3201      	adds	r2, #1
10003f52:	e702      	b.n	10003d5a <_vsnprintf+0x8e>
10003f54:	4642      	mov	r2, r8
10003f56:	464b      	mov	r3, r9
10003f58:	4651      	mov	r1, sl
10003f5a:	f108 0801 	add.w	r8, r8, #1
10003f5e:	47d8      	blx	fp
10003f60:	e6d2      	b.n	10003d08 <_vsnprintf+0x3c>
10003f62:	990a      	ldr	r1, [sp, #40]	@ 0x28
10003f64:	2e00      	cmp	r6, #0
10003f66:	f851 7b04 	ldr.w	r7, [r1], #4
10003f6a:	bf18      	it	ne
10003f6c:	4632      	movne	r2, r6
10003f6e:	7838      	ldrb	r0, [r7, #0]
10003f70:	bf08      	it	eq
10003f72:	f04f 32ff 	moveq.w	r2, #4294967295	@ 0xffffffff
10003f76:	2800      	cmp	r0, #0
10003f78:	f000 837b 	beq.w	10004672 <_vsnprintf+0x9a6>
10003f7c:	18bc      	adds	r4, r7, r2
10003f7e:	46a4      	mov	ip, r4
10003f80:	463a      	mov	r2, r7
10003f82:	e004      	b.n	10003f8e <_vsnprintf+0x2c2>
10003f84:	f812 4f01 	ldrb.w	r4, [r2, #1]!
10003f88:	2c00      	cmp	r4, #0
10003f8a:	f000 813f 	beq.w	1000420c <_vsnprintf+0x540>
10003f8e:	4594      	cmp	ip, r2
10003f90:	d1f8      	bne.n	10003f84 <_vsnprintf+0x2b8>
10003f92:	4664      	mov	r4, ip
10003f94:	1be4      	subs	r4, r4, r7
10003f96:	055a      	lsls	r2, r3, #21
10003f98:	f140 8122 	bpl.w	100041e0 <_vsnprintf+0x514>
10003f9c:	42b4      	cmp	r4, r6
10003f9e:	bf28      	it	cs
10003fa0:	4634      	movcs	r4, r6
10003fa2:	f013 0302 	ands.w	r3, r3, #2
10003fa6:	f000 8288 	beq.w	100044ba <_vsnprintf+0x7ee>
10003faa:	2302      	movs	r3, #2
10003fac:	e9cd 510a 	strd	r5, r1, [sp, #40]	@ 0x28
10003fb0:	4642      	mov	r2, r8
10003fb2:	461d      	mov	r5, r3
10003fb4:	4446      	add	r6, r8
10003fb6:	e008      	b.n	10003fca <_vsnprintf+0x2fe>
10003fb8:	464b      	mov	r3, r9
10003fba:	4651      	mov	r1, sl
10003fbc:	47d8      	blx	fp
10003fbe:	f817 0f01 	ldrb.w	r0, [r7, #1]!
10003fc2:	f108 0801 	add.w	r8, r8, #1
10003fc6:	b110      	cbz	r0, 10003fce <_vsnprintf+0x302>
10003fc8:	4642      	mov	r2, r8
10003fca:	4546      	cmp	r6, r8
10003fcc:	d1f4      	bne.n	10003fb8 <_vsnprintf+0x2ec>
10003fce:	462b      	mov	r3, r5
10003fd0:	990b      	ldr	r1, [sp, #44]	@ 0x2c
10003fd2:	9d0a      	ldr	r5, [sp, #40]	@ 0x28
10003fd4:	2b00      	cmp	r3, #0
10003fd6:	f040 8141 	bne.w	1000425c <_vsnprintf+0x590>
10003fda:	910a      	str	r1, [sp, #40]	@ 0x28
10003fdc:	e694      	b.n	10003d08 <_vsnprintf+0x3c>
10003fde:	9909      	ldr	r1, [sp, #36]	@ 0x24
10003fe0:	7848      	ldrb	r0, [r1, #1]
10003fe2:	286c      	cmp	r0, #108	@ 0x6c
10003fe4:	f47f aeec 	bne.w	10003dc0 <_vsnprintf+0xf4>
10003fe8:	460a      	mov	r2, r1
10003fea:	7888      	ldrb	r0, [r1, #2]
10003fec:	f443 7340 	orr.w	r3, r3, #768	@ 0x300
10003ff0:	3203      	adds	r2, #3
10003ff2:	e6e8      	b.n	10003dc6 <_vsnprintf+0xfa>
10003ff4:	9909      	ldr	r1, [sp, #36]	@ 0x24
10003ff6:	f443 7300 	orr.w	r3, r3, #512	@ 0x200
10003ffa:	7848      	ldrb	r0, [r1, #1]
10003ffc:	3201      	adds	r2, #1
10003ffe:	e6e2      	b.n	10003dc6 <_vsnprintf+0xfa>
10004000:	9909      	ldr	r1, [sp, #36]	@ 0x24
10004002:	7848      	ldrb	r0, [r1, #1]
10004004:	2868      	cmp	r0, #104	@ 0x68
10004006:	f000 8103 	beq.w	10004210 <_vsnprintf+0x544>
1000400a:	f043 0380 	orr.w	r3, r3, #128	@ 0x80
1000400e:	3201      	adds	r2, #1
10004010:	e6d9      	b.n	10003dc6 <_vsnprintf+0xfa>
10004012:	2867      	cmp	r0, #103	@ 0x67
10004014:	f000 80d9 	beq.w	100041ca <_vsnprintf+0x4fe>
10004018:	2847      	cmp	r0, #71	@ 0x47
1000401a:	f000 80dc 	beq.w	100041d6 <_vsnprintf+0x50a>
1000401e:	2845      	cmp	r0, #69	@ 0x45
10004020:	f000 80db 	beq.w	100041da <_vsnprintf+0x50e>
10004024:	e9cd 5303 	strd	r5, r3, [sp, #12]
10004028:	9b0a      	ldr	r3, [sp, #40]	@ 0x28
1000402a:	9602      	str	r6, [sp, #8]
1000402c:	3307      	adds	r3, #7
1000402e:	f023 0307 	bic.w	r3, r3, #7
10004032:	461c      	mov	r4, r3
10004034:	4642      	mov	r2, r8
10004036:	e8f4 6702 	ldrd	r6, r7, [r4], #8
1000403a:	464b      	mov	r3, r9
1000403c:	4651      	mov	r1, sl
1000403e:	4658      	mov	r0, fp
10004040:	e9cd 6700 	strd	r6, r7, [sp]
10004044:	940a      	str	r4, [sp, #40]	@ 0x28
10004046:	f7ff fb87 	bl	10003758 <_etoa>
1000404a:	4680      	mov	r8, r0
1000404c:	e65c      	b.n	10003d08 <_vsnprintf+0x3c>
1000404e:	2846      	cmp	r0, #70	@ 0x46
10004050:	bf08      	it	eq
10004052:	f043 0320 	orreq.w	r3, r3, #32
10004056:	e9cd 5303 	strd	r5, r3, [sp, #12]
1000405a:	9b0a      	ldr	r3, [sp, #40]	@ 0x28
1000405c:	9602      	str	r6, [sp, #8]
1000405e:	3307      	adds	r3, #7
10004060:	f023 0307 	bic.w	r3, r3, #7
10004064:	461c      	mov	r4, r3
10004066:	4642      	mov	r2, r8
10004068:	e8f4 6702 	ldrd	r6, r7, [r4], #8
1000406c:	464b      	mov	r3, r9
1000406e:	4651      	mov	r1, sl
10004070:	4658      	mov	r0, fp
10004072:	e9cd 6700 	strd	r6, r7, [sp]
10004076:	940a      	str	r4, [sp, #40]	@ 0x28
10004078:	f7ff f90e 	bl	10003298 <_ftoa>
1000407c:	4680      	mov	r8, r0
1000407e:	e643      	b.n	10003d08 <_vsnprintf+0x3c>
10004080:	4642      	mov	r2, r8
10004082:	464b      	mov	r3, r9
10004084:	4651      	mov	r1, sl
10004086:	2025      	movs	r0, #37	@ 0x25
10004088:	f108 0801 	add.w	r8, r8, #1
1000408c:	47d8      	blx	fp
1000408e:	e63b      	b.n	10003d08 <_vsnprintf+0x3c>
10004090:	9a0a      	ldr	r2, [sp, #40]	@ 0x28
10004092:	0799      	lsls	r1, r3, #30
10004094:	f102 0404 	add.w	r4, r2, #4
10004098:	f108 0601 	add.w	r6, r8, #1
1000409c:	f140 80c6 	bpl.w	1000422c <_vsnprintf+0x560>
100040a0:	7810      	ldrb	r0, [r2, #0]
100040a2:	464b      	mov	r3, r9
100040a4:	4642      	mov	r2, r8
100040a6:	4651      	mov	r1, sl
100040a8:	47d8      	blx	fp
100040aa:	2d01      	cmp	r5, #1
100040ac:	bf88      	it	hi
100040ae:	44a8      	addhi	r8, r5
100040b0:	f240 81bd 	bls.w	1000442e <_vsnprintf+0x762>
100040b4:	4632      	mov	r2, r6
100040b6:	464b      	mov	r3, r9
100040b8:	4651      	mov	r1, sl
100040ba:	2020      	movs	r0, #32
100040bc:	3601      	adds	r6, #1
100040be:	47d8      	blx	fp
100040c0:	4546      	cmp	r6, r8
100040c2:	d1f7      	bne.n	100040b4 <_vsnprintf+0x3e8>
100040c4:	940a      	str	r4, [sp, #40]	@ 0x28
100040c6:	e61f      	b.n	10003d08 <_vsnprintf+0x3c>
100040c8:	286f      	cmp	r0, #111	@ 0x6f
100040ca:	f000 8081 	beq.w	100041d0 <_vsnprintf+0x504>
100040ce:	f240 8248 	bls.w	10004562 <_vsnprintf+0x896>
100040d2:	2878      	cmp	r0, #120	@ 0x78
100040d4:	f000 8190 	beq.w	100043f8 <_vsnprintf+0x72c>
100040d8:	270a      	movs	r7, #10
100040da:	f023 0310 	bic.w	r3, r3, #16
100040de:	46bc      	mov	ip, r7
100040e0:	e041      	b.n	10004166 <_vsnprintf+0x49a>
100040e2:	2600      	movs	r6, #0
100040e4:	eb06 0686 	add.w	r6, r6, r6, lsl #2
100040e8:	eb00 0046 	add.w	r0, r0, r6, lsl #1
100040ec:	f1a0 0630 	sub.w	r6, r0, #48	@ 0x30
100040f0:	f811 0f01 	ldrb.w	r0, [r1, #1]!
100040f4:	f1a0 0230 	sub.w	r2, r0, #48	@ 0x30
100040f8:	2a09      	cmp	r2, #9
100040fa:	d9f3      	bls.n	100040e4 <_vsnprintf+0x418>
100040fc:	460a      	mov	r2, r1
100040fe:	9109      	str	r1, [sp, #36]	@ 0x24
10004100:	3201      	adds	r2, #1
10004102:	e62e      	b.n	10003d62 <_vsnprintf+0x96>
10004104:	e9dd 2109 	ldrd	r2, r1, [sp, #36]	@ 0x24
10004108:	f851 6b04 	ldr.w	r6, [r1], #4
1000410c:	7890      	ldrb	r0, [r2, #2]
1000410e:	3202      	adds	r2, #2
10004110:	9209      	str	r2, [sp, #36]	@ 0x24
10004112:	910a      	str	r1, [sp, #40]	@ 0x28
10004114:	3201      	adds	r2, #1
10004116:	ea26 76e6 	bic.w	r6, r6, r6, asr #31
1000411a:	e622      	b.n	10003d62 <_vsnprintf+0x96>
1000411c:	f023 0010 	bic.w	r0, r3, #16
10004120:	f413 6280 	ands.w	r2, r3, #1024	@ 0x400
10004124:	f040 0021 	orr.w	r0, r0, #33	@ 0x21
10004128:	f43f aee7 	beq.w	10003efa <_vsnprintf+0x22e>
1000412c:	ab12      	add	r3, sp, #72	@ 0x48
1000412e:	930b      	str	r3, [sp, #44]	@ 0x2c
10004130:	9b0b      	ldr	r3, [sp, #44]	@ 0x2c
10004132:	9006      	str	r0, [sp, #24]
10004134:	9300      	str	r3, [sp, #0]
10004136:	2308      	movs	r3, #8
10004138:	2010      	movs	r0, #16
1000413a:	9305      	str	r3, [sp, #20]
1000413c:	2300      	movs	r3, #0
1000413e:	4642      	mov	r2, r8
10004140:	e9cd 3002 	strd	r3, r0, [sp, #8]
10004144:	9101      	str	r1, [sp, #4]
10004146:	464b      	mov	r3, r9
10004148:	4651      	mov	r1, sl
1000414a:	4658      	mov	r0, fp
1000414c:	9604      	str	r6, [sp, #16]
1000414e:	f7fe ffaf 	bl	100030b0 <_ntoa_format>
10004152:	950a      	str	r5, [sp, #40]	@ 0x28
10004154:	4680      	mov	r8, r0
10004156:	e5d7      	b.n	10003d08 <_vsnprintf+0x3c>
10004158:	2858      	cmp	r0, #88	@ 0x58
1000415a:	d062      	beq.n	10004222 <_vsnprintf+0x556>
1000415c:	2862      	cmp	r0, #98	@ 0x62
1000415e:	f040 808f 	bne.w	10004280 <_vsnprintf+0x5b4>
10004162:	2702      	movs	r7, #2
10004164:	46bc      	mov	ip, r7
10004166:	f413 6080 	ands.w	r0, r3, #1024	@ 0x400
1000416a:	f000 80dd 	beq.w	10004328 <_vsnprintf+0x65c>
1000416e:	f023 030d 	bic.w	r3, r3, #13
10004172:	f413 7200 	ands.w	r2, r3, #512	@ 0x200
10004176:	f040 8181 	bne.w	1000447c <_vsnprintf+0x7b0>
1000417a:	990a      	ldr	r1, [sp, #40]	@ 0x28
1000417c:	1d0f      	adds	r7, r1, #4
1000417e:	f413 7180 	ands.w	r1, r3, #256	@ 0x100
10004182:	f040 8237 	bne.w	100045f4 <_vsnprintf+0x928>
10004186:	065c      	lsls	r4, r3, #25
10004188:	9a0a      	ldr	r2, [sp, #40]	@ 0x28
1000418a:	f140 813b 	bpl.w	10004404 <_vsnprintf+0x738>
1000418e:	7812      	ldrb	r2, [r2, #0]
10004190:	2a00      	cmp	r2, #0
10004192:	f040 814e 	bne.w	10004432 <_vsnprintf+0x766>
10004196:	f023 0310 	bic.w	r3, r3, #16
1000419a:	2800      	cmp	r0, #0
1000419c:	f000 8149 	beq.w	10004432 <_vsnprintf+0x766>
100041a0:	4611      	mov	r1, r2
100041a2:	aa12      	add	r2, sp, #72	@ 0x48
100041a4:	920b      	str	r2, [sp, #44]	@ 0x2c
100041a6:	e9cd 5305 	strd	r5, r3, [sp, #20]
100041aa:	e9cd c603 	strd	ip, r6, [sp, #12]
100041ae:	9101      	str	r1, [sp, #4]
100041b0:	9b0b      	ldr	r3, [sp, #44]	@ 0x2c
100041b2:	4642      	mov	r2, r8
100041b4:	9300      	str	r3, [sp, #0]
100041b6:	2300      	movs	r3, #0
100041b8:	4651      	mov	r1, sl
100041ba:	9302      	str	r3, [sp, #8]
100041bc:	4658      	mov	r0, fp
100041be:	464b      	mov	r3, r9
100041c0:	f7fe ff76 	bl	100030b0 <_ntoa_format>
100041c4:	970a      	str	r7, [sp, #40]	@ 0x28
100041c6:	4680      	mov	r8, r0
100041c8:	e59e      	b.n	10003d08 <_vsnprintf+0x3c>
100041ca:	f443 6300 	orr.w	r3, r3, #2048	@ 0x800
100041ce:	e729      	b.n	10004024 <_vsnprintf+0x358>
100041d0:	2708      	movs	r7, #8
100041d2:	46bc      	mov	ip, r7
100041d4:	e7c7      	b.n	10004166 <_vsnprintf+0x49a>
100041d6:	f443 6300 	orr.w	r3, r3, #2048	@ 0x800
100041da:	f043 0320 	orr.w	r3, r3, #32
100041de:	e721      	b.n	10004024 <_vsnprintf+0x358>
100041e0:	f013 0302 	ands.w	r3, r3, #2
100041e4:	f000 818e 	beq.w	10004504 <_vsnprintf+0x838>
100041e8:	2302      	movs	r3, #2
100041ea:	950a      	str	r5, [sp, #40]	@ 0x28
100041ec:	461e      	mov	r6, r3
100041ee:	460d      	mov	r5, r1
100041f0:	4642      	mov	r2, r8
100041f2:	464b      	mov	r3, r9
100041f4:	4651      	mov	r1, sl
100041f6:	47d8      	blx	fp
100041f8:	f817 0f01 	ldrb.w	r0, [r7, #1]!
100041fc:	f108 0801 	add.w	r8, r8, #1
10004200:	2800      	cmp	r0, #0
10004202:	d1f5      	bne.n	100041f0 <_vsnprintf+0x524>
10004204:	4629      	mov	r1, r5
10004206:	4633      	mov	r3, r6
10004208:	9d0a      	ldr	r5, [sp, #40]	@ 0x28
1000420a:	e6e3      	b.n	10003fd4 <_vsnprintf+0x308>
1000420c:	1bd4      	subs	r4, r2, r7
1000420e:	e6c2      	b.n	10003f96 <_vsnprintf+0x2ca>
10004210:	460a      	mov	r2, r1
10004212:	7888      	ldrb	r0, [r1, #2]
10004214:	f043 03c0 	orr.w	r3, r3, #192	@ 0xc0
10004218:	3203      	adds	r2, #3
1000421a:	e5d4      	b.n	10003dc6 <_vsnprintf+0xfa>
1000421c:	4604      	mov	r4, r0
1000421e:	4680      	mov	r8, r0
10004220:	e646      	b.n	10003eb0 <_vsnprintf+0x1e4>
10004222:	2710      	movs	r7, #16
10004224:	f043 0320 	orr.w	r3, r3, #32
10004228:	46bc      	mov	ip, r7
1000422a:	e79c      	b.n	10004166 <_vsnprintf+0x49a>
1000422c:	2d01      	cmp	r5, #1
1000422e:	f240 80f8 	bls.w	10004422 <_vsnprintf+0x756>
10004232:	4646      	mov	r6, r8
10004234:	f108 37ff 	add.w	r7, r8, #4294967295	@ 0xffffffff
10004238:	442f      	add	r7, r5
1000423a:	4632      	mov	r2, r6
1000423c:	464b      	mov	r3, r9
1000423e:	4651      	mov	r1, sl
10004240:	2020      	movs	r0, #32
10004242:	3601      	adds	r6, #1
10004244:	47d8      	blx	fp
10004246:	42be      	cmp	r6, r7
10004248:	d1f7      	bne.n	1000423a <_vsnprintf+0x56e>
1000424a:	9b0a      	ldr	r3, [sp, #40]	@ 0x28
1000424c:	4632      	mov	r2, r6
1000424e:	7818      	ldrb	r0, [r3, #0]
10004250:	4651      	mov	r1, sl
10004252:	464b      	mov	r3, r9
10004254:	47d8      	blx	fp
10004256:	44a8      	add	r8, r5
10004258:	940a      	str	r4, [sp, #40]	@ 0x28
1000425a:	e555      	b.n	10003d08 <_vsnprintf+0x3c>
1000425c:	4646      	mov	r6, r8
1000425e:	42a5      	cmp	r5, r4
10004260:	f67f aebb 	bls.w	10003fda <_vsnprintf+0x30e>
10004264:	44a8      	add	r8, r5
10004266:	eba8 0804 	sub.w	r8, r8, r4
1000426a:	460c      	mov	r4, r1
1000426c:	4632      	mov	r2, r6
1000426e:	464b      	mov	r3, r9
10004270:	4651      	mov	r1, sl
10004272:	2020      	movs	r0, #32
10004274:	3601      	adds	r6, #1
10004276:	47d8      	blx	fp
10004278:	4546      	cmp	r6, r8
1000427a:	d1f7      	bne.n	1000426c <_vsnprintf+0x5a0>
1000427c:	4621      	mov	r1, r4
1000427e:	e6ac      	b.n	10003fda <_vsnprintf+0x30e>
10004280:	f413 6280 	ands.w	r2, r3, #1024	@ 0x400
10004284:	f000 80bb 	beq.w	100043fe <_vsnprintf+0x732>
10004288:	f44f 6280 	mov.w	r2, #1024	@ 0x400
1000428c:	f023 0c11 	bic.w	ip, r3, #17
10004290:	f41c 7700 	ands.w	r7, ip, #512	@ 0x200
10004294:	9b0a      	ldr	r3, [sp, #40]	@ 0x28
10004296:	d14a      	bne.n	1000432e <_vsnprintf+0x662>
10004298:	f41c 7080 	ands.w	r0, ip, #256	@ 0x100
1000429c:	f103 0404 	add.w	r4, r3, #4
100042a0:	f040 8134 	bne.w	1000450c <_vsnprintf+0x840>
100042a4:	f01c 0f40 	tst.w	ip, #64	@ 0x40
100042a8:	f040 80a3 	bne.w	100043f2 <_vsnprintf+0x726>
100042ac:	f01c 0f80 	tst.w	ip, #128	@ 0x80
100042b0:	f000 81d3 	beq.w	1000465a <_vsnprintf+0x98e>
100042b4:	f9b3 1000 	ldrsh.w	r1, [r3]
100042b8:	ea81 77e1 	eor.w	r7, r1, r1, asr #31
100042bc:	eba7 77e1 	sub.w	r7, r7, r1, asr #31
100042c0:	b2bf      	uxth	r7, r7
100042c2:	0fcb      	lsrs	r3, r1, #31
100042c4:	2900      	cmp	r1, #0
100042c6:	f000 8156 	beq.w	10004576 <_vsnprintf+0x8aa>
100042ca:	463a      	mov	r2, r7
100042cc:	a912      	add	r1, sp, #72	@ 0x48
100042ce:	460f      	mov	r7, r1
100042d0:	f8df e3d8 	ldr.w	lr, [pc, #984]	@ 100046ac <_vsnprintf+0x9e0>
100042d4:	910b      	str	r1, [sp, #44]	@ 0x2c
100042d6:	930a      	str	r3, [sp, #40]	@ 0x28
100042d8:	950c      	str	r5, [sp, #48]	@ 0x30
100042da:	e001      	b.n	100042e0 <_vsnprintf+0x614>
100042dc:	2820      	cmp	r0, #32
100042de:	d00f      	beq.n	10004300 <_vsnprintf+0x634>
100042e0:	4615      	mov	r5, r2
100042e2:	fbae 1302 	umull	r1, r3, lr, r2
100042e6:	08db      	lsrs	r3, r3, #3
100042e8:	eb03 0183 	add.w	r1, r3, r3, lsl #2
100042ec:	eba2 0141 	sub.w	r1, r2, r1, lsl #1
100042f0:	3130      	adds	r1, #48	@ 0x30
100042f2:	2d09      	cmp	r5, #9
100042f4:	461a      	mov	r2, r3
100042f6:	f100 0001 	add.w	r0, r0, #1
100042fa:	f807 1b01 	strb.w	r1, [r7], #1
100042fe:	d8ed      	bhi.n	100042dc <_vsnprintf+0x610>
10004300:	9b0a      	ldr	r3, [sp, #40]	@ 0x28
10004302:	9d0c      	ldr	r5, [sp, #48]	@ 0x30
10004304:	e9cd 5c05 	strd	r5, ip, [sp, #20]
10004308:	e9cd 0301 	strd	r0, r3, [sp, #4]
1000430c:	9604      	str	r6, [sp, #16]
1000430e:	9b0b      	ldr	r3, [sp, #44]	@ 0x2c
10004310:	4642      	mov	r2, r8
10004312:	9300      	str	r3, [sp, #0]
10004314:	230a      	movs	r3, #10
10004316:	4651      	mov	r1, sl
10004318:	9303      	str	r3, [sp, #12]
1000431a:	4658      	mov	r0, fp
1000431c:	464b      	mov	r3, r9
1000431e:	f7fe fec7 	bl	100030b0 <_ntoa_format>
10004322:	940a      	str	r4, [sp, #40]	@ 0x28
10004324:	4680      	mov	r8, r0
10004326:	e4ef      	b.n	10003d08 <_vsnprintf+0x3c>
10004328:	f023 030c 	bic.w	r3, r3, #12
1000432c:	e721      	b.n	10004172 <_vsnprintf+0x4a6>
1000432e:	3307      	adds	r3, #7
10004330:	f023 0307 	bic.w	r3, r3, #7
10004334:	4619      	mov	r1, r3
10004336:	4608      	mov	r0, r1
10004338:	685b      	ldr	r3, [r3, #4]
1000433a:	f850 1b08 	ldr.w	r1, [r0], #8
1000433e:	0fdf      	lsrs	r7, r3, #31
10004340:	900a      	str	r0, [sp, #40]	@ 0x28
10004342:	ea51 0003 	orrs.w	r0, r1, r3
10004346:	d162      	bne.n	1000440e <_vsnprintf+0x742>
10004348:	2a00      	cmp	r2, #0
1000434a:	f040 819f 	bne.w	1000468c <_vsnprintf+0x9c0>
1000434e:	4613      	mov	r3, r2
10004350:	4611      	mov	r1, r2
10004352:	aa12      	add	r2, sp, #72	@ 0x48
10004354:	e9cd 750c 	strd	r7, r5, [sp, #48]	@ 0x30
10004358:	2000      	movs	r0, #0
1000435a:	4615      	mov	r5, r2
1000435c:	e9cd 680e 	strd	r6, r8, [sp, #56]	@ 0x38
10004360:	f8df e348 	ldr.w	lr, [pc, #840]	@ 100046ac <_vsnprintf+0x9e0>
10004364:	920b      	str	r2, [sp, #44]	@ 0x2c
10004366:	e001      	b.n	1000436c <_vsnprintf+0x6a0>
10004368:	2820      	cmp	r0, #32
1000436a:	d02d      	beq.n	100043c8 <_vsnprintf+0x6fc>
1000436c:	185a      	adds	r2, r3, r1
1000436e:	f142 0200 	adc.w	r2, r2, #0
10004372:	fbae 7802 	umull	r7, r8, lr, r2
10004376:	f028 0703 	bic.w	r7, r8, #3
1000437a:	eb07 0798 	add.w	r7, r7, r8, lsr #2
1000437e:	1bd2      	subs	r2, r2, r7
10004380:	461e      	mov	r6, r3
10004382:	1a9b      	subs	r3, r3, r2
10004384:	f161 0700 	sbc.w	r7, r1, #0
10004388:	460c      	mov	r4, r1
1000438a:	f04f 31cc 	mov.w	r1, #3435973836	@ 0xcccccccc
1000438e:	fb01 f103 	mul.w	r1, r1, r3
10004392:	fb0e 1107 	mla	r1, lr, r7, r1
10004396:	fba3 730e 	umull	r7, r3, r3, lr
1000439a:	4419      	add	r1, r3
1000439c:	2305      	movs	r3, #5
1000439e:	f007 0801 	and.w	r8, r7, #1
100043a2:	fba8 3803 	umull	r3, r8, r8, r3
100043a6:	189b      	adds	r3, r3, r2
100043a8:	2e0a      	cmp	r6, #10
100043aa:	f103 0330 	add.w	r3, r3, #48	@ 0x30
100043ae:	ea4f 0757 	mov.w	r7, r7, lsr #1
100043b2:	f174 0400 	sbcs.w	r4, r4, #0
100043b6:	f805 3b01 	strb.w	r3, [r5], #1
100043ba:	f100 0001 	add.w	r0, r0, #1
100043be:	ea47 73c1 	orr.w	r3, r7, r1, lsl #31
100043c2:	ea4f 0151 	mov.w	r1, r1, lsr #1
100043c6:	d2cf      	bcs.n	10004368 <_vsnprintf+0x69c>
100043c8:	e9dd 750c 	ldrd	r7, r5, [sp, #48]	@ 0x30
100043cc:	e9dd 680e 	ldrd	r6, r8, [sp, #56]	@ 0x38
100043d0:	9b0b      	ldr	r3, [sp, #44]	@ 0x2c
100043d2:	4642      	mov	r2, r8
100043d4:	9300      	str	r3, [sp, #0]
100043d6:	230a      	movs	r3, #10
100043d8:	e9cd 5c05 	strd	r5, ip, [sp, #20]
100043dc:	e9cd 0701 	strd	r0, r7, [sp, #4]
100043e0:	9604      	str	r6, [sp, #16]
100043e2:	9303      	str	r3, [sp, #12]
100043e4:	464b      	mov	r3, r9
100043e6:	4651      	mov	r1, sl
100043e8:	4658      	mov	r0, fp
100043ea:	f7fe fe61 	bl	100030b0 <_ntoa_format>
100043ee:	4680      	mov	r8, r0
100043f0:	e48a      	b.n	10003d08 <_vsnprintf+0x3c>
100043f2:	7819      	ldrb	r1, [r3, #0]
100043f4:	460f      	mov	r7, r1
100043f6:	e764      	b.n	100042c2 <_vsnprintf+0x5f6>
100043f8:	2710      	movs	r7, #16
100043fa:	46bc      	mov	ip, r7
100043fc:	e6b3      	b.n	10004166 <_vsnprintf+0x49a>
100043fe:	f023 0c10 	bic.w	ip, r3, #16
10004402:	e745      	b.n	10004290 <_vsnprintf+0x5c4>
10004404:	061c      	lsls	r4, r3, #24
10004406:	bf4c      	ite	mi
10004408:	8812      	ldrhmi	r2, [r2, #0]
1000440a:	6812      	ldrpl	r2, [r2, #0]
1000440c:	e6c0      	b.n	10004190 <_vsnprintf+0x4c4>
1000440e:	460a      	mov	r2, r1
10004410:	1e19      	subs	r1, r3, #0
10004412:	db01      	blt.n	10004418 <_vsnprintf+0x74c>
10004414:	4613      	mov	r3, r2
10004416:	e79c      	b.n	10004352 <_vsnprintf+0x686>
10004418:	4252      	negs	r2, r2
1000441a:	4613      	mov	r3, r2
1000441c:	eb61 0141 	sbc.w	r1, r1, r1, lsl #1
10004420:	e797      	b.n	10004352 <_vsnprintf+0x686>
10004422:	4613      	mov	r3, r2
10004424:	4651      	mov	r1, sl
10004426:	7818      	ldrb	r0, [r3, #0]
10004428:	4642      	mov	r2, r8
1000442a:	464b      	mov	r3, r9
1000442c:	47d8      	blx	fp
1000442e:	46b0      	mov	r8, r6
10004430:	e648      	b.n	100040c4 <_vsnprintf+0x3f8>
10004432:	f013 0f20 	tst.w	r3, #32
10004436:	bf14      	ite	ne
10004438:	2041      	movne	r0, #65	@ 0x41
1000443a:	2061      	moveq	r0, #97	@ 0x61
1000443c:	ac12      	add	r4, sp, #72	@ 0x48
1000443e:	46a6      	mov	lr, r4
10004440:	940b      	str	r4, [sp, #44]	@ 0x2c
10004442:	930a      	str	r3, [sp, #40]	@ 0x28
10004444:	f1a0 040a 	sub.w	r4, r0, #10
10004448:	950c      	str	r5, [sp, #48]	@ 0x30
1000444a:	e002      	b.n	10004452 <_vsnprintf+0x786>
1000444c:	2920      	cmp	r1, #32
1000444e:	d012      	beq.n	10004476 <_vsnprintf+0x7aa>
10004450:	462a      	mov	r2, r5
10004452:	fbb2 f5fc 	udiv	r5, r2, ip
10004456:	fb0c 2015 	mls	r0, ip, r5, r2
1000445a:	b2c3      	uxtb	r3, r0
1000445c:	2809      	cmp	r0, #9
1000445e:	f103 0030 	add.w	r0, r3, #48	@ 0x30
10004462:	bf8a      	itet	hi
10004464:	191b      	addhi	r3, r3, r4
10004466:	b2c3      	uxtbls	r3, r0
10004468:	b2db      	uxtbhi	r3, r3
1000446a:	4562      	cmp	r2, ip
1000446c:	f80e 3b01 	strb.w	r3, [lr], #1
10004470:	f101 0101 	add.w	r1, r1, #1
10004474:	d2ea      	bcs.n	1000444c <_vsnprintf+0x780>
10004476:	9b0a      	ldr	r3, [sp, #40]	@ 0x28
10004478:	9d0c      	ldr	r5, [sp, #48]	@ 0x30
1000447a:	e694      	b.n	100041a6 <_vsnprintf+0x4da>
1000447c:	9a0a      	ldr	r2, [sp, #40]	@ 0x28
1000447e:	3207      	adds	r2, #7
10004480:	f022 0207 	bic.w	r2, r2, #7
10004484:	6851      	ldr	r1, [r2, #4]
10004486:	f852 4b08 	ldr.w	r4, [r2], #8
1000448a:	468e      	mov	lr, r1
1000448c:	920a      	str	r2, [sp, #40]	@ 0x28
1000448e:	ea54 0201 	orrs.w	r2, r4, r1
10004492:	d176      	bne.n	10004582 <_vsnprintf+0x8b6>
10004494:	f023 0310 	bic.w	r3, r3, #16
10004498:	2800      	cmp	r0, #0
1000449a:	d072      	beq.n	10004582 <_vsnprintf+0x8b6>
1000449c:	2200      	movs	r2, #0
1000449e:	4611      	mov	r1, r2
100044a0:	aa12      	add	r2, sp, #72	@ 0x48
100044a2:	920b      	str	r2, [sp, #44]	@ 0x2c
100044a4:	e9cd 5305 	strd	r5, r3, [sp, #20]
100044a8:	9b0b      	ldr	r3, [sp, #44]	@ 0x2c
100044aa:	4642      	mov	r2, r8
100044ac:	9300      	str	r3, [sp, #0]
100044ae:	2300      	movs	r3, #0
100044b0:	e9cd c603 	strd	ip, r6, [sp, #12]
100044b4:	9101      	str	r1, [sp, #4]
100044b6:	9302      	str	r3, [sp, #8]
100044b8:	e794      	b.n	100043e4 <_vsnprintf+0x718>
100044ba:	42a5      	cmp	r5, r4
100044bc:	bf98      	it	ls
100044be:	3401      	addls	r4, #1
100044c0:	f67f ad74 	bls.w	10003fac <_vsnprintf+0x2e0>
100044c4:	f44f 6380 	mov.w	r3, #1024	@ 0x400
100044c8:	e9cd 750a 	strd	r7, r5, [sp, #40]	@ 0x28
100044cc:	eb05 0208 	add.w	r2, r5, r8
100044d0:	461f      	mov	r7, r3
100044d2:	460d      	mov	r5, r1
100044d4:	1b14      	subs	r4, r2, r4
100044d6:	4642      	mov	r2, r8
100044d8:	464b      	mov	r3, r9
100044da:	4651      	mov	r1, sl
100044dc:	2020      	movs	r0, #32
100044de:	f108 0801 	add.w	r8, r8, #1
100044e2:	47d8      	blx	fp
100044e4:	45a0      	cmp	r8, r4
100044e6:	d1f6      	bne.n	100044d6 <_vsnprintf+0x80a>
100044e8:	463b      	mov	r3, r7
100044ea:	9f0a      	ldr	r7, [sp, #40]	@ 0x28
100044ec:	4629      	mov	r1, r5
100044ee:	7838      	ldrb	r0, [r7, #0]
100044f0:	9d0b      	ldr	r5, [sp, #44]	@ 0x2c
100044f2:	1c6c      	adds	r4, r5, #1
100044f4:	2800      	cmp	r0, #0
100044f6:	f43f ad70 	beq.w	10003fda <_vsnprintf+0x30e>
100044fa:	2b00      	cmp	r3, #0
100044fc:	f43f ae75 	beq.w	100041ea <_vsnprintf+0x51e>
10004500:	2300      	movs	r3, #0
10004502:	e553      	b.n	10003fac <_vsnprintf+0x2e0>
10004504:	42a5      	cmp	r5, r4
10004506:	d8df      	bhi.n	100044c8 <_vsnprintf+0x7fc>
10004508:	3401      	adds	r4, #1
1000450a:	e66e      	b.n	100041ea <_vsnprintf+0x51e>
1000450c:	6819      	ldr	r1, [r3, #0]
1000450e:	0fcb      	lsrs	r3, r1, #31
10004510:	2900      	cmp	r1, #0
10004512:	f000 80a8 	beq.w	10004666 <_vsnprintf+0x99a>
10004516:	ea81 72e1 	eor.w	r2, r1, r1, asr #31
1000451a:	eba2 72e1 	sub.w	r2, r2, r1, asr #31
1000451e:	a912      	add	r1, sp, #72	@ 0x48
10004520:	4608      	mov	r0, r1
10004522:	f8df e188 	ldr.w	lr, [pc, #392]	@ 100046ac <_vsnprintf+0x9e0>
10004526:	910b      	str	r1, [sp, #44]	@ 0x2c
10004528:	930a      	str	r3, [sp, #40]	@ 0x28
1000452a:	950c      	str	r5, [sp, #48]	@ 0x30
1000452c:	e001      	b.n	10004532 <_vsnprintf+0x866>
1000452e:	2f20      	cmp	r7, #32
10004530:	d00f      	beq.n	10004552 <_vsnprintf+0x886>
10004532:	4615      	mov	r5, r2
10004534:	fbae 1302 	umull	r1, r3, lr, r2
10004538:	08db      	lsrs	r3, r3, #3
1000453a:	eb03 0183 	add.w	r1, r3, r3, lsl #2
1000453e:	eba2 0141 	sub.w	r1, r2, r1, lsl #1
10004542:	3130      	adds	r1, #48	@ 0x30
10004544:	2d09      	cmp	r5, #9
10004546:	461a      	mov	r2, r3
10004548:	f107 0701 	add.w	r7, r7, #1
1000454c:	f800 1b01 	strb.w	r1, [r0], #1
10004550:	d8ed      	bhi.n	1000452e <_vsnprintf+0x862>
10004552:	9b0a      	ldr	r3, [sp, #40]	@ 0x28
10004554:	9d0c      	ldr	r5, [sp, #48]	@ 0x30
10004556:	e9cd 5c05 	strd	r5, ip, [sp, #20]
1000455a:	e9cd 7301 	strd	r7, r3, [sp, #4]
1000455e:	9604      	str	r6, [sp, #16]
10004560:	e6d5      	b.n	1000430e <_vsnprintf+0x642>
10004562:	2869      	cmp	r0, #105	@ 0x69
10004564:	f023 0c10 	bic.w	ip, r3, #16
10004568:	f040 808c 	bne.w	10004684 <_vsnprintf+0x9b8>
1000456c:	f413 6280 	ands.w	r2, r3, #1024	@ 0x400
10004570:	f43f ae8e 	beq.w	10004290 <_vsnprintf+0x5c4>
10004574:	e688      	b.n	10004288 <_vsnprintf+0x5bc>
10004576:	2a00      	cmp	r2, #0
10004578:	f43f aea8 	beq.w	100042cc <_vsnprintf+0x600>
1000457c:	aa12      	add	r2, sp, #72	@ 0x48
1000457e:	920b      	str	r2, [sp, #44]	@ 0x2c
10004580:	e6c0      	b.n	10004304 <_vsnprintf+0x638>
10004582:	f013 0f20 	tst.w	r3, #32
10004586:	bf14      	ite	ne
10004588:	2241      	movne	r2, #65	@ 0x41
1000458a:	2261      	moveq	r2, #97	@ 0x61
1000458c:	2000      	movs	r0, #0
1000458e:	a912      	add	r1, sp, #72	@ 0x48
10004590:	3a0a      	subs	r2, #10
10004592:	e9cd 680e 	strd	r6, r8, [sp, #56]	@ 0x38
10004596:	e9cd 350c 	strd	r3, r5, [sp, #48]	@ 0x30
1000459a:	f8cd b044 	str.w	fp, [sp, #68]	@ 0x44
1000459e:	4606      	mov	r6, r0
100045a0:	4688      	mov	r8, r1
100045a2:	4675      	mov	r5, lr
100045a4:	4693      	mov	fp, r2
100045a6:	910b      	str	r1, [sp, #44]	@ 0x2c
100045a8:	f8cd c040 	str.w	ip, [sp, #64]	@ 0x40
100045ac:	e003      	b.n	100045b6 <_vsnprintf+0x8ea>
100045ae:	2e20      	cmp	r6, #32
100045b0:	d017      	beq.n	100045e2 <_vsnprintf+0x916>
100045b2:	4604      	mov	r4, r0
100045b4:	460d      	mov	r5, r1
100045b6:	4629      	mov	r1, r5
100045b8:	463a      	mov	r2, r7
100045ba:	2300      	movs	r3, #0
100045bc:	4620      	mov	r0, r4
100045be:	f004 f8cf 	bl	10008760 <____aeabi_uldivmod_veneer>
100045c2:	b2d2      	uxtb	r2, r2
100045c4:	2a09      	cmp	r2, #9
100045c6:	f102 0330 	add.w	r3, r2, #48	@ 0x30
100045ca:	bf88      	it	hi
100045cc:	eb02 030b 	addhi.w	r3, r2, fp
100045d0:	42bc      	cmp	r4, r7
100045d2:	b2db      	uxtb	r3, r3
100045d4:	f175 0500 	sbcs.w	r5, r5, #0
100045d8:	f808 3b01 	strb.w	r3, [r8], #1
100045dc:	f106 0601 	add.w	r6, r6, #1
100045e0:	d2e5      	bcs.n	100045ae <_vsnprintf+0x8e2>
100045e2:	4631      	mov	r1, r6
100045e4:	e9dd 350c 	ldrd	r3, r5, [sp, #48]	@ 0x30
100045e8:	e9dd cb10 	ldrd	ip, fp, [sp, #64]	@ 0x40
100045ec:	f8dd 803c 	ldr.w	r8, [sp, #60]	@ 0x3c
100045f0:	9e0e      	ldr	r6, [sp, #56]	@ 0x38
100045f2:	e757      	b.n	100044a4 <_vsnprintf+0x7d8>
100045f4:	990a      	ldr	r1, [sp, #40]	@ 0x28
100045f6:	6809      	ldr	r1, [r1, #0]
100045f8:	b951      	cbnz	r1, 10004610 <_vsnprintf+0x944>
100045fa:	f023 0310 	bic.w	r3, r3, #16
100045fe:	b138      	cbz	r0, 10004610 <_vsnprintf+0x944>
10004600:	a912      	add	r1, sp, #72	@ 0x48
10004602:	910b      	str	r1, [sp, #44]	@ 0x2c
10004604:	e9cd 5305 	strd	r5, r3, [sp, #20]
10004608:	e9cd c603 	strd	ip, r6, [sp, #12]
1000460c:	9201      	str	r2, [sp, #4]
1000460e:	e5cf      	b.n	100041b0 <_vsnprintf+0x4e4>
10004610:	f013 0f20 	tst.w	r3, #32
10004614:	bf14      	ite	ne
10004616:	2041      	movne	r0, #65	@ 0x41
10004618:	2061      	moveq	r0, #97	@ 0x61
1000461a:	ac12      	add	r4, sp, #72	@ 0x48
1000461c:	46a6      	mov	lr, r4
1000461e:	940b      	str	r4, [sp, #44]	@ 0x2c
10004620:	930a      	str	r3, [sp, #40]	@ 0x28
10004622:	f1a0 040a 	sub.w	r4, r0, #10
10004626:	950c      	str	r5, [sp, #48]	@ 0x30
10004628:	e002      	b.n	10004630 <_vsnprintf+0x964>
1000462a:	2a20      	cmp	r2, #32
1000462c:	d012      	beq.n	10004654 <_vsnprintf+0x988>
1000462e:	4629      	mov	r1, r5
10004630:	fbb1 f5fc 	udiv	r5, r1, ip
10004634:	fb0c 1015 	mls	r0, ip, r5, r1
10004638:	b2c3      	uxtb	r3, r0
1000463a:	2809      	cmp	r0, #9
1000463c:	f103 0030 	add.w	r0, r3, #48	@ 0x30
10004640:	bf8a      	itet	hi
10004642:	191b      	addhi	r3, r3, r4
10004644:	b2c3      	uxtbls	r3, r0
10004646:	b2db      	uxtbhi	r3, r3
10004648:	4561      	cmp	r1, ip
1000464a:	f80e 3b01 	strb.w	r3, [lr], #1
1000464e:	f102 0201 	add.w	r2, r2, #1
10004652:	d2ea      	bcs.n	1000462a <_vsnprintf+0x95e>
10004654:	9b0a      	ldr	r3, [sp, #40]	@ 0x28
10004656:	9d0c      	ldr	r5, [sp, #48]	@ 0x30
10004658:	e7d4      	b.n	10004604 <_vsnprintf+0x938>
1000465a:	6819      	ldr	r1, [r3, #0]
1000465c:	ea81 77e1 	eor.w	r7, r1, r1, asr #31
10004660:	eba7 77e1 	sub.w	r7, r7, r1, asr #31
10004664:	e62d      	b.n	100042c2 <_vsnprintf+0x5f6>
10004666:	2a00      	cmp	r2, #0
10004668:	f43f af59 	beq.w	1000451e <_vsnprintf+0x852>
1000466c:	aa12      	add	r2, sp, #72	@ 0x48
1000466e:	920b      	str	r2, [sp, #44]	@ 0x2c
10004670:	e771      	b.n	10004556 <_vsnprintf+0x88a>
10004672:	f413 6480 	ands.w	r4, r3, #1024	@ 0x400
10004676:	d00d      	beq.n	10004694 <_vsnprintf+0x9c8>
10004678:	f013 0402 	ands.w	r4, r3, #2
1000467c:	d012      	beq.n	100046a4 <_vsnprintf+0x9d8>
1000467e:	4604      	mov	r4, r0
10004680:	4646      	mov	r6, r8
10004682:	e5ec      	b.n	1000425e <_vsnprintf+0x592>
10004684:	270a      	movs	r7, #10
10004686:	4663      	mov	r3, ip
10004688:	46bc      	mov	ip, r7
1000468a:	e56c      	b.n	10004166 <_vsnprintf+0x49a>
1000468c:	ab12      	add	r3, sp, #72	@ 0x48
1000468e:	2000      	movs	r0, #0
10004690:	930b      	str	r3, [sp, #44]	@ 0x2c
10004692:	e69d      	b.n	100043d0 <_vsnprintf+0x704>
10004694:	f013 0302 	ands.w	r3, r3, #2
10004698:	f47f ade0 	bne.w	1000425c <_vsnprintf+0x590>
1000469c:	2d00      	cmp	r5, #0
1000469e:	f47f af13 	bne.w	100044c8 <_vsnprintf+0x7fc>
100046a2:	e49a      	b.n	10003fda <_vsnprintf+0x30e>
100046a4:	2d00      	cmp	r5, #0
100046a6:	f47f af0d 	bne.w	100044c4 <_vsnprintf+0x7f8>
100046aa:	e496      	b.n	10003fda <_vsnprintf+0x30e>
100046ac:	cccccccd 	.word	0xcccccccd

100046b0 <vfctprintf>:
100046b0:	b570      	push	{r4, r5, r6, lr}
100046b2:	4694      	mov	ip, r2
100046b4:	461e      	mov	r6, r3
100046b6:	4605      	mov	r5, r0
100046b8:	460c      	mov	r4, r1
100046ba:	b084      	sub	sp, #16
100046bc:	f04f 32ff 	mov.w	r2, #4294967295	@ 0xffffffff
100046c0:	4663      	mov	r3, ip
100046c2:	a902      	add	r1, sp, #8
100046c4:	9600      	str	r6, [sp, #0]
100046c6:	4803      	ldr	r0, [pc, #12]	@ (100046d4 <vfctprintf+0x24>)
100046c8:	e9cd 5402 	strd	r5, r4, [sp, #8]
100046cc:	f7ff fafe 	bl	10003ccc <_vsnprintf>
100046d0:	b004      	add	sp, #16
100046d2:	bd70      	pop	{r4, r5, r6, pc}
100046d4:	1000328d 	.word	0x1000328d

100046d8 <weak_raw_vprintf>:
100046d8:	b510      	push	{r4, lr}
100046da:	4b09      	ldr	r3, [pc, #36]	@ (10004700 <weak_raw_vprintf+0x28>)
100046dc:	b084      	sub	sp, #16
100046de:	681c      	ldr	r4, [r3, #0]
100046e0:	b14c      	cbz	r4, 100046f6 <weak_raw_vprintf+0x1e>
100046e2:	4603      	mov	r3, r0
100046e4:	9100      	str	r1, [sp, #0]
100046e6:	f04f 32ff 	mov.w	r2, #4294967295	@ 0xffffffff
100046ea:	a903      	add	r1, sp, #12
100046ec:	4805      	ldr	r0, [pc, #20]	@ (10004704 <weak_raw_vprintf+0x2c>)
100046ee:	47a0      	blx	r4
100046f0:	2001      	movs	r0, #1
100046f2:	b004      	add	sp, #16
100046f4:	bd10      	pop	{r4, pc}
100046f6:	f000 fa57 	bl	10004ba8 <__wrap_puts>
100046fa:	4620      	mov	r0, r4
100046fc:	b004      	add	sp, #16
100046fe:	bd10      	pop	{r4, pc}
10004700:	2000298c 	.word	0x2000298c
10004704:	10003285 	.word	0x10003285

10004708 <_exit>:
10004708:	be00      	bkpt	0x0000
1000470a:	e7fd      	b.n	10004708 <_exit>

1000470c <_sbrk>:
1000470c:	4a07      	ldr	r2, [pc, #28]	@ (1000472c <_sbrk+0x20>)
1000470e:	4603      	mov	r3, r0
10004710:	6810      	ldr	r0, [r2, #0]
10004712:	b138      	cbz	r0, 10004724 <_sbrk+0x18>
10004714:	4906      	ldr	r1, [pc, #24]	@ (10004730 <_sbrk+0x24>)
10004716:	4403      	add	r3, r0
10004718:	428b      	cmp	r3, r1
1000471a:	bf8c      	ite	hi
1000471c:	f04f 30ff 	movhi.w	r0, #4294967295	@ 0xffffffff
10004720:	6013      	strls	r3, [r2, #0]
10004722:	4770      	bx	lr
10004724:	4903      	ldr	r1, [pc, #12]	@ (10004734 <_sbrk+0x28>)
10004726:	4608      	mov	r0, r1
10004728:	6011      	str	r1, [r2, #0]
1000472a:	e7f3      	b.n	10004714 <_sbrk+0x8>
1000472c:	20002588 	.word	0x20002588
10004730:	20080000 	.word	0x20080000
10004734:	20002a08 	.word	0x20002a08

10004738 <_gettimeofday>:
10004738:	b190      	cbz	r0, 10004760 <_gettimeofday+0x28>
1000473a:	b510      	push	{r4, lr}
1000473c:	4604      	mov	r4, r0
1000473e:	f7fc feed 	bl	1000151c <time_us_64>
10004742:	4a08      	ldr	r2, [pc, #32]	@ (10004764 <_gettimeofday+0x2c>)
10004744:	e9d2 3200 	ldrd	r3, r2, [r2]
10004748:	1ac0      	subs	r0, r0, r3
1000474a:	eb61 0102 	sbc.w	r1, r1, r2
1000474e:	2300      	movs	r3, #0
10004750:	4a05      	ldr	r2, [pc, #20]	@ (10004768 <_gettimeofday+0x30>)
10004752:	f004 f80d 	bl	10008770 <____aeabi_ldivmod_veneer>
10004756:	e9c4 0100 	strd	r0, r1, [r4]
1000475a:	60a2      	str	r2, [r4, #8]
1000475c:	2000      	movs	r0, #0
1000475e:	bd10      	pop	{r4, pc}
10004760:	2000      	movs	r0, #0
10004762:	4770      	bx	lr
10004764:	20001da8 	.word	0x20001da8
10004768:	000f4240 	.word	0x000f4240

1000476c <_read>:
1000476c:	4603      	mov	r3, r0
1000476e:	4608      	mov	r0, r1
10004770:	4611      	mov	r1, r2
10004772:	b923      	cbnz	r3, 1000477e <_read+0x12>
10004774:	4b03      	ldr	r3, [pc, #12]	@ (10004784 <_read+0x18>)
10004776:	e9d3 2300 	ldrd	r2, r3, [r3]
1000477a:	f000 b939 	b.w	100049f0 <stdio_get_until>
1000477e:	f04f 30ff 	mov.w	r0, #4294967295	@ 0xffffffff
10004782:	4770      	bx	lr
10004784:	10008a18 	.word	0x10008a18

10004788 <_write>:
10004788:	1e43      	subs	r3, r0, #1
1000478a:	2b01      	cmp	r3, #1
1000478c:	d809      	bhi.n	100047a2 <_write+0x1a>
1000478e:	b510      	push	{r4, lr}
10004790:	4614      	mov	r4, r2
10004792:	4608      	mov	r0, r1
10004794:	2301      	movs	r3, #1
10004796:	2200      	movs	r2, #0
10004798:	4621      	mov	r1, r4
1000479a:	f000 f8b3 	bl	10004904 <stdio_put_string>
1000479e:	4620      	mov	r0, r4
100047a0:	bd10      	pop	{r4, pc}
100047a2:	f04f 30ff 	mov.w	r0, #4294967295	@ 0xffffffff
100047a6:	4770      	bx	lr

100047a8 <_close>:
100047a8:	f04f 30ff 	mov.w	r0, #4294967295	@ 0xffffffff
100047ac:	4770      	bx	lr
100047ae:	bf00      	nop

100047b0 <_lseek>:
100047b0:	f04f 30ff 	mov.w	r0, #4294967295	@ 0xffffffff
100047b4:	4770      	bx	lr
100047b6:	bf00      	nop

100047b8 <_fstat>:
100047b8:	f04f 30ff 	mov.w	r0, #4294967295	@ 0xffffffff
100047bc:	4770      	bx	lr
100047be:	bf00      	nop

100047c0 <exit>:
100047c0:	b508      	push	{r3, lr}
100047c2:	f7ff ffa1 	bl	10004708 <_exit>
100047c6:	bf00      	nop

100047c8 <runtime_init>:
100047c8:	b538      	push	{r3, r4, r5, lr}
100047ca:	4c06      	ldr	r4, [pc, #24]	@ (100047e4 <runtime_init+0x1c>)
100047cc:	4d06      	ldr	r5, [pc, #24]	@ (100047e8 <runtime_init+0x20>)
100047ce:	f7fd f867 	bl	100018a0 <runtime_run_initializers>
100047d2:	42ac      	cmp	r4, r5
100047d4:	d204      	bcs.n	100047e0 <runtime_init+0x18>
100047d6:	f854 3b04 	ldr.w	r3, [r4], #4
100047da:	4798      	blx	r3
100047dc:	42ac      	cmp	r4, r5
100047de:	d3fa      	bcc.n	100047d6 <runtime_init+0xe>
100047e0:	bd38      	pop	{r3, r4, r5, pc}
100047e2:	bf00      	nop
100047e4:	100087f0 	.word	0x100087f0
100047e8:	100087f8 	.word	0x100087f8

100047ec <stdio_out_chars_no_crlf>:
100047ec:	6803      	ldr	r3, [r0, #0]
100047ee:	4608      	mov	r0, r1
100047f0:	4611      	mov	r1, r2
100047f2:	4718      	bx	r3

100047f4 <stdio_out_chars_crlf>:
100047f4:	e92d 41f0 	stmdb	sp!, {r4, r5, r6, r7, r8, lr}
100047f8:	4615      	mov	r5, r2
100047fa:	7d42      	ldrb	r2, [r0, #21]
100047fc:	4607      	mov	r7, r0
100047fe:	4688      	mov	r8, r1
10004800:	2a00      	cmp	r2, #0
10004802:	d046      	beq.n	10004892 <stdio_out_chars_crlf+0x9e>
10004804:	2d00      	cmp	r5, #0
10004806:	dd1d      	ble.n	10004844 <stdio_out_chars_crlf+0x50>
10004808:	780b      	ldrb	r3, [r1, #0]
1000480a:	2b0a      	cmp	r3, #10
1000480c:	d023      	beq.n	10004856 <stdio_out_chars_crlf+0x62>
1000480e:	2d01      	cmp	r5, #1
10004810:	f04f 0c00 	mov.w	ip, #0
10004814:	d018      	beq.n	10004848 <stdio_out_chars_crlf+0x54>
10004816:	4646      	mov	r6, r8
10004818:	2401      	movs	r4, #1
1000481a:	f816 2f01 	ldrb.w	r2, [r6, #1]!
1000481e:	4621      	mov	r1, r4
10004820:	2a0a      	cmp	r2, #10
10004822:	f104 0401 	add.w	r4, r4, #1
10004826:	d022      	beq.n	1000486e <stdio_out_chars_crlf+0x7a>
10004828:	42a5      	cmp	r5, r4
1000482a:	d1f6      	bne.n	1000481a <stdio_out_chars_crlf+0x26>
1000482c:	4565      	cmp	r5, ip
1000482e:	dc0b      	bgt.n	10004848 <stdio_out_chars_crlf+0x54>
10004830:	eb08 0305 	add.w	r3, r8, r5
10004834:	f813 3c01 	ldrb.w	r3, [r3, #-1]
10004838:	f1a3 030d 	sub.w	r3, r3, #13
1000483c:	fab3 f383 	clz	r3, r3
10004840:	095b      	lsrs	r3, r3, #5
10004842:	753b      	strb	r3, [r7, #20]
10004844:	e8bd 81f0 	ldmia.w	sp!, {r4, r5, r6, r7, r8, pc}
10004848:	683b      	ldr	r3, [r7, #0]
1000484a:	eba5 010c 	sub.w	r1, r5, ip
1000484e:	eb08 000c 	add.w	r0, r8, ip
10004852:	4798      	blx	r3
10004854:	e7ec      	b.n	10004830 <stdio_out_chars_crlf+0x3c>
10004856:	7d03      	ldrb	r3, [r0, #20]
10004858:	2b00      	cmp	r3, #0
1000485a:	d1d8      	bne.n	1000480e <stdio_out_chars_crlf+0x1a>
1000485c:	6803      	ldr	r3, [r0, #0]
1000485e:	2102      	movs	r1, #2
10004860:	480f      	ldr	r0, [pc, #60]	@ (100048a0 <stdio_out_chars_crlf+0xac>)
10004862:	4798      	blx	r3
10004864:	2d01      	cmp	r5, #1
10004866:	d0e3      	beq.n	10004830 <stdio_out_chars_crlf+0x3c>
10004868:	f04f 0c01 	mov.w	ip, #1
1000486c:	e7d3      	b.n	10004816 <stdio_out_chars_crlf+0x22>
1000486e:	f816 3c01 	ldrb.w	r3, [r6, #-1]
10004872:	2b0d      	cmp	r3, #13
10004874:	d0d8      	beq.n	10004828 <stdio_out_chars_crlf+0x34>
10004876:	458c      	cmp	ip, r1
10004878:	eb08 000c 	add.w	r0, r8, ip
1000487c:	eba1 010c 	sub.w	r1, r1, ip
10004880:	da01      	bge.n	10004886 <stdio_out_chars_crlf+0x92>
10004882:	683b      	ldr	r3, [r7, #0]
10004884:	4798      	blx	r3
10004886:	2102      	movs	r1, #2
10004888:	4805      	ldr	r0, [pc, #20]	@ (100048a0 <stdio_out_chars_crlf+0xac>)
1000488a:	683b      	ldr	r3, [r7, #0]
1000488c:	4798      	blx	r3
1000488e:	46a4      	mov	ip, r4
10004890:	e7ca      	b.n	10004828 <stdio_out_chars_crlf+0x34>
10004892:	4629      	mov	r1, r5
10004894:	4640      	mov	r0, r8
10004896:	683b      	ldr	r3, [r7, #0]
10004898:	e8bd 41f0 	ldmia.w	sp!, {r4, r5, r6, r7, r8, lr}
1000489c:	4718      	bx	r3
1000489e:	bf00      	nop
100048a0:	10008ac8 	.word	0x10008ac8

100048a4 <stdio_buffered_printer>:
100048a4:	680b      	ldr	r3, [r1, #0]
100048a6:	e92d 41f0 	stmdb	sp!, {r4, r5, r6, r7, r8, lr}
100048aa:	2b80      	cmp	r3, #128	@ 0x80
100048ac:	460d      	mov	r5, r1
100048ae:	4606      	mov	r6, r0
100048b0:	d005      	beq.n	100048be <stdio_buffered_printer+0x1a>
100048b2:	1c5a      	adds	r2, r3, #1
100048b4:	442b      	add	r3, r5
100048b6:	602a      	str	r2, [r5, #0]
100048b8:	711e      	strb	r6, [r3, #4]
100048ba:	e8bd 81f0 	ldmia.w	sp!, {r4, r5, r6, r7, r8, pc}
100048be:	4b0f      	ldr	r3, [pc, #60]	@ (100048fc <stdio_buffered_printer+0x58>)
100048c0:	681c      	ldr	r4, [r3, #0]
100048c2:	b1a4      	cbz	r4, 100048ee <stdio_buffered_printer+0x4a>
100048c4:	4f0e      	ldr	r7, [pc, #56]	@ (10004900 <stdio_buffered_printer+0x5c>)
100048c6:	f101 0804 	add.w	r8, r1, #4
100048ca:	e001      	b.n	100048d0 <stdio_buffered_printer+0x2c>
100048cc:	6924      	ldr	r4, [r4, #16]
100048ce:	b174      	cbz	r4, 100048ee <stdio_buffered_printer+0x4a>
100048d0:	6823      	ldr	r3, [r4, #0]
100048d2:	2b00      	cmp	r3, #0
100048d4:	d0fa      	beq.n	100048cc <stdio_buffered_printer+0x28>
100048d6:	683b      	ldr	r3, [r7, #0]
100048d8:	b10b      	cbz	r3, 100048de <stdio_buffered_printer+0x3a>
100048da:	42a3      	cmp	r3, r4
100048dc:	d1f6      	bne.n	100048cc <stdio_buffered_printer+0x28>
100048de:	4620      	mov	r0, r4
100048e0:	4641      	mov	r1, r8
100048e2:	682a      	ldr	r2, [r5, #0]
100048e4:	f7ff ff86 	bl	100047f4 <stdio_out_chars_crlf>
100048e8:	6924      	ldr	r4, [r4, #16]
100048ea:	2c00      	cmp	r4, #0
100048ec:	d1f0      	bne.n	100048d0 <stdio_buffered_printer+0x2c>
100048ee:	2300      	movs	r3, #0
100048f0:	2201      	movs	r2, #1
100048f2:	442b      	add	r3, r5
100048f4:	602a      	str	r2, [r5, #0]
100048f6:	711e      	strb	r6, [r3, #4]
100048f8:	e8bd 81f0 	ldmia.w	sp!, {r4, r5, r6, r7, r8, pc}
100048fc:	20002578 	.word	0x20002578
10004900:	20002584 	.word	0x20002584

10004904 <stdio_put_string>:
10004904:	e92d 47f0 	stmdb	sp!, {r4, r5, r6, r7, r8, r9, sl, lr}
10004908:	b082      	sub	sp, #8
1000490a:	460d      	mov	r5, r1
1000490c:	4691      	mov	r9, r2
1000490e:	461c      	mov	r4, r3
10004910:	4606      	mov	r6, r0
10004912:	f7fc fe03 	bl	1000151c <time_us_64>
10004916:	f04f 3cff 	mov.w	ip, #4294967295	@ 0xffffffff
1000491a:	f06f 4700 	mvn.w	r7, #2147483648	@ 0x80000000
1000491e:	4a2e      	ldr	r2, [pc, #184]	@ (100049d8 <stdio_put_string+0xd4>)
10004920:	1882      	adds	r2, r0, r2
10004922:	f141 0300 	adc.w	r3, r1, #0
10004926:	4594      	cmp	ip, r2
10004928:	eb77 0103 	sbcs.w	r1, r7, r3
1000492c:	bf3c      	itt	cc
1000492e:	4662      	movcc	r2, ip
10004930:	463b      	movcc	r3, r7
10004932:	482a      	ldr	r0, [pc, #168]	@ (100049dc <stdio_put_string+0xd8>)
10004934:	f003 ff2c 	bl	10008790 <__mutex_try_enter_block_until_veneer>
10004938:	1c6b      	adds	r3, r5, #1
1000493a:	4680      	mov	r8, r0
1000493c:	d040      	beq.n	100049c0 <stdio_put_string+0xbc>
1000493e:	b30c      	cbz	r4, 10004984 <stdio_put_string+0x80>
10004940:	4f27      	ldr	r7, [pc, #156]	@ (100049e0 <stdio_put_string+0xdc>)
10004942:	4b28      	ldr	r3, [pc, #160]	@ (100049e4 <stdio_put_string+0xe0>)
10004944:	681c      	ldr	r4, [r3, #0]
10004946:	b1b4      	cbz	r4, 10004976 <stdio_put_string+0x72>
10004948:	f1b9 0f00 	cmp.w	r9, #0
1000494c:	d11c      	bne.n	10004988 <stdio_put_string+0x84>
1000494e:	f8df 909c 	ldr.w	r9, [pc, #156]	@ 100049ec <stdio_put_string+0xe8>
10004952:	e001      	b.n	10004958 <stdio_put_string+0x54>
10004954:	6924      	ldr	r4, [r4, #16]
10004956:	b174      	cbz	r4, 10004976 <stdio_put_string+0x72>
10004958:	6823      	ldr	r3, [r4, #0]
1000495a:	2b00      	cmp	r3, #0
1000495c:	d0fa      	beq.n	10004954 <stdio_put_string+0x50>
1000495e:	f8d9 3000 	ldr.w	r3, [r9]
10004962:	b10b      	cbz	r3, 10004968 <stdio_put_string+0x64>
10004964:	429c      	cmp	r4, r3
10004966:	d1f5      	bne.n	10004954 <stdio_put_string+0x50>
10004968:	4620      	mov	r0, r4
1000496a:	462a      	mov	r2, r5
1000496c:	4631      	mov	r1, r6
1000496e:	47b8      	blx	r7
10004970:	6924      	ldr	r4, [r4, #16]
10004972:	2c00      	cmp	r4, #0
10004974:	d1f0      	bne.n	10004958 <stdio_put_string+0x54>
10004976:	f1b8 0f00 	cmp.w	r8, #0
1000497a:	d126      	bne.n	100049ca <stdio_put_string+0xc6>
1000497c:	4628      	mov	r0, r5
1000497e:	b002      	add	sp, #8
10004980:	e8bd 87f0 	ldmia.w	sp!, {r4, r5, r6, r7, r8, r9, sl, pc}
10004984:	4f18      	ldr	r7, [pc, #96]	@ (100049e8 <stdio_put_string+0xe4>)
10004986:	e7dc      	b.n	10004942 <stdio_put_string+0x3e>
10004988:	f04f 0a0a 	mov.w	sl, #10
1000498c:	f8df 905c 	ldr.w	r9, [pc, #92]	@ 100049ec <stdio_put_string+0xe8>
10004990:	e002      	b.n	10004998 <stdio_put_string+0x94>
10004992:	6924      	ldr	r4, [r4, #16]
10004994:	2c00      	cmp	r4, #0
10004996:	d0ee      	beq.n	10004976 <stdio_put_string+0x72>
10004998:	6823      	ldr	r3, [r4, #0]
1000499a:	2b00      	cmp	r3, #0
1000499c:	d0f9      	beq.n	10004992 <stdio_put_string+0x8e>
1000499e:	f8d9 3000 	ldr.w	r3, [r9]
100049a2:	b10b      	cbz	r3, 100049a8 <stdio_put_string+0xa4>
100049a4:	42a3      	cmp	r3, r4
100049a6:	d1f4      	bne.n	10004992 <stdio_put_string+0x8e>
100049a8:	462a      	mov	r2, r5
100049aa:	4631      	mov	r1, r6
100049ac:	4620      	mov	r0, r4
100049ae:	47b8      	blx	r7
100049b0:	2201      	movs	r2, #1
100049b2:	4620      	mov	r0, r4
100049b4:	f10d 0107 	add.w	r1, sp, #7
100049b8:	f88d a007 	strb.w	sl, [sp, #7]
100049bc:	47b8      	blx	r7
100049be:	e7e8      	b.n	10004992 <stdio_put_string+0x8e>
100049c0:	4630      	mov	r0, r6
100049c2:	f003 fb17 	bl	10007ff4 <strlen>
100049c6:	4605      	mov	r5, r0
100049c8:	e7b9      	b.n	1000493e <stdio_put_string+0x3a>
100049ca:	4804      	ldr	r0, [pc, #16]	@ (100049dc <stdio_put_string+0xd8>)
100049cc:	f003 fecc 	bl	10008768 <__mutex_exit_veneer>
100049d0:	4628      	mov	r0, r5
100049d2:	b002      	add	sp, #8
100049d4:	e8bd 87f0 	ldmia.w	sp!, {r4, r5, r6, r7, r8, r9, sl, pc}
100049d8:	000f4240 	.word	0x000f4240
100049dc:	20001c20 	.word	0x20001c20
100049e0:	100047f5 	.word	0x100047f5
100049e4:	20002578 	.word	0x20002578
100049e8:	100047ed 	.word	0x100047ed
100049ec:	20002584 	.word	0x20002584

100049f0 <stdio_get_until>:
100049f0:	e92d 4ff0 	stmdb	sp!, {r4, r5, r6, r7, r8, r9, sl, fp, lr}
100049f4:	4698      	mov	r8, r3
100049f6:	4607      	mov	r7, r0
100049f8:	460e      	mov	r6, r1
100049fa:	b083      	sub	sp, #12
100049fc:	f8df b060 	ldr.w	fp, [pc, #96]	@ 10004a60 <stdio_get_until+0x70>
10004a00:	f8df 9060 	ldr.w	r9, [pc, #96]	@ 10004a64 <stdio_get_until+0x74>
10004a04:	f8df a060 	ldr.w	sl, [pc, #96]	@ 10004a68 <stdio_get_until+0x78>
10004a08:	9201      	str	r2, [sp, #4]
10004a0a:	f8db 4000 	ldr.w	r4, [fp]
10004a0e:	b914      	cbnz	r4, 10004a16 <stdio_get_until+0x26>
10004a10:	e011      	b.n	10004a36 <stdio_get_until+0x46>
10004a12:	6924      	ldr	r4, [r4, #16]
10004a14:	b17c      	cbz	r4, 10004a36 <stdio_get_until+0x46>
10004a16:	f8d9 5000 	ldr.w	r5, [r9]
10004a1a:	b10d      	cbz	r5, 10004a20 <stdio_get_until+0x30>
10004a1c:	42a5      	cmp	r5, r4
10004a1e:	d1f8      	bne.n	10004a12 <stdio_get_until+0x22>
10004a20:	68a2      	ldr	r2, [r4, #8]
10004a22:	2a00      	cmp	r2, #0
10004a24:	d0f5      	beq.n	10004a12 <stdio_get_until+0x22>
10004a26:	4631      	mov	r1, r6
10004a28:	4638      	mov	r0, r7
10004a2a:	4790      	blx	r2
10004a2c:	2800      	cmp	r0, #0
10004a2e:	ddf0      	ble.n	10004a12 <stdio_get_until+0x22>
10004a30:	b003      	add	sp, #12
10004a32:	e8bd 8ff0 	ldmia.w	sp!, {r4, r5, r6, r7, r8, r9, sl, fp, pc}
10004a36:	f8da 2024 	ldr.w	r2, [sl, #36]	@ 0x24
10004a3a:	4590      	cmp	r8, r2
10004a3c:	d80b      	bhi.n	10004a56 <stdio_get_until+0x66>
10004a3e:	f8da 1028 	ldr.w	r1, [sl, #40]	@ 0x28
10004a42:	9b01      	ldr	r3, [sp, #4]
10004a44:	4299      	cmp	r1, r3
10004a46:	d304      	bcc.n	10004a52 <stdio_get_until+0x62>
10004a48:	f06f 0001 	mvn.w	r0, #1
10004a4c:	b003      	add	sp, #12
10004a4e:	e8bd 8ff0 	ldmia.w	sp!, {r4, r5, r6, r7, r8, r9, sl, fp, pc}
10004a52:	4590      	cmp	r8, r2
10004a54:	d1f8      	bne.n	10004a48 <stdio_get_until+0x58>
10004a56:	2001      	movs	r0, #1
10004a58:	2100      	movs	r1, #0
10004a5a:	f7fc fd69 	bl	10001530 <busy_wait_us>
10004a5e:	e7d4      	b.n	10004a0a <stdio_get_until+0x1a>
10004a60:	20002578 	.word	0x20002578
10004a64:	20002584 	.word	0x20002584
10004a68:	400b0000 	.word	0x400b0000

10004a6c <stdio_set_driver_enabled>:
10004a6c:	4a08      	ldr	r2, [pc, #32]	@ (10004a90 <stdio_set_driver_enabled+0x24>)
10004a6e:	6813      	ldr	r3, [r2, #0]
10004a70:	b923      	cbnz	r3, 10004a7c <stdio_set_driver_enabled+0x10>
10004a72:	e00a      	b.n	10004a8a <stdio_set_driver_enabled+0x1e>
10004a74:	f103 0210 	add.w	r2, r3, #16
10004a78:	691b      	ldr	r3, [r3, #16]
10004a7a:	b133      	cbz	r3, 10004a8a <stdio_set_driver_enabled+0x1e>
10004a7c:	4283      	cmp	r3, r0
10004a7e:	d1f9      	bne.n	10004a74 <stdio_set_driver_enabled+0x8>
10004a80:	b929      	cbnz	r1, 10004a8e <stdio_set_driver_enabled+0x22>
10004a82:	6918      	ldr	r0, [r3, #16]
10004a84:	6010      	str	r0, [r2, #0]
10004a86:	6119      	str	r1, [r3, #16]
10004a88:	4770      	bx	lr
10004a8a:	b101      	cbz	r1, 10004a8e <stdio_set_driver_enabled+0x22>
10004a8c:	6010      	str	r0, [r2, #0]
10004a8e:	4770      	bx	lr
10004a90:	20002578 	.word	0x20002578

10004a94 <stdio_init_all>:
10004a94:	f000 bb24 	b.w	100050e0 <stdio_usb_init>

10004a98 <stdio_getchar_timeout_us>:
10004a98:	e92d 41f0 	stmdb	sp!, {r4, r5, r6, r7, r8, lr}
10004a9c:	b082      	sub	sp, #8
10004a9e:	4606      	mov	r6, r0
10004aa0:	f7fc fd3c 	bl	1000151c <time_us_64>
10004aa4:	f04f 32ff 	mov.w	r2, #4294967295	@ 0xffffffff
10004aa8:	f06f 4300 	mvn.w	r3, #2147483648	@ 0x80000000
10004aac:	1836      	adds	r6, r6, r0
10004aae:	f141 0700 	adc.w	r7, r1, #0
10004ab2:	42b2      	cmp	r2, r6
10004ab4:	eb73 0107 	sbcs.w	r1, r3, r7
10004ab8:	bf3c      	itt	cc
10004aba:	4616      	movcc	r6, r2
10004abc:	461f      	movcc	r7, r3
10004abe:	f8df 8060 	ldr.w	r8, [pc, #96]	@ 10004b20 <stdio_getchar_timeout_us+0x88>
10004ac2:	4d15      	ldr	r5, [pc, #84]	@ (10004b18 <stdio_getchar_timeout_us+0x80>)
10004ac4:	f8d8 4000 	ldr.w	r4, [r8]
10004ac8:	b914      	cbnz	r4, 10004ad0 <stdio_getchar_timeout_us+0x38>
10004aca:	e012      	b.n	10004af2 <stdio_getchar_timeout_us+0x5a>
10004acc:	6924      	ldr	r4, [r4, #16]
10004ace:	b184      	cbz	r4, 10004af2 <stdio_getchar_timeout_us+0x5a>
10004ad0:	682b      	ldr	r3, [r5, #0]
10004ad2:	b10b      	cbz	r3, 10004ad8 <stdio_getchar_timeout_us+0x40>
10004ad4:	429c      	cmp	r4, r3
10004ad6:	d1f9      	bne.n	10004acc <stdio_getchar_timeout_us+0x34>
10004ad8:	68a3      	ldr	r3, [r4, #8]
10004ada:	2b00      	cmp	r3, #0
10004adc:	d0f6      	beq.n	10004acc <stdio_getchar_timeout_us+0x34>
10004ade:	2101      	movs	r1, #1
10004ae0:	a801      	add	r0, sp, #4
10004ae2:	4798      	blx	r3
10004ae4:	2800      	cmp	r0, #0
10004ae6:	ddf1      	ble.n	10004acc <stdio_getchar_timeout_us+0x34>
10004ae8:	f89d 0004 	ldrb.w	r0, [sp, #4]
10004aec:	b002      	add	sp, #8
10004aee:	e8bd 81f0 	ldmia.w	sp!, {r4, r5, r6, r7, r8, pc}
10004af2:	4b0a      	ldr	r3, [pc, #40]	@ (10004b1c <stdio_getchar_timeout_us+0x84>)
10004af4:	6a5a      	ldr	r2, [r3, #36]	@ 0x24
10004af6:	4297      	cmp	r7, r2
10004af8:	d809      	bhi.n	10004b0e <stdio_getchar_timeout_us+0x76>
10004afa:	6a9b      	ldr	r3, [r3, #40]	@ 0x28
10004afc:	42b3      	cmp	r3, r6
10004afe:	d304      	bcc.n	10004b0a <stdio_getchar_timeout_us+0x72>
10004b00:	f06f 0001 	mvn.w	r0, #1
10004b04:	b002      	add	sp, #8
10004b06:	e8bd 81f0 	ldmia.w	sp!, {r4, r5, r6, r7, r8, pc}
10004b0a:	4297      	cmp	r7, r2
10004b0c:	d1f8      	bne.n	10004b00 <stdio_getchar_timeout_us+0x68>
10004b0e:	2001      	movs	r0, #1
10004b10:	2100      	movs	r1, #0
10004b12:	f7fc fd0d 	bl	10001530 <busy_wait_us>
10004b16:	e7d5      	b.n	10004ac4 <stdio_getchar_timeout_us+0x2c>
10004b18:	20002584 	.word	0x20002584
10004b1c:	400b0000 	.word	0x400b0000
10004b20:	20002578 	.word	0x20002578

10004b24 <__wrap_putchar>:
10004b24:	b5f0      	push	{r4, r5, r6, r7, lr}
10004b26:	b083      	sub	sp, #12
10004b28:	4606      	mov	r6, r0
10004b2a:	f88d 0007 	strb.w	r0, [sp, #7]
10004b2e:	f7fc fcf5 	bl	1000151c <time_us_64>
10004b32:	f04f 35ff 	mov.w	r5, #4294967295	@ 0xffffffff
10004b36:	f06f 4400 	mvn.w	r4, #2147483648	@ 0x80000000
10004b3a:	4a17      	ldr	r2, [pc, #92]	@ (10004b98 <__wrap_putchar+0x74>)
10004b3c:	1882      	adds	r2, r0, r2
10004b3e:	f141 0300 	adc.w	r3, r1, #0
10004b42:	4295      	cmp	r5, r2
10004b44:	eb74 0103 	sbcs.w	r1, r4, r3
10004b48:	bf3c      	itt	cc
10004b4a:	4623      	movcc	r3, r4
10004b4c:	462a      	movcc	r2, r5
10004b4e:	4813      	ldr	r0, [pc, #76]	@ (10004b9c <__wrap_putchar+0x78>)
10004b50:	f003 fe1e 	bl	10008790 <__mutex_try_enter_block_until_veneer>
10004b54:	4b12      	ldr	r3, [pc, #72]	@ (10004ba0 <__wrap_putchar+0x7c>)
10004b56:	4607      	mov	r7, r0
10004b58:	681c      	ldr	r4, [r3, #0]
10004b5a:	b19c      	cbz	r4, 10004b84 <__wrap_putchar+0x60>
10004b5c:	4d11      	ldr	r5, [pc, #68]	@ (10004ba4 <__wrap_putchar+0x80>)
10004b5e:	e001      	b.n	10004b64 <__wrap_putchar+0x40>
10004b60:	6924      	ldr	r4, [r4, #16]
10004b62:	b17c      	cbz	r4, 10004b84 <__wrap_putchar+0x60>
10004b64:	6823      	ldr	r3, [r4, #0]
10004b66:	2b00      	cmp	r3, #0
10004b68:	d0fa      	beq.n	10004b60 <__wrap_putchar+0x3c>
10004b6a:	682b      	ldr	r3, [r5, #0]
10004b6c:	b10b      	cbz	r3, 10004b72 <__wrap_putchar+0x4e>
10004b6e:	429c      	cmp	r4, r3
10004b70:	d1f6      	bne.n	10004b60 <__wrap_putchar+0x3c>
10004b72:	4620      	mov	r0, r4
10004b74:	2201      	movs	r2, #1
10004b76:	f10d 0107 	add.w	r1, sp, #7
10004b7a:	f7ff fe3b 	bl	100047f4 <stdio_out_chars_crlf>
10004b7e:	6924      	ldr	r4, [r4, #16]
10004b80:	2c00      	cmp	r4, #0
10004b82:	d1ef      	bne.n	10004b64 <__wrap_putchar+0x40>
10004b84:	b917      	cbnz	r7, 10004b8c <__wrap_putchar+0x68>
10004b86:	4630      	mov	r0, r6
10004b88:	b003      	add	sp, #12
10004b8a:	bdf0      	pop	{r4, r5, r6, r7, pc}
10004b8c:	4803      	ldr	r0, [pc, #12]	@ (10004b9c <__wrap_putchar+0x78>)
10004b8e:	f003 fdeb 	bl	10008768 <__mutex_exit_veneer>
10004b92:	4630      	mov	r0, r6
10004b94:	b003      	add	sp, #12
10004b96:	bdf0      	pop	{r4, r5, r6, r7, pc}
10004b98:	000f4240 	.word	0x000f4240
10004b9c:	20001c20 	.word	0x20001c20
10004ba0:	20002578 	.word	0x20002578
10004ba4:	20002584 	.word	0x20002584

10004ba8 <__wrap_puts>:
10004ba8:	b538      	push	{r3, r4, r5, lr}
10004baa:	4604      	mov	r4, r0
10004bac:	f003 fa22 	bl	10007ff4 <strlen>
10004bb0:	2301      	movs	r3, #1
10004bb2:	4605      	mov	r5, r0
10004bb4:	461a      	mov	r2, r3
10004bb6:	4620      	mov	r0, r4
10004bb8:	4629      	mov	r1, r5
10004bba:	f7ff fea3 	bl	10004904 <stdio_put_string>
10004bbe:	4b08      	ldr	r3, [pc, #32]	@ (10004be0 <__wrap_puts+0x38>)
10004bc0:	681c      	ldr	r4, [r3, #0]
10004bc2:	b12c      	cbz	r4, 10004bd0 <__wrap_puts+0x28>
10004bc4:	6863      	ldr	r3, [r4, #4]
10004bc6:	b12b      	cbz	r3, 10004bd4 <__wrap_puts+0x2c>
10004bc8:	4798      	blx	r3
10004bca:	6924      	ldr	r4, [r4, #16]
10004bcc:	2c00      	cmp	r4, #0
10004bce:	d1f9      	bne.n	10004bc4 <__wrap_puts+0x1c>
10004bd0:	4628      	mov	r0, r5
10004bd2:	bd38      	pop	{r3, r4, r5, pc}
10004bd4:	6924      	ldr	r4, [r4, #16]
10004bd6:	2c00      	cmp	r4, #0
10004bd8:	d1f4      	bne.n	10004bc4 <__wrap_puts+0x1c>
10004bda:	4628      	mov	r0, r5
10004bdc:	bd38      	pop	{r3, r4, r5, pc}
10004bde:	bf00      	nop
10004be0:	20002578 	.word	0x20002578

10004be4 <__wrap_vprintf>:
10004be4:	e92d 41f0 	stmdb	sp!, {r4, r5, r6, r7, r8, lr}
10004be8:	b0a2      	sub	sp, #136	@ 0x88
10004bea:	4604      	mov	r4, r0
10004bec:	460d      	mov	r5, r1
10004bee:	f7fc fc95 	bl	1000151c <time_us_64>
10004bf2:	f04f 37ff 	mov.w	r7, #4294967295	@ 0xffffffff
10004bf6:	f06f 4600 	mvn.w	r6, #2147483648	@ 0x80000000
10004bfa:	4a26      	ldr	r2, [pc, #152]	@ (10004c94 <__wrap_vprintf+0xb0>)
10004bfc:	f8df 80a4 	ldr.w	r8, [pc, #164]	@ 10004ca4 <__wrap_vprintf+0xc0>
10004c00:	1882      	adds	r2, r0, r2
10004c02:	f141 0300 	adc.w	r3, r1, #0
10004c06:	4297      	cmp	r7, r2
10004c08:	eb76 0103 	sbcs.w	r1, r6, r3
10004c0c:	bf3c      	itt	cc
10004c0e:	463a      	movcc	r2, r7
10004c10:	4633      	movcc	r3, r6
10004c12:	4821      	ldr	r0, [pc, #132]	@ (10004c98 <__wrap_vprintf+0xb4>)
10004c14:	f003 fdbc 	bl	10008790 <__mutex_try_enter_block_until_veneer>
10004c18:	2700      	movs	r7, #0
10004c1a:	462b      	mov	r3, r5
10004c1c:	4622      	mov	r2, r4
10004c1e:	4606      	mov	r6, r0
10004c20:	a901      	add	r1, sp, #4
10004c22:	481e      	ldr	r0, [pc, #120]	@ (10004c9c <__wrap_vprintf+0xb8>)
10004c24:	9701      	str	r7, [sp, #4]
10004c26:	f7ff fd43 	bl	100046b0 <vfctprintf>
10004c2a:	9b01      	ldr	r3, [sp, #4]
10004c2c:	4605      	mov	r5, r0
10004c2e:	f8d8 4000 	ldr.w	r4, [r8]
10004c32:	b1c3      	cbz	r3, 10004c66 <__wrap_vprintf+0x82>
10004c34:	2c00      	cmp	r4, #0
10004c36:	d02b      	beq.n	10004c90 <__wrap_vprintf+0xac>
10004c38:	4f19      	ldr	r7, [pc, #100]	@ (10004ca0 <__wrap_vprintf+0xbc>)
10004c3a:	e001      	b.n	10004c40 <__wrap_vprintf+0x5c>
10004c3c:	6924      	ldr	r4, [r4, #16]
10004c3e:	b174      	cbz	r4, 10004c5e <__wrap_vprintf+0x7a>
10004c40:	6823      	ldr	r3, [r4, #0]
10004c42:	2b00      	cmp	r3, #0
10004c44:	d0fa      	beq.n	10004c3c <__wrap_vprintf+0x58>
10004c46:	683b      	ldr	r3, [r7, #0]
10004c48:	b10b      	cbz	r3, 10004c4e <__wrap_vprintf+0x6a>
10004c4a:	42a3      	cmp	r3, r4
10004c4c:	d1f6      	bne.n	10004c3c <__wrap_vprintf+0x58>
10004c4e:	4620      	mov	r0, r4
10004c50:	9a01      	ldr	r2, [sp, #4]
10004c52:	a902      	add	r1, sp, #8
10004c54:	f7ff fdce 	bl	100047f4 <stdio_out_chars_crlf>
10004c58:	6924      	ldr	r4, [r4, #16]
10004c5a:	2c00      	cmp	r4, #0
10004c5c:	d1f0      	bne.n	10004c40 <__wrap_vprintf+0x5c>
10004c5e:	2300      	movs	r3, #0
10004c60:	f8d8 4000 	ldr.w	r4, [r8]
10004c64:	9301      	str	r3, [sp, #4]
10004c66:	b12c      	cbz	r4, 10004c74 <__wrap_vprintf+0x90>
10004c68:	6863      	ldr	r3, [r4, #4]
10004c6a:	b143      	cbz	r3, 10004c7e <__wrap_vprintf+0x9a>
10004c6c:	4798      	blx	r3
10004c6e:	6924      	ldr	r4, [r4, #16]
10004c70:	2c00      	cmp	r4, #0
10004c72:	d1f9      	bne.n	10004c68 <__wrap_vprintf+0x84>
10004c74:	b92e      	cbnz	r6, 10004c82 <__wrap_vprintf+0x9e>
10004c76:	4628      	mov	r0, r5
10004c78:	b022      	add	sp, #136	@ 0x88
10004c7a:	e8bd 81f0 	ldmia.w	sp!, {r4, r5, r6, r7, r8, pc}
10004c7e:	6924      	ldr	r4, [r4, #16]
10004c80:	e7f1      	b.n	10004c66 <__wrap_vprintf+0x82>
10004c82:	4805      	ldr	r0, [pc, #20]	@ (10004c98 <__wrap_vprintf+0xb4>)
10004c84:	f003 fd70 	bl	10008768 <__mutex_exit_veneer>
10004c88:	4628      	mov	r0, r5
10004c8a:	b022      	add	sp, #136	@ 0x88
10004c8c:	e8bd 81f0 	ldmia.w	sp!, {r4, r5, r6, r7, r8, pc}
10004c90:	9401      	str	r4, [sp, #4]
10004c92:	e7ef      	b.n	10004c74 <__wrap_vprintf+0x90>
10004c94:	000f4240 	.word	0x000f4240
10004c98:	20001c20 	.word	0x20001c20
10004c9c:	100048a5 	.word	0x100048a5
10004ca0:	20002584 	.word	0x20002584
10004ca4:	20002578 	.word	0x20002578

10004ca8 <__wrap_printf>:
10004ca8:	b40f      	push	{r0, r1, r2, r3}
10004caa:	b500      	push	{lr}
10004cac:	b083      	sub	sp, #12
10004cae:	a904      	add	r1, sp, #16
10004cb0:	f851 0b04 	ldr.w	r0, [r1], #4
10004cb4:	9101      	str	r1, [sp, #4]
10004cb6:	f7ff ff95 	bl	10004be4 <__wrap_vprintf>
10004cba:	b003      	add	sp, #12
10004cbc:	f85d eb04 	ldr.w	lr, [sp], #4
10004cc0:	b004      	add	sp, #16
10004cc2:	4770      	bx	lr

10004cc4 <resetd_init>:
10004cc4:	4770      	bx	lr
10004cc6:	bf00      	nop

10004cc8 <resetd_reset>:
10004cc8:	2200      	movs	r2, #0
10004cca:	4b01      	ldr	r3, [pc, #4]	@ (10004cd0 <resetd_reset+0x8>)
10004ccc:	701a      	strb	r2, [r3, #0]
10004cce:	4770      	bx	lr
10004cd0:	20002a01 	.word	0x20002a01

10004cd4 <resetd_open>:
10004cd4:	794b      	ldrb	r3, [r1, #5]
10004cd6:	2bff      	cmp	r3, #255	@ 0xff
10004cd8:	d10b      	bne.n	10004cf2 <resetd_open+0x1e>
10004cda:	7988      	ldrb	r0, [r1, #6]
10004cdc:	b948      	cbnz	r0, 10004cf2 <resetd_open+0x1e>
10004cde:	79cb      	ldrb	r3, [r1, #7]
10004ce0:	2b01      	cmp	r3, #1
10004ce2:	d107      	bne.n	10004cf4 <resetd_open+0x20>
10004ce4:	2a08      	cmp	r2, #8
10004ce6:	d905      	bls.n	10004cf4 <resetd_open+0x20>
10004ce8:	4b03      	ldr	r3, [pc, #12]	@ (10004cf8 <resetd_open+0x24>)
10004cea:	788a      	ldrb	r2, [r1, #2]
10004cec:	2009      	movs	r0, #9
10004cee:	701a      	strb	r2, [r3, #0]
10004cf0:	4770      	bx	lr
10004cf2:	2000      	movs	r0, #0
10004cf4:	4770      	bx	lr
10004cf6:	bf00      	nop
10004cf8:	20002a01 	.word	0x20002a01

10004cfc <resetd_xfer_cb>:
10004cfc:	2001      	movs	r0, #1
10004cfe:	4770      	bx	lr

10004d00 <resetd_control_xfer_cb>:
10004d00:	2901      	cmp	r1, #1
10004d02:	d001      	beq.n	10004d08 <resetd_control_xfer_cb+0x8>
10004d04:	2001      	movs	r0, #1
10004d06:	4770      	bx	lr
10004d08:	b508      	push	{r3, lr}
10004d0a:	4b10      	ldr	r3, [pc, #64]	@ (10004d4c <resetd_control_xfer_cb+0x4c>)
10004d0c:	8891      	ldrh	r1, [r2, #4]
10004d0e:	781b      	ldrb	r3, [r3, #0]
10004d10:	4299      	cmp	r1, r3
10004d12:	d001      	beq.n	10004d18 <resetd_control_xfer_cb+0x18>
10004d14:	2000      	movs	r0, #0
10004d16:	bd08      	pop	{r3, pc}
10004d18:	7853      	ldrb	r3, [r2, #1]
10004d1a:	2b01      	cmp	r3, #1
10004d1c:	d008      	beq.n	10004d30 <resetd_control_xfer_cb+0x30>
10004d1e:	2b02      	cmp	r3, #2
10004d20:	d1f8      	bne.n	10004d14 <resetd_control_xfer_cb+0x14>
10004d22:	2100      	movs	r1, #0
10004d24:	2264      	movs	r2, #100	@ 0x64
10004d26:	4608      	mov	r0, r1
10004d28:	f7fc fcf6 	bl	10001718 <watchdog_reboot>
10004d2c:	2001      	movs	r0, #1
10004d2e:	bd08      	pop	{r3, pc}
10004d30:	8851      	ldrh	r1, [r2, #2]
10004d32:	05cb      	lsls	r3, r1, #23
10004d34:	bf48      	it	mi
10004d36:	0a48      	lsrmi	r0, r1, #9
10004d38:	f3c1 2240 	ubfx	r2, r1, #9, #1
10004d3c:	bf58      	it	pl
10004d3e:	f04f 30ff 	movpl.w	r0, #4294967295	@ 0xffffffff
10004d42:	f001 017f 	and.w	r1, r1, #127	@ 0x7f
10004d46:	f7fc fd65 	bl	10001814 <rom_reset_usb_boot_extra>
10004d4a:	bf00      	nop
10004d4c:	20002a01 	.word	0x20002a01

10004d50 <tud_descriptor_bos_cb>:
10004d50:	4800      	ldr	r0, [pc, #0]	@ (10004d54 <tud_descriptor_bos_cb+0x4>)
10004d52:	4770      	bx	lr
10004d54:	10008b94 	.word	0x10008b94

10004d58 <tud_vendor_control_xfer_cb>:
10004d58:	2901      	cmp	r1, #1
10004d5a:	d107      	bne.n	10004d6c <tud_vendor_control_xfer_cb+0x14>
10004d5c:	7853      	ldrb	r3, [r2, #1]
10004d5e:	2b01      	cmp	r3, #1
10004d60:	d102      	bne.n	10004d68 <tud_vendor_control_xfer_cb+0x10>
10004d62:	8893      	ldrh	r3, [r2, #4]
10004d64:	2b07      	cmp	r3, #7
10004d66:	d003      	beq.n	10004d70 <tud_vendor_control_xfer_cb+0x18>
10004d68:	2000      	movs	r0, #0
10004d6a:	4770      	bx	lr
10004d6c:	2001      	movs	r0, #1
10004d6e:	4770      	bx	lr
10004d70:	4611      	mov	r1, r2
10004d72:	23a6      	movs	r3, #166	@ 0xa6
10004d74:	4a01      	ldr	r2, [pc, #4]	@ (10004d7c <tud_vendor_control_xfer_cb+0x24>)
10004d76:	f001 ba3d 	b.w	100061f4 <tud_control_xfer>
10004d7a:	bf00      	nop
10004d7c:	10008aec 	.word	0x10008aec

10004d80 <usbd_app_driver_get_cb>:
10004d80:	4603      	mov	r3, r0
10004d82:	2201      	movs	r2, #1
10004d84:	4801      	ldr	r0, [pc, #4]	@ (10004d8c <usbd_app_driver_get_cb+0xc>)
10004d86:	701a      	strb	r2, [r3, #0]
10004d88:	4770      	bx	lr
10004d8a:	bf00      	nop
10004d8c:	10008acc 	.word	0x10008acc

10004d90 <tud_cdc_line_coding_cb>:
10004d90:	b508      	push	{r3, lr}
10004d92:	680b      	ldr	r3, [r1, #0]
10004d94:	f5b3 6f96 	cmp.w	r3, #1200	@ 0x4b0
10004d98:	d000      	beq.n	10004d9c <tud_cdc_line_coding_cb+0xc>
10004d9a:	bd08      	pop	{r3, pc}
10004d9c:	2200      	movs	r2, #0
10004d9e:	f04f 30ff 	mov.w	r0, #4294967295	@ 0xffffffff
10004da2:	4611      	mov	r1, r2
10004da4:	f7fc fd36 	bl	10001814 <rom_reset_usb_boot_extra>

10004da8 <stdio_usb_set_chars_available_callback>:
10004da8:	4a02      	ldr	r2, [pc, #8]	@ (10004db4 <stdio_usb_set_chars_available_callback+0xc>)
10004daa:	4b03      	ldr	r3, [pc, #12]	@ (10004db8 <stdio_usb_set_chars_available_callback+0x10>)
10004dac:	6010      	str	r0, [r2, #0]
10004dae:	6019      	str	r1, [r3, #0]
10004db0:	4770      	bx	lr
10004db2:	bf00      	nop
10004db4:	20002518 	.word	0x20002518
10004db8:	2000251c 	.word	0x2000251c

10004dbc <timer_task>:
10004dbc:	4b18      	ldr	r3, [pc, #96]	@ (10004e20 <timer_task+0x64>)
10004dbe:	b570      	push	{r4, r5, r6, lr}
10004dc0:	681a      	ldr	r2, [r3, #0]
10004dc2:	2a00      	cmp	r2, #0
10004dc4:	d028      	beq.n	10004e18 <timer_task+0x5c>
10004dc6:	f3ef 8110 	mrs	r1, PRIMASK
10004dca:	b672      	cpsid	i
10004dcc:	e8d2 4fcf 	ldaexb	r4, [r2]
10004dd0:	2001      	movs	r0, #1
10004dd2:	2c00      	cmp	r4, #0
10004dd4:	d1fa      	bne.n	10004dcc <timer_task+0x10>
10004dd6:	e8c2 0f44 	strexb	r4, r0, [r2]
10004dda:	2c00      	cmp	r4, #0
10004ddc:	d1f6      	bne.n	10004dcc <timer_task+0x10>
10004dde:	f3bf 8f5f 	dmb	sy
10004de2:	2200      	movs	r2, #0
10004de4:	4c0f      	ldr	r4, [pc, #60]	@ (10004e24 <timer_task+0x68>)
10004de6:	6818      	ldr	r0, [r3, #0]
10004de8:	6059      	str	r1, [r3, #4]
10004dea:	7022      	strb	r2, [r4, #0]
10004dec:	e8c0 2f8f 	stlb	r2, [r0]
10004df0:	f381 8810 	msr	PRIMASK, r1
10004df4:	2400      	movs	r4, #0
10004df6:	2500      	movs	r5, #0
10004df8:	4e0b      	ldr	r6, [pc, #44]	@ (10004e28 <timer_task+0x6c>)
10004dfa:	7830      	ldrb	r0, [r6, #0]
10004dfc:	f7fb fd5a 	bl	100008b4 <irq_is_enabled>
10004e00:	b920      	cbnz	r0, 10004e0c <timer_task+0x50>
10004e02:	2400      	movs	r4, #0
10004e04:	2500      	movs	r5, #0
10004e06:	4620      	mov	r0, r4
10004e08:	4629      	mov	r1, r5
10004e0a:	bd70      	pop	{r4, r5, r6, pc}
10004e0c:	7830      	ldrb	r0, [r6, #0]
10004e0e:	f7fb fd61 	bl	100008d4 <irq_set_pending>
10004e12:	4620      	mov	r0, r4
10004e14:	4629      	mov	r1, r5
10004e16:	bd70      	pop	{r4, r5, r6, pc}
10004e18:	f44f 747a 	mov.w	r4, #1000	@ 0x3e8
10004e1c:	2500      	movs	r5, #0
10004e1e:	e7eb      	b.n	10004df8 <timer_task+0x3c>
10004e20:	200029b0 	.word	0x200029b0
10004e24:	20002a03 	.word	0x20002a03
10004e28:	20002a02 	.word	0x20002a02

10004e2c <usb_irq>:
10004e2c:	4b01      	ldr	r3, [pc, #4]	@ (10004e34 <usb_irq+0x8>)
10004e2e:	7818      	ldrb	r0, [r3, #0]
10004e30:	f7fb bd50 	b.w	100008d4 <irq_set_pending>
10004e34:	20002a02 	.word	0x20002a02

10004e38 <stdio_usb_in_chars>:
10004e38:	b538      	push	{r3, r4, r5, lr}
10004e3a:	4604      	mov	r4, r0
10004e3c:	2000      	movs	r0, #0
10004e3e:	460d      	mov	r5, r1
10004e40:	f001 fb08 	bl	10006454 <tud_cdc_n_connected>
10004e44:	b3a8      	cbz	r0, 10004eb2 <stdio_usb_in_chars+0x7a>
10004e46:	2000      	movs	r0, #0
10004e48:	f001 fb1a 	bl	10006480 <tud_cdc_n_available>
10004e4c:	b388      	cbz	r0, 10004eb2 <stdio_usb_in_chars+0x7a>
10004e4e:	f7fc fb65 	bl	1000151c <time_us_64>
10004e52:	f04f 3eff 	mov.w	lr, #4294967295	@ 0xffffffff
10004e56:	f06f 4c00 	mvn.w	ip, #2147483648	@ 0x80000000
10004e5a:	4a17      	ldr	r2, [pc, #92]	@ (10004eb8 <stdio_usb_in_chars+0x80>)
10004e5c:	1882      	adds	r2, r0, r2
10004e5e:	f141 0300 	adc.w	r3, r1, #0
10004e62:	4596      	cmp	lr, r2
10004e64:	eb7c 0103 	sbcs.w	r1, ip, r3
10004e68:	bf3c      	itt	cc
10004e6a:	4672      	movcc	r2, lr
10004e6c:	4663      	movcc	r3, ip
10004e6e:	4813      	ldr	r0, [pc, #76]	@ (10004ebc <stdio_usb_in_chars+0x84>)
10004e70:	f003 fc8e 	bl	10008790 <__mutex_try_enter_block_until_veneer>
10004e74:	b1e8      	cbz	r0, 10004eb2 <stdio_usb_in_chars+0x7a>
10004e76:	2000      	movs	r0, #0
10004e78:	f001 faec 	bl	10006454 <tud_cdc_n_connected>
10004e7c:	b958      	cbnz	r0, 10004e96 <stdio_usb_in_chars+0x5e>
10004e7e:	2100      	movs	r1, #0
10004e80:	f04f 30ff 	mov.w	r0, #4294967295	@ 0xffffffff
10004e84:	f000 fd0e 	bl	100058a4 <tud_task_ext>
10004e88:	f06f 0402 	mvn.w	r4, #2
10004e8c:	480b      	ldr	r0, [pc, #44]	@ (10004ebc <stdio_usb_in_chars+0x84>)
10004e8e:	f003 fc6b 	bl	10008768 <__mutex_exit_veneer>
10004e92:	4620      	mov	r0, r4
10004e94:	bd38      	pop	{r3, r4, r5, pc}
10004e96:	2000      	movs	r0, #0
10004e98:	f001 faf2 	bl	10006480 <tud_cdc_n_available>
10004e9c:	2800      	cmp	r0, #0
10004e9e:	d0ee      	beq.n	10004e7e <stdio_usb_in_chars+0x46>
10004ea0:	4621      	mov	r1, r4
10004ea2:	462a      	mov	r2, r5
10004ea4:	2000      	movs	r0, #0
10004ea6:	f001 faf5 	bl	10006494 <tud_cdc_n_read>
10004eaa:	4604      	mov	r4, r0
10004eac:	2800      	cmp	r0, #0
10004eae:	d1ed      	bne.n	10004e8c <stdio_usb_in_chars+0x54>
10004eb0:	e7ea      	b.n	10004e88 <stdio_usb_in_chars+0x50>
10004eb2:	f06f 0402 	mvn.w	r4, #2
10004eb6:	e7ec      	b.n	10004e92 <stdio_usb_in_chars+0x5a>
10004eb8:	000f4240 	.word	0x000f4240
10004ebc:	200029e4 	.word	0x200029e4

10004ec0 <stdio_usb_out_flush>:
10004ec0:	b508      	push	{r3, lr}
10004ec2:	f7fc fb2b 	bl	1000151c <time_us_64>
10004ec6:	f04f 3eff 	mov.w	lr, #4294967295	@ 0xffffffff
10004eca:	f06f 4c00 	mvn.w	ip, #2147483648	@ 0x80000000
10004ece:	4a0f      	ldr	r2, [pc, #60]	@ (10004f0c <stdio_usb_out_flush+0x4c>)
10004ed0:	1882      	adds	r2, r0, r2
10004ed2:	f141 0300 	adc.w	r3, r1, #0
10004ed6:	4596      	cmp	lr, r2
10004ed8:	eb7c 0103 	sbcs.w	r1, ip, r3
10004edc:	bf3c      	itt	cc
10004ede:	4672      	movcc	r2, lr
10004ee0:	4663      	movcc	r3, ip
10004ee2:	480b      	ldr	r0, [pc, #44]	@ (10004f10 <stdio_usb_out_flush+0x50>)
10004ee4:	f003 fc54 	bl	10008790 <__mutex_try_enter_block_until_veneer>
10004ee8:	b170      	cbz	r0, 10004f08 <stdio_usb_out_flush+0x48>
10004eea:	f04f 30ff 	mov.w	r0, #4294967295	@ 0xffffffff
10004eee:	2100      	movs	r1, #0
10004ef0:	f000 fcd8 	bl	100058a4 <tud_task_ext>
10004ef4:	2000      	movs	r0, #0
10004ef6:	f001 fb15 	bl	10006524 <tud_cdc_n_write_flush>
10004efa:	2800      	cmp	r0, #0
10004efc:	d1f5      	bne.n	10004eea <stdio_usb_out_flush+0x2a>
10004efe:	e8bd 4008 	ldmia.w	sp!, {r3, lr}
10004f02:	4803      	ldr	r0, [pc, #12]	@ (10004f10 <stdio_usb_out_flush+0x50>)
10004f04:	f003 bc30 	b.w	10008768 <__mutex_exit_veneer>
10004f08:	bd08      	pop	{r3, pc}
10004f0a:	bf00      	nop
10004f0c:	000f4240 	.word	0x000f4240
10004f10:	200029e4 	.word	0x200029e4

10004f14 <stdio_usb_out_chars>:
10004f14:	e92d 43f8 	stmdb	sp!, {r3, r4, r5, r6, r7, r8, r9, lr}
10004f18:	4680      	mov	r8, r0
10004f1a:	460f      	mov	r7, r1
10004f1c:	f7fc fafe 	bl	1000151c <time_us_64>
10004f20:	f04f 35ff 	mov.w	r5, #4294967295	@ 0xffffffff
10004f24:	f06f 4400 	mvn.w	r4, #2147483648	@ 0x80000000
10004f28:	4a33      	ldr	r2, [pc, #204]	@ (10004ff8 <stdio_usb_out_chars+0xe4>)
10004f2a:	1882      	adds	r2, r0, r2
10004f2c:	f141 0300 	adc.w	r3, r1, #0
10004f30:	4295      	cmp	r5, r2
10004f32:	eb74 0103 	sbcs.w	r1, r4, r3
10004f36:	bf3c      	itt	cc
10004f38:	462a      	movcc	r2, r5
10004f3a:	4623      	movcc	r3, r4
10004f3c:	482f      	ldr	r0, [pc, #188]	@ (10004ffc <stdio_usb_out_chars+0xe8>)
10004f3e:	f003 fc27 	bl	10008790 <__mutex_try_enter_block_until_veneer>
10004f42:	b908      	cbnz	r0, 10004f48 <stdio_usb_out_chars+0x34>
10004f44:	e8bd 83f8 	ldmia.w	sp!, {r3, r4, r5, r6, r7, r8, r9, pc}
10004f48:	2000      	movs	r0, #0
10004f4a:	f001 fa83 	bl	10006454 <tud_cdc_n_connected>
10004f4e:	2800      	cmp	r0, #0
10004f50:	d047      	beq.n	10004fe2 <stdio_usb_out_chars+0xce>
10004f52:	2f00      	cmp	r7, #0
10004f54:	dd40      	ble.n	10004fd8 <stdio_usb_out_chars+0xc4>
10004f56:	2500      	movs	r5, #0
10004f58:	f8df 90a8 	ldr.w	r9, [pc, #168]	@ 10005004 <stdio_usb_out_chars+0xf0>
10004f5c:	4e28      	ldr	r6, [pc, #160]	@ (10005000 <stdio_usb_out_chars+0xec>)
10004f5e:	e013      	b.n	10004f88 <stdio_usb_out_chars+0x74>
10004f60:	4622      	mov	r2, r4
10004f62:	2000      	movs	r0, #0
10004f64:	f001 fb24 	bl	100065b0 <tud_cdc_n_write>
10004f68:	2100      	movs	r1, #0
10004f6a:	4604      	mov	r4, r0
10004f6c:	f04f 30ff 	mov.w	r0, #4294967295	@ 0xffffffff
10004f70:	f000 fc98 	bl	100058a4 <tud_task_ext>
10004f74:	2000      	movs	r0, #0
10004f76:	f001 fad5 	bl	10006524 <tud_cdc_n_write_flush>
10004f7a:	f7fc facf 	bl	1000151c <time_us_64>
10004f7e:	e9c9 0100 	strd	r0, r1, [r9]
10004f82:	4425      	add	r5, r4
10004f84:	42af      	cmp	r7, r5
10004f86:	dd27      	ble.n	10004fd8 <stdio_usb_out_chars+0xc4>
10004f88:	2000      	movs	r0, #0
10004f8a:	f001 fb31 	bl	100065f0 <tud_cdc_n_write_available>
10004f8e:	1b7c      	subs	r4, r7, r5
10004f90:	4284      	cmp	r4, r0
10004f92:	bfa8      	it	ge
10004f94:	4604      	movge	r4, r0
10004f96:	eb08 0105 	add.w	r1, r8, r5
10004f9a:	2c00      	cmp	r4, #0
10004f9c:	d1e0      	bne.n	10004f60 <stdio_usb_out_chars+0x4c>
10004f9e:	4621      	mov	r1, r4
10004fa0:	f04f 30ff 	mov.w	r0, #4294967295	@ 0xffffffff
10004fa4:	f000 fc7e 	bl	100058a4 <tud_task_ext>
10004fa8:	4620      	mov	r0, r4
10004faa:	f001 fabb 	bl	10006524 <tud_cdc_n_write_flush>
10004fae:	4620      	mov	r0, r4
10004fb0:	f001 fa50 	bl	10006454 <tud_cdc_n_connected>
10004fb4:	b180      	cbz	r0, 10004fd8 <stdio_usb_out_chars+0xc4>
10004fb6:	4620      	mov	r0, r4
10004fb8:	f001 fb1a 	bl	100065f0 <tud_cdc_n_write_available>
10004fbc:	2800      	cmp	r0, #0
10004fbe:	d1e1      	bne.n	10004f84 <stdio_usb_out_chars+0x70>
10004fc0:	f7fc faac 	bl	1000151c <time_us_64>
10004fc4:	f8d9 3000 	ldr.w	r3, [r9]
10004fc8:	f8d9 2004 	ldr.w	r2, [r9, #4]
10004fcc:	199b      	adds	r3, r3, r6
10004fce:	f142 0200 	adc.w	r2, r2, #0
10004fd2:	4283      	cmp	r3, r0
10004fd4:	418a      	sbcs	r2, r1
10004fd6:	d2d5      	bcs.n	10004f84 <stdio_usb_out_chars+0x70>
10004fd8:	4808      	ldr	r0, [pc, #32]	@ (10004ffc <stdio_usb_out_chars+0xe8>)
10004fda:	e8bd 43f8 	ldmia.w	sp!, {r3, r4, r5, r6, r7, r8, r9, lr}
10004fde:	f003 bbc3 	b.w	10008768 <__mutex_exit_veneer>
10004fe2:	2000      	movs	r0, #0
10004fe4:	2100      	movs	r1, #0
10004fe6:	4b07      	ldr	r3, [pc, #28]	@ (10005004 <stdio_usb_out_chars+0xf0>)
10004fe8:	e9c3 0100 	strd	r0, r1, [r3]
10004fec:	e8bd 43f8 	ldmia.w	sp!, {r3, r4, r5, r6, r7, r8, r9, lr}
10004ff0:	4802      	ldr	r0, [pc, #8]	@ (10004ffc <stdio_usb_out_chars+0xe8>)
10004ff2:	f003 bbb9 	b.w	10008768 <__mutex_exit_veneer>
10004ff6:	bf00      	nop
10004ff8:	000f4240 	.word	0x000f4240
10004ffc:	200029e4 	.word	0x200029e4
10005000:	0007a120 	.word	0x0007a120
10005004:	20001de0 	.word	0x20001de0

10005008 <low_priority_worker_irq>:
10005008:	b530      	push	{r4, r5, lr}
1000500a:	2100      	movs	r1, #0
1000500c:	b085      	sub	sp, #20
1000500e:	482e      	ldr	r0, [pc, #184]	@ (100050c8 <low_priority_worker_irq+0xc0>)
10005010:	f003 fbca 	bl	100087a8 <__mutex_try_enter_veneer>
10005014:	b9f0      	cbnz	r0, 10005054 <low_priority_worker_irq+0x4c>
10005016:	4b2d      	ldr	r3, [pc, #180]	@ (100050cc <low_priority_worker_irq+0xc4>)
10005018:	681a      	ldr	r2, [r3, #0]
1000501a:	b1ca      	cbz	r2, 10005050 <low_priority_worker_irq+0x48>
1000501c:	f3ef 8110 	mrs	r1, PRIMASK
10005020:	b672      	cpsid	i
10005022:	e8d2 5fcf 	ldaexb	r5, [r2]
10005026:	2401      	movs	r4, #1
10005028:	2d00      	cmp	r5, #0
1000502a:	d1fa      	bne.n	10005022 <low_priority_worker_irq+0x1a>
1000502c:	e8c2 4f45 	strexb	r5, r4, [r2]
10005030:	2d00      	cmp	r5, #0
10005032:	d1f6      	bne.n	10005022 <low_priority_worker_irq+0x1a>
10005034:	f3bf 8f5f 	dmb	sy
10005038:	4c25      	ldr	r4, [pc, #148]	@ (100050d0 <low_priority_worker_irq+0xc8>)
1000503a:	681d      	ldr	r5, [r3, #0]
1000503c:	7822      	ldrb	r2, [r4, #0]
1000503e:	6059      	str	r1, [r3, #4]
10005040:	b2d3      	uxtb	r3, r2
10005042:	2201      	movs	r2, #1
10005044:	7022      	strb	r2, [r4, #0]
10005046:	e8c5 0f8f 	stlb	r0, [r5]
1000504a:	f381 8810 	msr	PRIMASK, r1
1000504e:	b1cb      	cbz	r3, 10005084 <low_priority_worker_irq+0x7c>
10005050:	b005      	add	sp, #20
10005052:	bd30      	pop	{r4, r5, pc}
10005054:	2100      	movs	r1, #0
10005056:	f04f 30ff 	mov.w	r0, #4294967295	@ 0xffffffff
1000505a:	f000 fc23 	bl	100058a4 <tud_task_ext>
1000505e:	2000      	movs	r0, #0
10005060:	f001 fa0e 	bl	10006480 <tud_cdc_n_available>
10005064:	4604      	mov	r4, r0
10005066:	4818      	ldr	r0, [pc, #96]	@ (100050c8 <low_priority_worker_irq+0xc0>)
10005068:	f003 fb7e 	bl	10008768 <__mutex_exit_veneer>
1000506c:	2c00      	cmp	r4, #0
1000506e:	d0ef      	beq.n	10005050 <low_priority_worker_irq+0x48>
10005070:	4b18      	ldr	r3, [pc, #96]	@ (100050d4 <low_priority_worker_irq+0xcc>)
10005072:	681b      	ldr	r3, [r3, #0]
10005074:	2b00      	cmp	r3, #0
10005076:	d0eb      	beq.n	10005050 <low_priority_worker_irq+0x48>
10005078:	4a17      	ldr	r2, [pc, #92]	@ (100050d8 <low_priority_worker_irq+0xd0>)
1000507a:	6810      	ldr	r0, [r2, #0]
1000507c:	b005      	add	sp, #20
1000507e:	e8bd 4030 	ldmia.w	sp!, {r4, r5, lr}
10005082:	4718      	bx	r3
10005084:	f7fc f840 	bl	10001108 <alarm_pool_get_default>
10005088:	4604      	mov	r4, r0
1000508a:	f7fc fa47 	bl	1000151c <time_us_64>
1000508e:	f04f 3cff 	mov.w	ip, #4294967295	@ 0xffffffff
10005092:	f06f 4500 	mvn.w	r5, #2147483648	@ 0x80000000
10005096:	f510 727a 	adds.w	r2, r0, #1000	@ 0x3e8
1000509a:	f141 0300 	adc.w	r3, r1, #0
1000509e:	4594      	cmp	ip, r2
100050a0:	eb75 0103 	sbcs.w	r1, r5, r3
100050a4:	bf38      	it	cc
100050a6:	462b      	movcc	r3, r5
100050a8:	f04f 0100 	mov.w	r1, #0
100050ac:	f04f 0501 	mov.w	r5, #1
100050b0:	4620      	mov	r0, r4
100050b2:	4c0a      	ldr	r4, [pc, #40]	@ (100050dc <low_priority_worker_irq+0xd4>)
100050b4:	bf38      	it	cc
100050b6:	4662      	movcc	r2, ip
100050b8:	e9cd 1501 	strd	r1, r5, [sp, #4]
100050bc:	9400      	str	r4, [sp, #0]
100050be:	f7fc f827 	bl	10001110 <alarm_pool_add_alarm_at>
100050c2:	b005      	add	sp, #20
100050c4:	bd30      	pop	{r4, r5, pc}
100050c6:	bf00      	nop
100050c8:	200029e4 	.word	0x200029e4
100050cc:	200029b0 	.word	0x200029b0
100050d0:	20002a03 	.word	0x20002a03
100050d4:	20002518 	.word	0x20002518
100050d8:	2000251c 	.word	0x2000251c
100050dc:	10004dbd 	.word	0x10004dbd

100050e0 <stdio_usb_init>:
100050e0:	f04f 4350 	mov.w	r3, #3489660928	@ 0xd0000000
100050e4:	b530      	push	{r4, r5, lr}
100050e6:	b085      	sub	sp, #20
100050e8:	681c      	ldr	r4, [r3, #0]
100050ea:	f7fc f80d 	bl	10001108 <alarm_pool_get_default>
100050ee:	f7fc f921 	bl	10001334 <alarm_pool_core_num>
100050f2:	42a0      	cmp	r0, r4
100050f4:	d002      	beq.n	100050fc <stdio_usb_init+0x1c>
100050f6:	2000      	movs	r0, #0
100050f8:	b005      	add	sp, #20
100050fa:	bd30      	pop	{r4, r5, pc}
100050fc:	2100      	movs	r1, #0
100050fe:	4b2a      	ldr	r3, [pc, #168]	@ (100051a8 <stdio_usb_init+0xc8>)
10005100:	4608      	mov	r0, r1
10005102:	781b      	ldrb	r3, [r3, #0]
10005104:	f001 fd3c 	bl	10006b80 <tusb_rhport_init>
10005108:	4828      	ldr	r0, [pc, #160]	@ (100051ac <stdio_usb_init+0xcc>)
1000510a:	6803      	ldr	r3, [r0, #0]
1000510c:	2b00      	cmp	r3, #0
1000510e:	d047      	beq.n	100051a0 <stdio_usb_init+0xc0>
10005110:	2001      	movs	r0, #1
10005112:	f7fb fd7d 	bl	10000c10 <user_irq_claim_unused>
10005116:	4603      	mov	r3, r0
10005118:	4c25      	ldr	r4, [pc, #148]	@ (100051b0 <stdio_usb_init+0xd0>)
1000511a:	4926      	ldr	r1, [pc, #152]	@ (100051b4 <stdio_usb_init+0xd4>)
1000511c:	b2c0      	uxtb	r0, r0
1000511e:	7023      	strb	r3, [r4, #0]
10005120:	f7fb fbf4 	bl	1000090c <irq_set_exclusive_handler>
10005124:	7820      	ldrb	r0, [r4, #0]
10005126:	2101      	movs	r1, #1
10005128:	f7fb fbae 	bl	10000888 <irq_set_enabled>
1000512c:	200e      	movs	r0, #14
1000512e:	f7fb fbdd 	bl	100008ec <irq_has_shared_handler>
10005132:	bb40      	cbnz	r0, 10005186 <stdio_usb_init+0xa6>
10005134:	4b20      	ldr	r3, [pc, #128]	@ (100051b8 <stdio_usb_init+0xd8>)
10005136:	2501      	movs	r5, #1
10005138:	e9c3 0000 	strd	r0, r0, [r3]
1000513c:	f7fb ffe4 	bl	10001108 <alarm_pool_get_default>
10005140:	4604      	mov	r4, r0
10005142:	f7fc f9eb 	bl	1000151c <time_us_64>
10005146:	f04f 3eff 	mov.w	lr, #4294967295	@ 0xffffffff
1000514a:	f06f 4c00 	mvn.w	ip, #2147483648	@ 0x80000000
1000514e:	f510 727a 	adds.w	r2, r0, #1000	@ 0x3e8
10005152:	f141 0300 	adc.w	r3, r1, #0
10005156:	4596      	cmp	lr, r2
10005158:	eb7c 0103 	sbcs.w	r1, ip, r3
1000515c:	f04f 0100 	mov.w	r1, #0
10005160:	4620      	mov	r0, r4
10005162:	4c16      	ldr	r4, [pc, #88]	@ (100051bc <stdio_usb_init+0xdc>)
10005164:	bf3c      	itt	cc
10005166:	4672      	movcc	r2, lr
10005168:	4663      	movcc	r3, ip
1000516a:	e9cd 1501 	strd	r1, r5, [sp, #4]
1000516e:	9400      	str	r4, [sp, #0]
10005170:	f7fb ffce 	bl	10001110 <alarm_pool_add_alarm_at>
10005174:	2800      	cmp	r0, #0
10005176:	dbbe      	blt.n	100050f6 <stdio_usb_init+0x16>
10005178:	2101      	movs	r1, #1
1000517a:	4811      	ldr	r0, [pc, #68]	@ (100051c0 <stdio_usb_init+0xe0>)
1000517c:	f7ff fc76 	bl	10004a6c <stdio_set_driver_enabled>
10005180:	2001      	movs	r0, #1
10005182:	b005      	add	sp, #20
10005184:	bd30      	pop	{r4, r5, pc}
10005186:	2001      	movs	r0, #1
10005188:	f7fb fb3a 	bl	10000800 <spin_lock_claim_unused>
1000518c:	4601      	mov	r1, r0
1000518e:	480a      	ldr	r0, [pc, #40]	@ (100051b8 <stdio_usb_init+0xd8>)
10005190:	f7fb fd9a 	bl	10000cc8 <critical_section_init_with_lock_num>
10005194:	2200      	movs	r2, #0
10005196:	200e      	movs	r0, #14
10005198:	490a      	ldr	r1, [pc, #40]	@ (100051c4 <stdio_usb_init+0xe4>)
1000519a:	f7fb fbe7 	bl	1000096c <irq_add_shared_handler>
1000519e:	e7eb      	b.n	10005178 <stdio_usb_init+0x98>
100051a0:	f7fb fd76 	bl	10000c90 <mutex_init>
100051a4:	e7b4      	b.n	10005110 <stdio_usb_init+0x30>
100051a6:	bf00      	nop
100051a8:	10008ca8 	.word	0x10008ca8
100051ac:	200029e4 	.word	0x200029e4
100051b0:	20002a02 	.word	0x20002a02
100051b4:	10005009 	.word	0x10005009
100051b8:	200029b0 	.word	0x200029b0
100051bc:	10004dbd 	.word	0x10004dbd
100051c0:	2000167c 	.word	0x2000167c
100051c4:	10004e2d 	.word	0x10004e2d

100051c8 <stdio_usb_connected>:
100051c8:	2000      	movs	r0, #0
100051ca:	f001 b943 	b.w	10006454 <tud_cdc_n_connected>
100051ce:	bf00      	nop

100051d0 <tud_descriptor_device_cb>:
100051d0:	4800      	ldr	r0, [pc, #0]	@ (100051d4 <tud_descriptor_device_cb+0x4>)
100051d2:	4770      	bx	lr
100051d4:	10008c30 	.word	0x10008c30

100051d8 <tud_descriptor_configuration_cb>:
100051d8:	4800      	ldr	r0, [pc, #0]	@ (100051dc <tud_descriptor_configuration_cb+0x4>)
100051da:	4770      	bx	lr
100051dc:	10008bdc 	.word	0x10008bdc

100051e0 <tud_descriptor_string_cb>:
100051e0:	b538      	push	{r3, r4, r5, lr}
100051e2:	4b18      	ldr	r3, [pc, #96]	@ (10005244 <tud_descriptor_string_cb+0x64>)
100051e4:	4604      	mov	r4, r0
100051e6:	781a      	ldrb	r2, [r3, #0]
100051e8:	b30a      	cbz	r2, 1000522e <tud_descriptor_string_cb+0x4e>
100051ea:	b944      	cbnz	r4, 100051fe <tud_descriptor_string_cb+0x1e>
100051ec:	f240 4209 	movw	r2, #1033	@ 0x409
100051f0:	f44f 7341 	mov.w	r3, #772	@ 0x304
100051f4:	4d14      	ldr	r5, [pc, #80]	@ (10005248 <tud_descriptor_string_cb+0x68>)
100051f6:	806a      	strh	r2, [r5, #2]
100051f8:	4813      	ldr	r0, [pc, #76]	@ (10005248 <tud_descriptor_string_cb+0x68>)
100051fa:	802b      	strh	r3, [r5, #0]
100051fc:	bd38      	pop	{r3, r4, r5, pc}
100051fe:	2c05      	cmp	r4, #5
10005200:	d81d      	bhi.n	1000523e <tud_descriptor_string_cb+0x5e>
10005202:	4b12      	ldr	r3, [pc, #72]	@ (1000524c <tud_descriptor_string_cb+0x6c>)
10005204:	4d10      	ldr	r5, [pc, #64]	@ (10005248 <tud_descriptor_string_cb+0x68>)
10005206:	f853 1024 	ldr.w	r1, [r3, r4, lsl #2]
1000520a:	4628      	mov	r0, r5
1000520c:	2300      	movs	r3, #0
1000520e:	3901      	subs	r1, #1
10005210:	e003      	b.n	1000521a <tud_descriptor_string_cb+0x3a>
10005212:	2b13      	cmp	r3, #19
10005214:	f820 2f02 	strh.w	r2, [r0, #2]!
10005218:	d00e      	beq.n	10005238 <tud_descriptor_string_cb+0x58>
1000521a:	f811 2f01 	ldrb.w	r2, [r1, #1]!
1000521e:	3301      	adds	r3, #1
10005220:	b2db      	uxtb	r3, r3
10005222:	2a00      	cmp	r2, #0
10005224:	d1f5      	bne.n	10005212 <tud_descriptor_string_cb+0x32>
10005226:	005b      	lsls	r3, r3, #1
10005228:	f443 7340 	orr.w	r3, r3, #768	@ 0x300
1000522c:	e7e4      	b.n	100051f8 <tud_descriptor_string_cb+0x18>
1000522e:	2111      	movs	r1, #17
10005230:	4618      	mov	r0, r3
10005232:	f000 f825 	bl	10005280 <pico_get_unique_board_id_string>
10005236:	e7d8      	b.n	100051ea <tud_descriptor_string_cb+0xa>
10005238:	f44f 734a 	mov.w	r3, #808	@ 0x328
1000523c:	e7dc      	b.n	100051f8 <tud_descriptor_string_cb+0x18>
1000523e:	2000      	movs	r0, #0
10005240:	bd38      	pop	{r3, r4, r5, pc}
10005242:	bf00      	nop
10005244:	200029ec 	.word	0x200029ec
10005248:	20002550 	.word	0x20002550
1000524c:	10008bc4 	.word	0x10008bc4

10005250 <_retrieve_unique_id_on_boot>:
10005250:	b500      	push	{lr}
10005252:	f245 3047 	movw	r0, #21319	@ 0x5347
10005256:	b08b      	sub	sp, #44	@ 0x2c
10005258:	f7fc fad0 	bl	100017fc <rom_func_lookup>
1000525c:	2201      	movs	r2, #1
1000525e:	4603      	mov	r3, r0
10005260:	2109      	movs	r1, #9
10005262:	a801      	add	r0, sp, #4
10005264:	4798      	blx	r3
10005266:	e9dd 3203 	ldrd	r3, r2, [sp, #12]
1000526a:	4904      	ldr	r1, [pc, #16]	@ (1000527c <_retrieve_unique_id_on_boot+0x2c>)
1000526c:	ba12      	rev	r2, r2
1000526e:	ba1b      	rev	r3, r3
10005270:	e9c1 2300 	strd	r2, r3, [r1]
10005274:	b00b      	add	sp, #44	@ 0x2c
10005276:	f85d fb04 	ldr.w	pc, [sp], #4
1000527a:	bf00      	nop
1000527c:	200029d8 	.word	0x200029d8

10005280 <pico_get_unique_board_id_string>:
10005280:	2901      	cmp	r1, #1
10005282:	f101 33ff 	add.w	r3, r1, #4294967295	@ 0xffffffff
10005286:	f000 80b3 	beq.w	100053f0 <pico_get_unique_board_id_string+0x170>
1000528a:	495d      	ldr	r1, [pc, #372]	@ (10005400 <pico_get_unique_board_id_string+0x180>)
1000528c:	780a      	ldrb	r2, [r1, #0]
1000528e:	ea4f 1c12 	mov.w	ip, r2, lsr #4
10005292:	2a9f      	cmp	r2, #159	@ 0x9f
10005294:	bf8c      	ite	hi
10005296:	f10c 0c37 	addhi.w	ip, ip, #55	@ 0x37
1000529a:	f10c 0c30 	addls.w	ip, ip, #48	@ 0x30
1000529e:	2b01      	cmp	r3, #1
100052a0:	f880 c000 	strb.w	ip, [r0]
100052a4:	f000 80a7 	beq.w	100053f6 <pico_get_unique_board_id_string+0x176>
100052a8:	f002 020f 	and.w	r2, r2, #15
100052ac:	2a09      	cmp	r2, #9
100052ae:	bf8c      	ite	hi
100052b0:	3237      	addhi	r2, #55	@ 0x37
100052b2:	3230      	addls	r2, #48	@ 0x30
100052b4:	2b02      	cmp	r3, #2
100052b6:	7042      	strb	r2, [r0, #1]
100052b8:	f000 809d 	beq.w	100053f6 <pico_get_unique_board_id_string+0x176>
100052bc:	784a      	ldrb	r2, [r1, #1]
100052be:	ea4f 1c12 	mov.w	ip, r2, lsr #4
100052c2:	2a9f      	cmp	r2, #159	@ 0x9f
100052c4:	bf8c      	ite	hi
100052c6:	f10c 0c37 	addhi.w	ip, ip, #55	@ 0x37
100052ca:	f10c 0c30 	addls.w	ip, ip, #48	@ 0x30
100052ce:	2b03      	cmp	r3, #3
100052d0:	f880 c002 	strb.w	ip, [r0, #2]
100052d4:	f000 808f 	beq.w	100053f6 <pico_get_unique_board_id_string+0x176>
100052d8:	f002 020f 	and.w	r2, r2, #15
100052dc:	2a09      	cmp	r2, #9
100052de:	bf8c      	ite	hi
100052e0:	3237      	addhi	r2, #55	@ 0x37
100052e2:	3230      	addls	r2, #48	@ 0x30
100052e4:	2b04      	cmp	r3, #4
100052e6:	70c2      	strb	r2, [r0, #3]
100052e8:	f000 8085 	beq.w	100053f6 <pico_get_unique_board_id_string+0x176>
100052ec:	788a      	ldrb	r2, [r1, #2]
100052ee:	ea4f 1c12 	mov.w	ip, r2, lsr #4
100052f2:	2a9f      	cmp	r2, #159	@ 0x9f
100052f4:	bf8c      	ite	hi
100052f6:	f10c 0c37 	addhi.w	ip, ip, #55	@ 0x37
100052fa:	f10c 0c30 	addls.w	ip, ip, #48	@ 0x30
100052fe:	2b05      	cmp	r3, #5
10005300:	f880 c004 	strb.w	ip, [r0, #4]
10005304:	d077      	beq.n	100053f6 <pico_get_unique_board_id_string+0x176>
10005306:	f002 020f 	and.w	r2, r2, #15
1000530a:	2a09      	cmp	r2, #9
1000530c:	bf8c      	ite	hi
1000530e:	3237      	addhi	r2, #55	@ 0x37
10005310:	3230      	addls	r2, #48	@ 0x30
10005312:	2b06      	cmp	r3, #6
10005314:	7142      	strb	r2, [r0, #5]
10005316:	d06e      	beq.n	100053f6 <pico_get_unique_board_id_string+0x176>
10005318:	78ca      	ldrb	r2, [r1, #3]
1000531a:	ea4f 1c12 	mov.w	ip, r2, lsr #4
1000531e:	2a9f      	cmp	r2, #159	@ 0x9f
10005320:	bf8c      	ite	hi
10005322:	f10c 0c37 	addhi.w	ip, ip, #55	@ 0x37
10005326:	f10c 0c30 	addls.w	ip, ip, #48	@ 0x30
1000532a:	2b07      	cmp	r3, #7
1000532c:	f880 c006 	strb.w	ip, [r0, #6]
10005330:	d061      	beq.n	100053f6 <pico_get_unique_board_id_string+0x176>
10005332:	f002 020f 	and.w	r2, r2, #15
10005336:	2a09      	cmp	r2, #9
10005338:	bf8c      	ite	hi
1000533a:	3237      	addhi	r2, #55	@ 0x37
1000533c:	3230      	addls	r2, #48	@ 0x30
1000533e:	2b08      	cmp	r3, #8
10005340:	71c2      	strb	r2, [r0, #7]
10005342:	d058      	beq.n	100053f6 <pico_get_unique_board_id_string+0x176>
10005344:	790a      	ldrb	r2, [r1, #4]
10005346:	ea4f 1c12 	mov.w	ip, r2, lsr #4
1000534a:	2a9f      	cmp	r2, #159	@ 0x9f
1000534c:	bf8c      	ite	hi
1000534e:	f10c 0c37 	addhi.w	ip, ip, #55	@ 0x37
10005352:	f10c 0c30 	addls.w	ip, ip, #48	@ 0x30
10005356:	2b09      	cmp	r3, #9
10005358:	f880 c008 	strb.w	ip, [r0, #8]
1000535c:	d04b      	beq.n	100053f6 <pico_get_unique_board_id_string+0x176>
1000535e:	f002 020f 	and.w	r2, r2, #15
10005362:	2a09      	cmp	r2, #9
10005364:	bf8c      	ite	hi
10005366:	3237      	addhi	r2, #55	@ 0x37
10005368:	3230      	addls	r2, #48	@ 0x30
1000536a:	2b0a      	cmp	r3, #10
1000536c:	7242      	strb	r2, [r0, #9]
1000536e:	d042      	beq.n	100053f6 <pico_get_unique_board_id_string+0x176>
10005370:	794a      	ldrb	r2, [r1, #5]
10005372:	ea4f 1c12 	mov.w	ip, r2, lsr #4
10005376:	2a9f      	cmp	r2, #159	@ 0x9f
10005378:	bf8c      	ite	hi
1000537a:	f10c 0c37 	addhi.w	ip, ip, #55	@ 0x37
1000537e:	f10c 0c30 	addls.w	ip, ip, #48	@ 0x30
10005382:	2b0b      	cmp	r3, #11
10005384:	f880 c00a 	strb.w	ip, [r0, #10]
10005388:	d035      	beq.n	100053f6 <pico_get_unique_board_id_string+0x176>
1000538a:	f002 020f 	and.w	r2, r2, #15
1000538e:	2a09      	cmp	r2, #9
10005390:	bf8c      	ite	hi
10005392:	3237      	addhi	r2, #55	@ 0x37
10005394:	3230      	addls	r2, #48	@ 0x30
10005396:	2b0c      	cmp	r3, #12
10005398:	72c2      	strb	r2, [r0, #11]
1000539a:	d02c      	beq.n	100053f6 <pico_get_unique_board_id_string+0x176>
1000539c:	798a      	ldrb	r2, [r1, #6]
1000539e:	ea4f 1c12 	mov.w	ip, r2, lsr #4
100053a2:	2a9f      	cmp	r2, #159	@ 0x9f
100053a4:	bf8c      	ite	hi
100053a6:	f10c 0c37 	addhi.w	ip, ip, #55	@ 0x37
100053aa:	f10c 0c30 	addls.w	ip, ip, #48	@ 0x30
100053ae:	2b0d      	cmp	r3, #13
100053b0:	f880 c00c 	strb.w	ip, [r0, #12]
100053b4:	d01f      	beq.n	100053f6 <pico_get_unique_board_id_string+0x176>
100053b6:	f002 020f 	and.w	r2, r2, #15
100053ba:	2a09      	cmp	r2, #9
100053bc:	bf8c      	ite	hi
100053be:	3237      	addhi	r2, #55	@ 0x37
100053c0:	3230      	addls	r2, #48	@ 0x30
100053c2:	2b0e      	cmp	r3, #14
100053c4:	7342      	strb	r2, [r0, #13]
100053c6:	d016      	beq.n	100053f6 <pico_get_unique_board_id_string+0x176>
100053c8:	79ca      	ldrb	r2, [r1, #7]
100053ca:	0911      	lsrs	r1, r2, #4
100053cc:	2a9f      	cmp	r2, #159	@ 0x9f
100053ce:	bf8c      	ite	hi
100053d0:	3137      	addhi	r1, #55	@ 0x37
100053d2:	3130      	addls	r1, #48	@ 0x30
100053d4:	2b0f      	cmp	r3, #15
100053d6:	7381      	strb	r1, [r0, #14]
100053d8:	d00d      	beq.n	100053f6 <pico_get_unique_board_id_string+0x176>
100053da:	f002 020f 	and.w	r2, r2, #15
100053de:	2a09      	cmp	r2, #9
100053e0:	bf94      	ite	ls
100053e2:	3230      	addls	r2, #48	@ 0x30
100053e4:	3237      	addhi	r2, #55	@ 0x37
100053e6:	2b10      	cmp	r3, #16
100053e8:	73c2      	strb	r2, [r0, #15]
100053ea:	bf18      	it	ne
100053ec:	3010      	addne	r0, #16
100053ee:	d002      	beq.n	100053f6 <pico_get_unique_board_id_string+0x176>
100053f0:	2300      	movs	r3, #0
100053f2:	7003      	strb	r3, [r0, #0]
100053f4:	4770      	bx	lr
100053f6:	4418      	add	r0, r3
100053f8:	2300      	movs	r3, #0
100053fa:	7003      	strb	r3, [r0, #0]
100053fc:	4770      	bx	lr
100053fe:	bf00      	nop
10005400:	200029d8 	.word	0x200029d8

10005404 <dcd_init>:
10005404:	b570      	push	{r4, r5, r6, lr}
10005406:	f000 f92d 	bl	10005664 <rp2040_usb_init>
1000540a:	230c      	movs	r3, #12
1000540c:	2640      	movs	r6, #64	@ 0x40
1000540e:	4c19      	ldr	r4, [pc, #100]	@ (10005474 <dcd_init+0x70>)
10005410:	22ff      	movs	r2, #255	@ 0xff
10005412:	67a3      	str	r3, [r4, #120]	@ 0x78
10005414:	200e      	movs	r0, #14
10005416:	4918      	ldr	r1, [pc, #96]	@ (10005478 <dcd_init+0x74>)
10005418:	f7fb faa8 	bl	1000096c <irq_add_shared_handler>
1000541c:	4632      	mov	r2, r6
1000541e:	2100      	movs	r1, #0
10005420:	4816      	ldr	r0, [pc, #88]	@ (1000547c <dcd_init+0x78>)
10005422:	f002 fcc3 	bl	10007dac <memset>
10005426:	2501      	movs	r5, #1
10005428:	2300      	movs	r3, #0
1000542a:	2180      	movs	r1, #128	@ 0x80
1000542c:	4813      	ldr	r0, [pc, #76]	@ (1000547c <dcd_init+0x78>)
1000542e:	4a14      	ldr	r2, [pc, #80]	@ (10005480 <dcd_init+0x7c>)
10005430:	8441      	strh	r1, [r0, #34]	@ 0x22
10005432:	7045      	strb	r5, [r0, #1]
10005434:	8306      	strh	r6, [r0, #24]
10005436:	8706      	strh	r6, [r0, #56]	@ 0x38
10005438:	6082      	str	r2, [r0, #8]
1000543a:	6043      	str	r3, [r0, #4]
1000543c:	6013      	str	r3, [r2, #0]
1000543e:	f842 3c04 	str.w	r3, [r2, #-4]
10005442:	f880 3021 	strb.w	r3, [r0, #33]	@ 0x21
10005446:	f880 303b 	strb.w	r3, [r0, #59]	@ 0x3b
1000544a:	6243      	str	r3, [r0, #36]	@ 0x24
1000544c:	4b0d      	ldr	r3, [pc, #52]	@ (10005484 <dcd_init+0x80>)
1000544e:	f04f 5600 	mov.w	r6, #536870912	@ 0x20000000
10005452:	60c3      	str	r3, [r0, #12]
10005454:	62c3      	str	r3, [r0, #44]	@ 0x2c
10005456:	3b80      	subs	r3, #128	@ 0x80
10005458:	6283      	str	r3, [r0, #40]	@ 0x28
1000545a:	f003 f99d 	bl	10008798 <__reset_non_control_endpoints_veneer>
1000545e:	f44f 3280 	mov.w	r2, #65536	@ 0x10000
10005462:	4909      	ldr	r1, [pc, #36]	@ (10005488 <dcd_init+0x84>)
10005464:	4b09      	ldr	r3, [pc, #36]	@ (1000548c <dcd_init+0x88>)
10005466:	6425      	str	r5, [r4, #64]	@ 0x40
10005468:	4628      	mov	r0, r5
1000546a:	64e6      	str	r6, [r4, #76]	@ 0x4c
1000546c:	f8c4 1090 	str.w	r1, [r4, #144]	@ 0x90
10005470:	64da      	str	r2, [r3, #76]	@ 0x4c
10005472:	bd70      	pop	{r4, r5, r6, pc}
10005474:	50110000 	.word	0x50110000
10005478:	2000041d 	.word	0x2000041d
1000547c:	2000258c 	.word	0x2000258c
10005480:	50100084 	.word	0x50100084
10005484:	50100100 	.word	0x50100100
10005488:	0001d010 	.word	0x0001d010
1000548c:	50112000 	.word	0x50112000

10005490 <dcd_int_enable>:
10005490:	2101      	movs	r1, #1
10005492:	200e      	movs	r0, #14
10005494:	f7fb b9f8 	b.w	10000888 <irq_set_enabled>

10005498 <dcd_set_address>:
10005498:	2200      	movs	r2, #0
1000549a:	4802      	ldr	r0, [pc, #8]	@ (100054a4 <dcd_set_address+0xc>)
1000549c:	4611      	mov	r1, r2
1000549e:	f000 b901 	b.w	100056a4 <hw_endpoint_xfer_start>
100054a2:	bf00      	nop
100054a4:	200025ac 	.word	0x200025ac

100054a8 <dcd_sof_enable>:
100054a8:	4b04      	ldr	r3, [pc, #16]	@ (100054bc <dcd_sof_enable+0x14>)
100054aa:	7019      	strb	r1, [r3, #0]
100054ac:	b121      	cbz	r1, 100054b8 <dcd_sof_enable+0x10>
100054ae:	f44f 3200 	mov.w	r2, #131072	@ 0x20000
100054b2:	4b03      	ldr	r3, [pc, #12]	@ (100054c0 <dcd_sof_enable+0x18>)
100054b4:	f8c3 2090 	str.w	r2, [r3, #144]	@ 0x90
100054b8:	4770      	bx	lr
100054ba:	bf00      	nop
100054bc:	200029fe 	.word	0x200029fe
100054c0:	50112000 	.word	0x50112000

100054c4 <dcd_edpt0_status_complete>:
100054c4:	780b      	ldrb	r3, [r1, #0]
100054c6:	065b      	lsls	r3, r3, #25
100054c8:	d102      	bne.n	100054d0 <dcd_edpt0_status_complete+0xc>
100054ca:	784b      	ldrb	r3, [r1, #1]
100054cc:	2b05      	cmp	r3, #5
100054ce:	d000      	beq.n	100054d2 <dcd_edpt0_status_complete+0xe>
100054d0:	4770      	bx	lr
100054d2:	884b      	ldrh	r3, [r1, #2]
100054d4:	4a01      	ldr	r2, [pc, #4]	@ (100054dc <dcd_edpt0_status_complete+0x18>)
100054d6:	b2db      	uxtb	r3, r3
100054d8:	6013      	str	r3, [r2, #0]
100054da:	4770      	bx	lr
100054dc:	50110000 	.word	0x50110000

100054e0 <dcd_edpt_open>:
100054e0:	78cb      	ldrb	r3, [r1, #3]
100054e2:	e92d 41f0 	stmdb	sp!, {r4, r5, r6, r7, r8, lr}
100054e6:	f003 0e03 	and.w	lr, r3, #3
100054ea:	f1be 0f01 	cmp.w	lr, #1
100054ee:	f3c3 0001 	ubfx	r0, r3, #0, #2
100054f2:	d05b      	beq.n	100055ac <dcd_edpt_open+0xcc>
100054f4:	2700      	movs	r7, #0
100054f6:	f891 c002 	ldrb.w	ip, [r1, #2]
100054fa:	4c34      	ldr	r4, [pc, #208]	@ (100055cc <dcd_edpt_open+0xec>)
100054fc:	f00c 027f 	and.w	r2, ip, #127	@ 0x7f
10005500:	0056      	lsls	r6, r2, #1
10005502:	8889      	ldrh	r1, [r1, #4]
10005504:	eb06 13dc 	add.w	r3, r6, ip, lsr #7
10005508:	eb04 1343 	add.w	r3, r4, r3, lsl #5
1000550c:	ea4f 15dc 	mov.w	r5, ip, lsr #7
10005510:	76d8      	strb	r0, [r3, #27]
10005512:	f3c1 010a 	ubfx	r1, r1, #0, #11
10005516:	f085 0001 	eor.w	r0, r5, #1
1000551a:	f883 c002 	strb.w	ip, [r3, #2]
1000551e:	8319      	strh	r1, [r3, #24]
10005520:	7058      	strb	r0, [r3, #1]
10005522:	70df      	strb	r7, [r3, #3]
10005524:	00d3      	lsls	r3, r2, #3
10005526:	bb8d      	cbnz	r5, 1000558c <dcd_edpt_open+0xac>
10005528:	4829      	ldr	r0, [pc, #164]	@ (100055d0 <dcd_edpt_open+0xf0>)
1000552a:	3304      	adds	r3, #4
1000552c:	eb04 1c82 	add.w	ip, r4, r2, lsl #6
10005530:	eb03 0800 	add.w	r8, r3, r0
10005534:	f8cc 8008 	str.w	r8, [ip, #8]
10005538:	501f      	str	r7, [r3, r0]
1000553a:	b382      	cbz	r2, 1000559e <dcd_edpt_open+0xbe>
1000553c:	4b25      	ldr	r3, [pc, #148]	@ (100055d4 <dcd_edpt_open+0xf4>)
1000553e:	00d2      	lsls	r2, r2, #3
10005540:	4413      	add	r3, r2
10005542:	f8cc 3004 	str.w	r3, [ip, #4]
10005546:	4b24      	ldr	r3, [pc, #144]	@ (100055d8 <dcd_edpt_open+0xf8>)
10005548:	313f      	adds	r1, #63	@ 0x3f
1000554a:	681a      	ldr	r2, [r3, #0]
1000554c:	f021 013f 	bic.w	r1, r1, #63	@ 0x3f
10005550:	f1be 0f02 	cmp.w	lr, #2
10005554:	bf08      	it	eq
10005556:	0049      	lsleq	r1, r1, #1
10005558:	4411      	add	r1, r2
1000555a:	6019      	str	r1, [r3, #0]
1000555c:	4b1f      	ldr	r3, [pc, #124]	@ (100055dc <dcd_edpt_open+0xfc>)
1000555e:	1977      	adds	r7, r6, r5
10005560:	eb04 1747 	add.w	r7, r4, r7, lsl #5
10005564:	4299      	cmp	r1, r3
10005566:	60fa      	str	r2, [r7, #12]
10005568:	d82b      	bhi.n	100055c2 <dcd_edpt_open+0xe2>
1000556a:	442e      	add	r6, r5
1000556c:	eb04 1346 	add.w	r3, r4, r6, lsl #5
10005570:	7ed9      	ldrb	r1, [r3, #27]
10005572:	f082 42a0 	eor.w	r2, r2, #1342177280	@ 0x50000000
10005576:	f482 1280 	eor.w	r2, r2, #1048576	@ 0x100000
1000557a:	685b      	ldr	r3, [r3, #4]
1000557c:	ea42 6281 	orr.w	r2, r2, r1, lsl #26
10005580:	f042 4200 	orr.w	r2, r2, #2147483648	@ 0x80000000
10005584:	601a      	str	r2, [r3, #0]
10005586:	2001      	movs	r0, #1
10005588:	e8bd 81f0 	ldmia.w	sp!, {r4, r5, r6, r7, r8, pc}
1000558c:	4810      	ldr	r0, [pc, #64]	@ (100055d0 <dcd_edpt_open+0xf0>)
1000558e:	eb04 1c82 	add.w	ip, r4, r2, lsl #6
10005592:	4403      	add	r3, r0
10005594:	f8cc 3028 	str.w	r3, [ip, #40]	@ 0x28
10005598:	f840 7032 	str.w	r7, [r0, r2, lsl #3]
1000559c:	b94a      	cbnz	r2, 100055b2 <dcd_edpt_open+0xd2>
1000559e:	2200      	movs	r2, #0
100055a0:	490f      	ldr	r1, [pc, #60]	@ (100055e0 <dcd_edpt_open+0x100>)
100055a2:	eb04 1345 	add.w	r3, r4, r5, lsl #5
100055a6:	60d9      	str	r1, [r3, #12]
100055a8:	605a      	str	r2, [r3, #4]
100055aa:	e7ec      	b.n	10005586 <dcd_edpt_open+0xa6>
100055ac:	2000      	movs	r0, #0
100055ae:	e8bd 81f0 	ldmia.w	sp!, {r4, r5, r6, r7, r8, pc}
100055b2:	00d2      	lsls	r2, r2, #3
100055b4:	f102 42a0 	add.w	r2, r2, #1342177280	@ 0x50000000
100055b8:	f502 1280 	add.w	r2, r2, #1048576	@ 0x100000
100055bc:	f8cc 2024 	str.w	r2, [ip, #36]	@ 0x24
100055c0:	e7c1      	b.n	10005546 <dcd_edpt_open+0x66>
100055c2:	f7fc f967 	bl	10001894 <hard_assertion_failure>
100055c6:	68fa      	ldr	r2, [r7, #12]
100055c8:	e7cf      	b.n	1000556a <dcd_edpt_open+0x8a>
100055ca:	bf00      	nop
100055cc:	2000258c 	.word	0x2000258c
100055d0:	50100080 	.word	0x50100080
100055d4:	50100004 	.word	0x50100004
100055d8:	20002994 	.word	0x20002994
100055dc:	50100fff 	.word	0x50100fff
100055e0:	50100100 	.word	0x50100100

100055e4 <dcd_edpt_close_all>:
100055e4:	f003 b8d8 	b.w	10008798 <__reset_non_control_endpoints_veneer>

100055e8 <dcd_edpt_xfer>:
100055e8:	468c      	mov	ip, r1
100055ea:	b508      	push	{r3, lr}
100055ec:	4611      	mov	r1, r2
100055ee:	4807      	ldr	r0, [pc, #28]	@ (1000560c <dcd_edpt_xfer+0x24>)
100055f0:	461a      	mov	r2, r3
100055f2:	f00c 037f 	and.w	r3, ip, #127	@ 0x7f
100055f6:	ea4f 1cdc 	mov.w	ip, ip, lsr #7
100055fa:	eb0c 0c43 	add.w	ip, ip, r3, lsl #1
100055fe:	eb00 104c 	add.w	r0, r0, ip, lsl #5
10005602:	f000 f84f 	bl	100056a4 <hw_endpoint_xfer_start>
10005606:	2001      	movs	r0, #1
10005608:	bd08      	pop	{r3, pc}
1000560a:	bf00      	nop
1000560c:	2000258c 	.word	0x2000258c

10005610 <dcd_edpt_stall>:
10005610:	f011 027f 	ands.w	r2, r1, #127	@ 0x7f
10005614:	d105      	bne.n	10005622 <dcd_edpt_stall+0x12>
10005616:	2900      	cmp	r1, #0
10005618:	bf0c      	ite	eq
1000561a:	2002      	moveq	r0, #2
1000561c:	2001      	movne	r0, #1
1000561e:	4b06      	ldr	r3, [pc, #24]	@ (10005638 <dcd_edpt_stall+0x28>)
10005620:	6698      	str	r0, [r3, #104]	@ 0x68
10005622:	09c9      	lsrs	r1, r1, #7
10005624:	4b05      	ldr	r3, [pc, #20]	@ (1000563c <dcd_edpt_stall+0x2c>)
10005626:	eb01 0042 	add.w	r0, r1, r2, lsl #1
1000562a:	eb03 1040 	add.w	r0, r3, r0, lsl #5
1000562e:	f44f 6200 	mov.w	r2, #2048	@ 0x800
10005632:	2100      	movs	r1, #0
10005634:	f003 b8a8 	b.w	10008788 <___hw_endpoint_buffer_control_update32_veneer>
10005638:	50112000 	.word	0x50112000
1000563c:	2000258c 	.word	0x2000258c

10005640 <dcd_edpt_clear_stall>:
10005640:	f011 037f 	ands.w	r3, r1, #127	@ 0x7f
10005644:	d100      	bne.n	10005648 <dcd_edpt_clear_stall+0x8>
10005646:	4770      	bx	lr
10005648:	2200      	movs	r2, #0
1000564a:	4805      	ldr	r0, [pc, #20]	@ (10005660 <dcd_edpt_clear_stall+0x20>)
1000564c:	005b      	lsls	r3, r3, #1
1000564e:	eb03 13d1 	add.w	r3, r3, r1, lsr #7
10005652:	eb00 1043 	add.w	r0, r0, r3, lsl #5
10005656:	f46f 6100 	mvn.w	r1, #2048	@ 0x800
1000565a:	70c2      	strb	r2, [r0, #3]
1000565c:	f003 b894 	b.w	10008788 <___hw_endpoint_buffer_control_update32_veneer>
10005660:	2000258c 	.word	0x2000258c

10005664 <rp2040_usb_init>:
10005664:	f04f 5280 	mov.w	r2, #268435456	@ 0x10000000
10005668:	4809      	ldr	r0, [pc, #36]	@ (10005690 <rp2040_usb_init+0x2c>)
1000566a:	490a      	ldr	r1, [pc, #40]	@ (10005694 <rp2040_usb_init+0x30>)
1000566c:	b508      	push	{r3, lr}
1000566e:	4b0a      	ldr	r3, [pc, #40]	@ (10005698 <rp2040_usb_init+0x34>)
10005670:	6002      	str	r2, [r0, #0]
10005672:	600a      	str	r2, [r1, #0]
10005674:	6899      	ldr	r1, [r3, #8]
10005676:	43c9      	mvns	r1, r1
10005678:	f011 5180 	ands.w	r1, r1, #268435456	@ 0x10000000
1000567c:	d1fa      	bne.n	10005674 <rp2040_usb_init+0x10>
1000567e:	f44f 5280 	mov.w	r2, #4096	@ 0x1000
10005682:	4806      	ldr	r0, [pc, #24]	@ (1000569c <rp2040_usb_init+0x38>)
10005684:	f002 fb92 	bl	10007dac <memset>
10005688:	2209      	movs	r2, #9
1000568a:	4b05      	ldr	r3, [pc, #20]	@ (100056a0 <rp2040_usb_init+0x3c>)
1000568c:	675a      	str	r2, [r3, #116]	@ 0x74
1000568e:	bd08      	pop	{r3, pc}
10005690:	40022000 	.word	0x40022000
10005694:	40023000 	.word	0x40023000
10005698:	40020000 	.word	0x40020000
1000569c:	50100000 	.word	0x50100000
100056a0:	50110000 	.word	0x50110000

100056a4 <hw_endpoint_xfer_start>:
100056a4:	2300      	movs	r3, #0
100056a6:	f04f 0c01 	mov.w	ip, #1
100056aa:	b510      	push	{r4, lr}
100056ac:	f880 c01a 	strb.w	ip, [r0, #26]
100056b0:	8282      	strh	r2, [r0, #20]
100056b2:	82c3      	strh	r3, [r0, #22]
100056b4:	6101      	str	r1, [r0, #16]
100056b6:	4604      	mov	r4, r0
100056b8:	f003 f872 	bl	100087a0 <__e15_is_bulkin_ep_veneer>
100056bc:	b120      	cbz	r0, 100056c8 <hw_endpoint_xfer_start+0x24>
100056be:	f44f 3200 	mov.w	r2, #131072	@ 0x20000
100056c2:	4b07      	ldr	r3, [pc, #28]	@ (100056e0 <hw_endpoint_xfer_start+0x3c>)
100056c4:	f8c3 2090 	str.w	r2, [r3, #144]	@ 0x90
100056c8:	4620      	mov	r0, r4
100056ca:	f003 f855 	bl	10008778 <__e15_is_critical_frame_period_veneer>
100056ce:	b110      	cbz	r0, 100056d6 <hw_endpoint_xfer_start+0x32>
100056d0:	2301      	movs	r3, #1
100056d2:	7723      	strb	r3, [r4, #28]
100056d4:	bd10      	pop	{r4, pc}
100056d6:	4620      	mov	r0, r4
100056d8:	e8bd 4010 	ldmia.w	sp!, {r4, lr}
100056dc:	f003 b838 	b.w	10008750 <__hw_endpoint_start_next_buffer_veneer>
100056e0:	50112000 	.word	0x50112000

100056e4 <configuration_reset>:
100056e4:	e92d 41f0 	stmdb	sp!, {r4, r5, r6, r7, r8, lr}
100056e8:	2400      	movs	r4, #0
100056ea:	4e1d      	ldr	r6, [pc, #116]	@ (10005760 <configuration_reset+0x7c>)
100056ec:	4605      	mov	r5, r0
100056ee:	4623      	mov	r3, r4
100056f0:	7832      	ldrb	r2, [r6, #0]
100056f2:	f8df 8078 	ldr.w	r8, [pc, #120]	@ 1000576c <configuration_reset+0x88>
100056f6:	4f1b      	ldr	r7, [pc, #108]	@ (10005764 <configuration_reset+0x80>)
100056f8:	e00d      	b.n	10005716 <configuration_reset+0x32>
100056fa:	683b      	ldr	r3, [r7, #0]
100056fc:	eb13 1344 	adds.w	r3, r3, r4, lsl #5
10005700:	d024      	beq.n	1000574c <configuration_reset+0x68>
10005702:	68db      	ldr	r3, [r3, #12]
10005704:	4628      	mov	r0, r5
10005706:	4798      	blx	r3
10005708:	7832      	ldrb	r2, [r6, #0]
1000570a:	3401      	adds	r4, #1
1000570c:	b2e4      	uxtb	r4, r4
1000570e:	1c51      	adds	r1, r2, #1
10005710:	42a1      	cmp	r1, r4
10005712:	4623      	mov	r3, r4
10005714:	db06      	blt.n	10005724 <configuration_reset+0x40>
10005716:	42a2      	cmp	r2, r4
10005718:	eba3 0302 	sub.w	r3, r3, r2
1000571c:	d8ed      	bhi.n	100056fa <configuration_reset+0x16>
1000571e:	eb08 1343 	add.w	r3, r8, r3, lsl #5
10005722:	e7ee      	b.n	10005702 <configuration_reset+0x1e>
10005724:	2254      	movs	r2, #84	@ 0x54
10005726:	2100      	movs	r1, #0
10005728:	480f      	ldr	r0, [pc, #60]	@ (10005768 <configuration_reset+0x84>)
1000572a:	f002 fb3f 	bl	10007dac <memset>
1000572e:	f04f 33ff 	mov.w	r3, #4294967295	@ 0xffffffff
10005732:	480d      	ldr	r0, [pc, #52]	@ (10005768 <configuration_reset+0x84>)
10005734:	2220      	movs	r2, #32
10005736:	1d04      	adds	r4, r0, #4
10005738:	6043      	str	r3, [r0, #4]
1000573a:	e9c4 3301 	strd	r3, r3, [r4, #4]
1000573e:	60e3      	str	r3, [r4, #12]
10005740:	21ff      	movs	r1, #255	@ 0xff
10005742:	e8bd 41f0 	ldmia.w	sp!, {r4, r5, r6, r7, r8, lr}
10005746:	3014      	adds	r0, #20
10005748:	f002 bb30 	b.w	10007dac <memset>
1000574c:	f04f 23e0 	mov.w	r3, #3758153728	@ 0xe000e000
10005750:	f8d3 3df0 	ldr.w	r3, [r3, #3568]	@ 0xdf0
10005754:	07db      	lsls	r3, r3, #31
10005756:	d500      	bpl.n	1000575a <configuration_reset+0x76>
10005758:	be00      	bkpt	0x0000
1000575a:	e8bd 81f0 	ldmia.w	sp!, {r4, r5, r6, r7, r8, pc}
1000575e:	bf00      	nop
10005760:	200029fd 	.word	0x200029fd
10005764:	20001f60 	.word	0x20001f60
10005768:	20002130 	.word	0x20002130
1000576c:	10008c44 	.word	0x10008c44

10005770 <tud_event_hook_cb>:
10005770:	4770      	bx	lr
10005772:	bf00      	nop

10005774 <tud_sof_cb>:
10005774:	4770      	bx	lr
10005776:	bf00      	nop

10005778 <tud_descriptor_device_qualifier_cb>:
10005778:	2000      	movs	r0, #0
1000577a:	4770      	bx	lr

1000577c <tud_descriptor_other_speed_configuration_cb>:
1000577c:	2000      	movs	r0, #0
1000577e:	4770      	bx	lr

10005780 <tud_mount_cb>:
10005780:	4770      	bx	lr
10005782:	bf00      	nop

10005784 <tud_umount_cb>:
10005784:	4770      	bx	lr
10005786:	bf00      	nop

10005788 <tud_suspend_cb>:
10005788:	4770      	bx	lr
1000578a:	bf00      	nop

1000578c <tud_resume_cb>:
1000578c:	4770      	bx	lr
1000578e:	bf00      	nop

10005790 <tud_mounted>:
10005790:	4b02      	ldr	r3, [pc, #8]	@ (1000579c <tud_mounted+0xc>)
10005792:	7858      	ldrb	r0, [r3, #1]
10005794:	3800      	subs	r0, #0
10005796:	bf18      	it	ne
10005798:	2001      	movne	r0, #1
1000579a:	4770      	bx	lr
1000579c:	20002130 	.word	0x20002130

100057a0 <tud_suspended>:
100057a0:	4b02      	ldr	r3, [pc, #8]	@ (100057ac <tud_suspended+0xc>)
100057a2:	7818      	ldrb	r0, [r3, #0]
100057a4:	f3c0 0080 	ubfx	r0, r0, #2, #1
100057a8:	4770      	bx	lr
100057aa:	bf00      	nop
100057ac:	20002130 	.word	0x20002130

100057b0 <tud_rhport_init>:
100057b0:	e92d 47f0 	stmdb	sp!, {r4, r5, r6, r7, r8, r9, sl, lr}
100057b4:	f8df a0e4 	ldr.w	sl, [pc, #228]	@ 1000589c <tud_rhport_init+0xec>
100057b8:	f89a 3000 	ldrb.w	r3, [sl]
100057bc:	2bff      	cmp	r3, #255	@ 0xff
100057be:	d156      	bne.n	1000586e <tud_rhport_init+0xbe>
100057c0:	460e      	mov	r6, r1
100057c2:	2900      	cmp	r1, #0
100057c4:	d03e      	beq.n	10005844 <tud_rhport_init+0x94>
100057c6:	2100      	movs	r1, #0
100057c8:	2254      	movs	r2, #84	@ 0x54
100057ca:	4607      	mov	r7, r0
100057cc:	4829      	ldr	r0, [pc, #164]	@ (10005874 <tud_rhport_init+0xc4>)
100057ce:	f002 faed 	bl	10007dac <memset>
100057d2:	2200      	movs	r2, #0
100057d4:	4c28      	ldr	r4, [pc, #160]	@ (10005878 <tud_rhport_init+0xc8>)
100057d6:	4b29      	ldr	r3, [pc, #164]	@ (1000587c <tud_rhport_init+0xcc>)
100057d8:	4620      	mov	r0, r4
100057da:	701a      	strb	r2, [r3, #0]
100057dc:	f7fb fa58 	bl	10000c90 <mutex_init>
100057e0:	4b27      	ldr	r3, [pc, #156]	@ (10005880 <tud_rhport_init+0xd0>)
100057e2:	4828      	ldr	r0, [pc, #160]	@ (10005884 <tud_rhport_init+0xd4>)
100057e4:	601c      	str	r4, [r3, #0]
100057e6:	4c28      	ldr	r4, [pc, #160]	@ (10005888 <tud_rhport_init+0xd8>)
100057e8:	f7fb fa60 	bl	10000cac <critical_section_init>
100057ec:	4620      	mov	r0, r4
100057ee:	f001 fdab 	bl	10007348 <tu_fifo_clear>
100057f2:	4a26      	ldr	r2, [pc, #152]	@ (1000588c <tud_rhport_init+0xdc>)
100057f4:	4b26      	ldr	r3, [pc, #152]	@ (10005890 <tud_rhport_init+0xe0>)
100057f6:	6014      	str	r4, [r2, #0]
100057f8:	b123      	cbz	r3, 10005804 <tud_rhport_init+0x54>
100057fa:	4826      	ldr	r0, [pc, #152]	@ (10005894 <tud_rhport_init+0xe4>)
100057fc:	f7ff fac0 	bl	10004d80 <usbd_app_driver_get_cb>
10005800:	4b25      	ldr	r3, [pc, #148]	@ (10005898 <tud_rhport_init+0xe8>)
10005802:	6018      	str	r0, [r3, #0]
10005804:	2400      	movs	r4, #0
10005806:	4d23      	ldr	r5, [pc, #140]	@ (10005894 <tud_rhport_init+0xe4>)
10005808:	4623      	mov	r3, r4
1000580a:	782a      	ldrb	r2, [r5, #0]
1000580c:	f8df 9090 	ldr.w	r9, [pc, #144]	@ 100058a0 <tud_rhport_init+0xf0>
10005810:	f8df 8084 	ldr.w	r8, [pc, #132]	@ 10005898 <tud_rhport_init+0xe8>
10005814:	e00e      	b.n	10005834 <tud_rhport_init+0x84>
10005816:	f8d8 3000 	ldr.w	r3, [r8]
1000581a:	eb13 1344 	adds.w	r3, r3, r4, lsl #5
1000581e:	d011      	beq.n	10005844 <tud_rhport_init+0x94>
10005820:	685b      	ldr	r3, [r3, #4]
10005822:	b17b      	cbz	r3, 10005844 <tud_rhport_init+0x94>
10005824:	4798      	blx	r3
10005826:	782a      	ldrb	r2, [r5, #0]
10005828:	3401      	adds	r4, #1
1000582a:	b2e4      	uxtb	r4, r4
1000582c:	1c51      	adds	r1, r2, #1
1000582e:	42a1      	cmp	r1, r4
10005830:	4623      	mov	r3, r4
10005832:	db11      	blt.n	10005858 <tud_rhport_init+0xa8>
10005834:	42a2      	cmp	r2, r4
10005836:	d8ee      	bhi.n	10005816 <tud_rhport_init+0x66>
10005838:	1a9b      	subs	r3, r3, r2
1000583a:	eb09 1343 	add.w	r3, r9, r3, lsl #5
1000583e:	685b      	ldr	r3, [r3, #4]
10005840:	2b00      	cmp	r3, #0
10005842:	d1ef      	bne.n	10005824 <tud_rhport_init+0x74>
10005844:	f04f 23e0 	mov.w	r3, #3758153728	@ 0xe000e000
10005848:	f8d3 3df0 	ldr.w	r3, [r3, #3568]	@ 0xdf0
1000584c:	07db      	lsls	r3, r3, #31
1000584e:	d500      	bpl.n	10005852 <tud_rhport_init+0xa2>
10005850:	be00      	bkpt	0x0000
10005852:	2000      	movs	r0, #0
10005854:	e8bd 87f0 	ldmia.w	sp!, {r4, r5, r6, r7, r8, r9, sl, pc}
10005858:	4631      	mov	r1, r6
1000585a:	4638      	mov	r0, r7
1000585c:	f88a 7000 	strb.w	r7, [sl]
10005860:	f7ff fdd0 	bl	10005404 <dcd_init>
10005864:	2800      	cmp	r0, #0
10005866:	d0ed      	beq.n	10005844 <tud_rhport_init+0x94>
10005868:	4638      	mov	r0, r7
1000586a:	f7ff fe11 	bl	10005490 <dcd_int_enable>
1000586e:	2001      	movs	r0, #1
10005870:	e8bd 87f0 	ldmia.w	sp!, {r4, r5, r6, r7, r8, r9, sl, pc}
10005874:	20002130 	.word	0x20002130
10005878:	20002128 	.word	0x20002128
1000587c:	200029ff 	.word	0x200029ff
10005880:	20002184 	.word	0x20002184
10005884:	200016a8 	.word	0x200016a8
10005888:	20001694 	.word	0x20001694
1000588c:	20002188 	.word	0x20002188
10005890:	10004d81 	.word	0x10004d81
10005894:	200029fd 	.word	0x200029fd
10005898:	20001f60 	.word	0x20001f60
1000589c:	200016b0 	.word	0x200016b0
100058a0:	10008c44 	.word	0x10008c44

100058a4 <tud_task_ext>:
100058a4:	e92d 4ff0 	stmdb	sp!, {r4, r5, r6, r7, r8, r9, sl, fp, lr}
100058a8:	f8df 92c8 	ldr.w	r9, [pc, #712]	@ 10005b74 <tud_task_ext+0x2d0>
100058ac:	b08b      	sub	sp, #44	@ 0x2c
100058ae:	f899 3000 	ldrb.w	r3, [r9]
100058b2:	2bff      	cmp	r3, #255	@ 0xff
100058b4:	f000 80f1 	beq.w	10005a9a <tud_task_ext+0x1f6>
100058b8:	4ca8      	ldr	r4, [pc, #672]	@ (10005b5c <tud_task_ext+0x2b8>)
100058ba:	4da9      	ldr	r5, [pc, #676]	@ (10005b60 <tud_task_ext+0x2bc>)
100058bc:	f8df a2b0 	ldr.w	sl, [pc, #688]	@ 10005b70 <tud_task_ext+0x2cc>
100058c0:	f8df b2b4 	ldr.w	fp, [pc, #692]	@ 10005b78 <tud_task_ext+0x2d4>
100058c4:	6826      	ldr	r6, [r4, #0]
100058c6:	6973      	ldr	r3, [r6, #20]
100058c8:	f3ef 8210 	mrs	r2, PRIMASK
100058cc:	b672      	cpsid	i
100058ce:	e8d3 0fcf 	ldaexb	r0, [r3]
100058d2:	2101      	movs	r1, #1
100058d4:	2800      	cmp	r0, #0
100058d6:	d1fa      	bne.n	100058ce <tud_task_ext+0x2a>
100058d8:	e8c3 1f40 	strexb	r0, r1, [r3]
100058dc:	2800      	cmp	r0, #0
100058de:	d1f6      	bne.n	100058ce <tud_task_ext+0x2a>
100058e0:	f3bf 8f5f 	dmb	sy
100058e4:	61b2      	str	r2, [r6, #24]
100058e6:	4630      	mov	r0, r6
100058e8:	a907      	add	r1, sp, #28
100058ea:	f001 fb77 	bl	10006fdc <tu_fifo_read>
100058ee:	2300      	movs	r3, #0
100058f0:	6972      	ldr	r2, [r6, #20]
100058f2:	e8c2 3f8f 	stlb	r3, [r2]
100058f6:	69b3      	ldr	r3, [r6, #24]
100058f8:	f383 8810 	msr	PRIMASK, r3
100058fc:	2800      	cmp	r0, #0
100058fe:	f000 80cc 	beq.w	10005a9a <tud_task_ext+0x1f6>
10005902:	f89d 301d 	ldrb.w	r3, [sp, #29]
10005906:	3b01      	subs	r3, #1
10005908:	2b07      	cmp	r3, #7
1000590a:	f200 837d 	bhi.w	10006008 <tud_task_ext+0x764>
1000590e:	e8df f003 	tbb	[pc, r3]
10005912:	b1a7      	.short	0xb1a7
10005914:	358e9d95 	.word	0x358e9d95
10005918:	040a      	.short	0x040a
1000591a:	9b08      	ldr	r3, [sp, #32]
1000591c:	2b00      	cmp	r3, #0
1000591e:	d0d1      	beq.n	100058c4 <tud_task_ext+0x20>
10005920:	9809      	ldr	r0, [sp, #36]	@ 0x24
10005922:	4798      	blx	r3
10005924:	e7ce      	b.n	100058c4 <tud_task_ext+0x20>
10005926:	f89d 1020 	ldrb.w	r1, [sp, #32]
1000592a:	f001 067f 	and.w	r6, r1, #127	@ 0x7f
1000592e:	eb05 0046 	add.w	r0, r5, r6, lsl #1
10005932:	eb00 10d1 	add.w	r0, r0, r1, lsr #7
10005936:	f890 3034 	ldrb.w	r3, [r0, #52]	@ 0x34
1000593a:	f023 0301 	bic.w	r3, r3, #1
1000593e:	f880 3034 	strb.w	r3, [r0, #52]	@ 0x34
10005942:	f890 3034 	ldrb.w	r3, [r0, #52]	@ 0x34
10005946:	f023 0304 	bic.w	r3, r3, #4
1000594a:	f880 3034 	strb.w	r3, [r0, #52]	@ 0x34
1000594e:	2e00      	cmp	r6, #0
10005950:	f000 80a6 	beq.w	10005aa0 <tud_task_ext+0x1fc>
10005954:	7d03      	ldrb	r3, [r0, #20]
10005956:	f89a 2000 	ldrb.w	r2, [sl]
1000595a:	4293      	cmp	r3, r2
1000595c:	f080 8093 	bcs.w	10005a86 <tud_task_ext+0x1e2>
10005960:	4a80      	ldr	r2, [pc, #512]	@ (10005b64 <tud_task_ext+0x2c0>)
10005962:	6812      	ldr	r2, [r2, #0]
10005964:	eb12 1343 	adds.w	r3, r2, r3, lsl #5
10005968:	f000 8090 	beq.w	10005a8c <tud_task_ext+0x1e8>
1000596c:	699e      	ldr	r6, [r3, #24]
1000596e:	f89d 2021 	ldrb.w	r2, [sp, #33]	@ 0x21
10005972:	9b09      	ldr	r3, [sp, #36]	@ 0x24
10005974:	f89d 001c 	ldrb.w	r0, [sp, #28]
10005978:	47b0      	blx	r6
1000597a:	e7a3      	b.n	100058c4 <tud_task_ext+0x20>
1000597c:	f89b 3000 	ldrb.w	r3, [fp]
10005980:	2b00      	cmp	r3, #0
10005982:	f000 8083 	beq.w	10005a8c <tud_task_ext+0x1e8>
10005986:	f89b 3000 	ldrb.w	r3, [fp]
1000598a:	3b01      	subs	r3, #1
1000598c:	b2db      	uxtb	r3, r3
1000598e:	f88b 3000 	strb.w	r3, [fp]
10005992:	f89b 3000 	ldrb.w	r3, [fp]
10005996:	f003 00ff 	and.w	r0, r3, #255	@ 0xff
1000599a:	2b00      	cmp	r3, #0
1000599c:	d192      	bne.n	100058c4 <tud_task_ext+0x20>
1000599e:	4f70      	ldr	r7, [pc, #448]	@ (10005b60 <tud_task_ext+0x2bc>)
100059a0:	f89d 801c 	ldrb.w	r8, [sp, #28]
100059a4:	783b      	ldrb	r3, [r7, #0]
100059a6:	f043 0301 	orr.w	r3, r3, #1
100059aa:	703b      	strb	r3, [r7, #0]
100059ac:	f897 3034 	ldrb.w	r3, [r7, #52]	@ 0x34
100059b0:	f360 0300 	bfi	r3, r0, #0, #1
100059b4:	f887 3034 	strb.w	r3, [r7, #52]	@ 0x34
100059b8:	f897 3034 	ldrb.w	r3, [r7, #52]	@ 0x34
100059bc:	f360 0382 	bfi	r3, r0, #2, #1
100059c0:	f887 3034 	strb.w	r3, [r7, #52]	@ 0x34
100059c4:	f897 3035 	ldrb.w	r3, [r7, #53]	@ 0x35
100059c8:	f360 0300 	bfi	r3, r0, #0, #1
100059cc:	f887 3035 	strb.w	r3, [r7, #53]	@ 0x35
100059d0:	f897 3035 	ldrb.w	r3, [r7, #53]	@ 0x35
100059d4:	f360 0382 	bfi	r3, r0, #2, #1
100059d8:	f887 3035 	strb.w	r3, [r7, #53]	@ 0x35
100059dc:	f000 fc6c 	bl	100062b8 <usbd_control_set_complete_callback>
100059e0:	f89d 3020 	ldrb.w	r3, [sp, #32]
100059e4:	f003 0260 	and.w	r2, r3, #96	@ 0x60
100059e8:	2a60      	cmp	r2, #96	@ 0x60
100059ea:	d06c      	beq.n	10005ac6 <tud_task_ext+0x222>
100059ec:	2a40      	cmp	r2, #64	@ 0x40
100059ee:	d07c      	beq.n	10005aea <tud_task_ext+0x246>
100059f0:	f003 031f 	and.w	r3, r3, #31
100059f4:	2b01      	cmp	r3, #1
100059f6:	f000 80c1 	beq.w	10005b7c <tud_task_ext+0x2d8>
100059fa:	2b02      	cmp	r3, #2
100059fc:	f000 8081 	beq.w	10005b02 <tud_task_ext+0x25e>
10005a00:	2b00      	cmp	r3, #0
10005a02:	d160      	bne.n	10005ac6 <tud_task_ext+0x222>
10005a04:	2a20      	cmp	r2, #32
10005a06:	f000 81e9 	beq.w	10005ddc <tud_task_ext+0x538>
10005a0a:	2a00      	cmp	r2, #0
10005a0c:	d15b      	bne.n	10005ac6 <tud_task_ext+0x222>
10005a0e:	f89d 3021 	ldrb.w	r3, [sp, #33]	@ 0x21
10005a12:	2b09      	cmp	r3, #9
10005a14:	d857      	bhi.n	10005ac6 <tud_task_ext+0x222>
10005a16:	e8df f013 	tbh	[pc, r3, lsl #1]
10005a1a:	01b0      	.short	0x01b0
10005a1c:	005601a2 	.word	0x005601a2
10005a20:	005601c1 	.word	0x005601c1
10005a24:	016b0195 	.word	0x016b0195
10005a28:	01600056 	.word	0x01600056
10005a2c:	00f4      	.short	0x00f4
10005a2e:	782b      	ldrb	r3, [r5, #0]
10005a30:	07d9      	lsls	r1, r3, #31
10005a32:	f57f af47 	bpl.w	100058c4 <tud_task_ext+0x20>
10005a36:	f7ff fea9 	bl	1000578c <tud_resume_cb>
10005a3a:	e743      	b.n	100058c4 <tud_task_ext+0x20>
10005a3c:	78eb      	ldrb	r3, [r5, #3]
10005a3e:	07da      	lsls	r2, r3, #31
10005a40:	f57f af40 	bpl.w	100058c4 <tud_task_ext+0x20>
10005a44:	9808      	ldr	r0, [sp, #32]
10005a46:	f7ff fe95 	bl	10005774 <tud_sof_cb>
10005a4a:	e73b      	b.n	100058c4 <tud_task_ext+0x20>
10005a4c:	782b      	ldrb	r3, [r5, #0]
10005a4e:	07d8      	lsls	r0, r3, #31
10005a50:	f57f af38 	bpl.w	100058c4 <tud_task_ext+0x20>
10005a54:	7828      	ldrb	r0, [r5, #0]
10005a56:	f3c0 00c0 	ubfx	r0, r0, #3, #1
10005a5a:	f7ff fe95 	bl	10005788 <tud_suspend_cb>
10005a5e:	e731      	b.n	100058c4 <tud_task_ext+0x20>
10005a60:	f89d 001c 	ldrb.w	r0, [sp, #28]
10005a64:	f7ff fe3e 	bl	100056e4 <configuration_reset>
10005a68:	f000 fc1c 	bl	100062a4 <usbd_control_reset>
10005a6c:	f89d 3020 	ldrb.w	r3, [sp, #32]
10005a70:	70ab      	strb	r3, [r5, #2]
10005a72:	e727      	b.n	100058c4 <tud_task_ext+0x20>
10005a74:	f89d 001c 	ldrb.w	r0, [sp, #28]
10005a78:	f7ff fe34 	bl	100056e4 <configuration_reset>
10005a7c:	f000 fc12 	bl	100062a4 <usbd_control_reset>
10005a80:	f7ff fe80 	bl	10005784 <tud_umount_cb>
10005a84:	e71e      	b.n	100058c4 <tud_task_ext+0x20>
10005a86:	1c50      	adds	r0, r2, #1
10005a88:	4298      	cmp	r0, r3
10005a8a:	da11      	bge.n	10005ab0 <tud_task_ext+0x20c>
10005a8c:	f04f 23e0 	mov.w	r3, #3758153728	@ 0xe000e000
10005a90:	f8d3 3df0 	ldr.w	r3, [r3, #3568]	@ 0xdf0
10005a94:	07dc      	lsls	r4, r3, #31
10005a96:	d500      	bpl.n	10005a9a <tud_task_ext+0x1f6>
10005a98:	be00      	bkpt	0x0000
10005a9a:	b00b      	add	sp, #44	@ 0x2c
10005a9c:	e8bd 8ff0 	ldmia.w	sp!, {r4, r5, r6, r7, r8, r9, sl, fp, pc}
10005aa0:	9b09      	ldr	r3, [sp, #36]	@ 0x24
10005aa2:	f89d 2021 	ldrb.w	r2, [sp, #33]	@ 0x21
10005aa6:	f89d 001c 	ldrb.w	r0, [sp, #28]
10005aaa:	f000 fc19 	bl	100062e0 <usbd_control_xfer_cb>
10005aae:	e709      	b.n	100058c4 <tud_task_ext+0x20>
10005ab0:	1a9b      	subs	r3, r3, r2
10005ab2:	4a2d      	ldr	r2, [pc, #180]	@ (10005b68 <tud_task_ext+0x2c4>)
10005ab4:	eb02 1343 	add.w	r3, r2, r3, lsl #5
10005ab8:	e758      	b.n	1000596c <tud_task_ext+0xc8>
10005aba:	f7ff fb8d 	bl	100051d8 <tud_descriptor_configuration_cb>
10005abe:	4602      	mov	r2, r0
10005ac0:	2800      	cmp	r0, #0
10005ac2:	f040 8182 	bne.w	10005dca <tud_task_ext+0x526>
10005ac6:	f04f 23e0 	mov.w	r3, #3758153728	@ 0xe000e000
10005aca:	f8d3 3df0 	ldr.w	r3, [r3, #3568]	@ 0xdf0
10005ace:	07de      	lsls	r6, r3, #31
10005ad0:	d500      	bpl.n	10005ad4 <tud_task_ext+0x230>
10005ad2:	be00      	bkpt	0x0000
10005ad4:	f89d 001c 	ldrb.w	r0, [sp, #28]
10005ad8:	2100      	movs	r1, #0
10005ada:	f7ff fd99 	bl	10005610 <dcd_edpt_stall>
10005ade:	2180      	movs	r1, #128	@ 0x80
10005ae0:	f89d 001c 	ldrb.w	r0, [sp, #28]
10005ae4:	f7ff fd94 	bl	10005610 <dcd_edpt_stall>
10005ae8:	e6ec      	b.n	100058c4 <tud_task_ext+0x20>
10005aea:	4820      	ldr	r0, [pc, #128]	@ (10005b6c <tud_task_ext+0x2c8>)
10005aec:	f000 fbe4 	bl	100062b8 <usbd_control_set_complete_callback>
10005af0:	2101      	movs	r1, #1
10005af2:	4640      	mov	r0, r8
10005af4:	aa08      	add	r2, sp, #32
10005af6:	f7ff f92f 	bl	10004d58 <tud_vendor_control_xfer_cb>
10005afa:	2800      	cmp	r0, #0
10005afc:	f47f aee2 	bne.w	100058c4 <tud_task_ext+0x20>
10005b00:	e7e8      	b.n	10005ad4 <tud_task_ext+0x230>
10005b02:	f89d 1024 	ldrb.w	r1, [sp, #36]	@ 0x24
10005b06:	f011 0f70 	tst.w	r1, #112	@ 0x70
10005b0a:	d1dc      	bne.n	10005ac6 <tud_task_ext+0x222>
10005b0c:	f001 067f 	and.w	r6, r1, #127	@ 0x7f
10005b10:	eb07 0046 	add.w	r0, r7, r6, lsl #1
10005b14:	4b16      	ldr	r3, [pc, #88]	@ (10005b70 <tud_task_ext+0x2cc>)
10005b16:	eb00 10d1 	add.w	r0, r0, r1, lsr #7
10005b1a:	781b      	ldrb	r3, [r3, #0]
10005b1c:	7d00      	ldrb	r0, [r0, #20]
10005b1e:	0076      	lsls	r6, r6, #1
10005b20:	9601      	str	r6, [sp, #4]
10005b22:	4298      	cmp	r0, r3
10005b24:	ea4f 16d1 	mov.w	r6, r1, lsr #7
10005b28:	9600      	str	r6, [sp, #0]
10005b2a:	d359      	bcc.n	10005be0 <tud_task_ext+0x33c>
10005b2c:	1c5e      	adds	r6, r3, #1
10005b2e:	4286      	cmp	r6, r0
10005b30:	f2c0 8166 	blt.w	10005e00 <tud_task_ext+0x55c>
10005b34:	1ac0      	subs	r0, r0, r3
10005b36:	4b0c      	ldr	r3, [pc, #48]	@ (10005b68 <tud_task_ext+0x2c4>)
10005b38:	eb03 1640 	add.w	r6, r3, r0, lsl #5
10005b3c:	2a00      	cmp	r2, #0
10005b3e:	f000 8163 	beq.w	10005e08 <tud_task_ext+0x564>
10005b42:	6970      	ldr	r0, [r6, #20]
10005b44:	f000 fbb8 	bl	100062b8 <usbd_control_set_complete_callback>
10005b48:	2101      	movs	r1, #1
10005b4a:	4640      	mov	r0, r8
10005b4c:	6973      	ldr	r3, [r6, #20]
10005b4e:	aa08      	add	r2, sp, #32
10005b50:	4798      	blx	r3
10005b52:	2800      	cmp	r0, #0
10005b54:	f47f aeb6 	bne.w	100058c4 <tud_task_ext+0x20>
10005b58:	e7bc      	b.n	10005ad4 <tud_task_ext+0x230>
10005b5a:	bf00      	nop
10005b5c:	20002188 	.word	0x20002188
10005b60:	20002130 	.word	0x20002130
10005b64:	20001f60 	.word	0x20001f60
10005b68:	10008c44 	.word	0x10008c44
10005b6c:	10004d59 	.word	0x10004d59
10005b70:	200029fd 	.word	0x200029fd
10005b74:	200016b0 	.word	0x200016b0
10005b78:	200029ff 	.word	0x200029ff
10005b7c:	f89d 3024 	ldrb.w	r3, [sp, #36]	@ 0x24
10005b80:	2b0f      	cmp	r3, #15
10005b82:	d8a7      	bhi.n	10005ad4 <tud_task_ext+0x230>
10005b84:	4aae      	ldr	r2, [pc, #696]	@ (10005e40 <tud_task_ext+0x59c>)
10005b86:	443b      	add	r3, r7
10005b88:	791b      	ldrb	r3, [r3, #4]
10005b8a:	7812      	ldrb	r2, [r2, #0]
10005b8c:	4293      	cmp	r3, r2
10005b8e:	d332      	bcc.n	10005bf6 <tud_task_ext+0x352>
10005b90:	1c51      	adds	r1, r2, #1
10005b92:	4299      	cmp	r1, r3
10005b94:	db9e      	blt.n	10005ad4 <tud_task_ext+0x230>
10005b96:	4eab      	ldr	r6, [pc, #684]	@ (10005e44 <tud_task_ext+0x5a0>)
10005b98:	1a9b      	subs	r3, r3, r2
10005b9a:	eb06 1643 	add.w	r6, r6, r3, lsl #5
10005b9e:	6970      	ldr	r0, [r6, #20]
10005ba0:	f000 fb8a 	bl	100062b8 <usbd_control_set_complete_callback>
10005ba4:	2101      	movs	r1, #1
10005ba6:	4640      	mov	r0, r8
10005ba8:	6973      	ldr	r3, [r6, #20]
10005baa:	aa08      	add	r2, sp, #32
10005bac:	4798      	blx	r3
10005bae:	2800      	cmp	r0, #0
10005bb0:	f47f ae88 	bne.w	100058c4 <tud_task_ext+0x20>
10005bb4:	f89d 3020 	ldrb.w	r3, [sp, #32]
10005bb8:	f013 0660 	ands.w	r6, r3, #96	@ 0x60
10005bbc:	d18a      	bne.n	10005ad4 <tud_task_ext+0x230>
10005bbe:	f89d 3021 	ldrb.w	r3, [sp, #33]	@ 0x21
10005bc2:	3b0a      	subs	r3, #10
10005bc4:	2b01      	cmp	r3, #1
10005bc6:	d885      	bhi.n	10005ad4 <tud_task_ext+0x230>
10005bc8:	f000 fb76 	bl	100062b8 <usbd_control_set_complete_callback>
10005bcc:	f89d 3021 	ldrb.w	r3, [sp, #33]	@ 0x21
10005bd0:	2b0a      	cmp	r3, #10
10005bd2:	f000 81f2 	beq.w	10005fba <tud_task_ext+0x716>
10005bd6:	4640      	mov	r0, r8
10005bd8:	a908      	add	r1, sp, #32
10005bda:	f000 faf1 	bl	100061c0 <tud_control_status>
10005bde:	e671      	b.n	100058c4 <tud_task_ext+0x20>
10005be0:	4b99      	ldr	r3, [pc, #612]	@ (10005e48 <tud_task_ext+0x5a4>)
10005be2:	681b      	ldr	r3, [r3, #0]
10005be4:	eb03 1640 	add.w	r6, r3, r0, lsl #5
10005be8:	2a00      	cmp	r2, #0
10005bea:	f000 810d 	beq.w	10005e08 <tud_task_ext+0x564>
10005bee:	2e00      	cmp	r6, #0
10005bf0:	f43f af70 	beq.w	10005ad4 <tud_task_ext+0x230>
10005bf4:	e7a5      	b.n	10005b42 <tud_task_ext+0x29e>
10005bf6:	4a94      	ldr	r2, [pc, #592]	@ (10005e48 <tud_task_ext+0x5a4>)
10005bf8:	6816      	ldr	r6, [r2, #0]
10005bfa:	eb16 1643 	adds.w	r6, r6, r3, lsl #5
10005bfe:	d1ce      	bne.n	10005b9e <tud_task_ext+0x2fa>
10005c00:	e768      	b.n	10005ad4 <tud_task_ext+0x230>
10005c02:	787b      	ldrb	r3, [r7, #1]
10005c04:	f89d 6022 	ldrb.w	r6, [sp, #34]	@ 0x22
10005c08:	429e      	cmp	r6, r3
10005c0a:	f000 814f 	beq.w	10005eac <tud_task_ext+0x608>
10005c0e:	787b      	ldrb	r3, [r7, #1]
10005c10:	2b00      	cmp	r3, #0
10005c12:	f040 81be 	bne.w	10005f92 <tud_task_ext+0x6ee>
10005c16:	707e      	strb	r6, [r7, #1]
10005c18:	2e00      	cmp	r6, #0
10005c1a:	f000 8145 	beq.w	10005ea8 <tud_task_ext+0x604>
10005c1e:	1e70      	subs	r0, r6, #1
10005c20:	b2c0      	uxtb	r0, r0
10005c22:	f7ff fad9 	bl	100051d8 <tud_descriptor_configuration_cb>
10005c26:	4603      	mov	r3, r0
10005c28:	2800      	cmp	r0, #0
10005c2a:	f000 815f 	beq.w	10005eec <tud_task_ext+0x648>
10005c2e:	7842      	ldrb	r2, [r0, #1]
10005c30:	2a02      	cmp	r2, #2
10005c32:	f040 815b 	bne.w	10005eec <tud_task_ext+0x648>
10005c36:	79c1      	ldrb	r1, [r0, #7]
10005c38:	f103 0609 	add.w	r6, r3, #9
10005c3c:	f3c1 1240 	ubfx	r2, r1, #5, #1
10005c40:	0112      	lsls	r2, r2, #4
10005c42:	f3c1 1180 	ubfx	r1, r1, #6, #1
10005c46:	ea42 1241 	orr.w	r2, r2, r1, lsl #5
10005c4a:	4631      	mov	r1, r6
10005c4c:	7838      	ldrb	r0, [r7, #0]
10005c4e:	f020 0030 	bic.w	r0, r0, #48	@ 0x30
10005c52:	4302      	orrs	r2, r0
10005c54:	703a      	strb	r2, [r7, #0]
10005c56:	885a      	ldrh	r2, [r3, #2]
10005c58:	f8cd 800c 	str.w	r8, [sp, #12]
10005c5c:	189a      	adds	r2, r3, r2
10005c5e:	9201      	str	r2, [sp, #4]
10005c60:	9b01      	ldr	r3, [sp, #4]
10005c62:	428b      	cmp	r3, r1
10005c64:	f240 81a4 	bls.w	10005fb0 <tud_task_ext+0x70c>
10005c68:	784a      	ldrb	r2, [r1, #1]
10005c6a:	2a0b      	cmp	r2, #11
10005c6c:	f000 81af 	beq.w	10005fce <tud_task_ext+0x72a>
10005c70:	2301      	movs	r3, #1
10005c72:	2a04      	cmp	r2, #4
10005c74:	f040 813a 	bne.w	10005eec <tud_task_ext+0x648>
10005c78:	2600      	movs	r6, #0
10005c7a:	9a01      	ldr	r2, [sp, #4]
10005c7c:	9600      	str	r6, [sp, #0]
10005c7e:	1a52      	subs	r2, r2, r1
10005c80:	b292      	uxth	r2, r2
10005c82:	9202      	str	r2, [sp, #8]
10005c84:	4a6e      	ldr	r2, [pc, #440]	@ (10005e40 <tud_task_ext+0x59c>)
10005c86:	9304      	str	r3, [sp, #16]
10005c88:	7812      	ldrb	r2, [r2, #0]
10005c8a:	e01d      	b.n	10005cc8 <tud_task_ext+0x424>
10005c8c:	4b6e      	ldr	r3, [pc, #440]	@ (10005e48 <tud_task_ext+0x5a4>)
10005c8e:	681b      	ldr	r3, [r3, #0]
10005c90:	eb13 1846 	adds.w	r8, r3, r6, lsl #5
10005c94:	f000 812a 	beq.w	10005eec <tud_task_ext+0x648>
10005c98:	9a02      	ldr	r2, [sp, #8]
10005c9a:	f8d8 3010 	ldr.w	r3, [r8, #16]
10005c9e:	9803      	ldr	r0, [sp, #12]
10005ca0:	9105      	str	r1, [sp, #20]
10005ca2:	4798      	blx	r3
10005ca4:	2808      	cmp	r0, #8
10005ca6:	4602      	mov	r2, r0
10005ca8:	9905      	ldr	r1, [sp, #20]
10005caa:	f106 0301 	add.w	r3, r6, #1
10005cae:	d903      	bls.n	10005cb8 <tud_task_ext+0x414>
10005cb0:	9802      	ldr	r0, [sp, #8]
10005cb2:	4290      	cmp	r0, r2
10005cb4:	f080 80ff 	bcs.w	10005eb6 <tud_task_ext+0x612>
10005cb8:	b2de      	uxtb	r6, r3
10005cba:	4b61      	ldr	r3, [pc, #388]	@ (10005e40 <tud_task_ext+0x59c>)
10005cbc:	9600      	str	r6, [sp, #0]
10005cbe:	781a      	ldrb	r2, [r3, #0]
10005cc0:	1c53      	adds	r3, r2, #1
10005cc2:	429e      	cmp	r6, r3
10005cc4:	f300 8112 	bgt.w	10005eec <tud_task_ext+0x648>
10005cc8:	9b00      	ldr	r3, [sp, #0]
10005cca:	42b2      	cmp	r2, r6
10005ccc:	eba3 0202 	sub.w	r2, r3, r2
10005cd0:	d8dc      	bhi.n	10005c8c <tud_task_ext+0x3e8>
10005cd2:	4b5c      	ldr	r3, [pc, #368]	@ (10005e44 <tud_task_ext+0x5a0>)
10005cd4:	eb03 1842 	add.w	r8, r3, r2, lsl #5
10005cd8:	e7de      	b.n	10005c98 <tud_task_ext+0x3f4>
10005cda:	787b      	ldrb	r3, [r7, #1]
10005cdc:	4640      	mov	r0, r8
10005cde:	f88d 301a 	strb.w	r3, [sp, #26]
10005ce2:	f10d 021a 	add.w	r2, sp, #26
10005ce6:	2301      	movs	r3, #1
10005ce8:	a908      	add	r1, sp, #32
10005cea:	f000 fa83 	bl	100061f4 <tud_control_xfer>
10005cee:	e5e9      	b.n	100058c4 <tud_task_ext+0x20>
10005cf0:	f8bd 0022 	ldrh.w	r0, [sp, #34]	@ 0x22
10005cf4:	0a03      	lsrs	r3, r0, #8
10005cf6:	3b01      	subs	r3, #1
10005cf8:	0a02      	lsrs	r2, r0, #8
10005cfa:	b2c0      	uxtb	r0, r0
10005cfc:	2b0e      	cmp	r3, #14
10005cfe:	f63f aee9 	bhi.w	10005ad4 <tud_task_ext+0x230>
10005d02:	a101      	add	r1, pc, #4	@ (adr r1, 10005d08 <tud_task_ext+0x464>)
10005d04:	f851 f023 	ldr.w	pc, [r1, r3, lsl #2]
10005d08:	10005f1d 	.word	0x10005f1d
10005d0c:	10005db9 	.word	0x10005db9
10005d10:	10005f59 	.word	0x10005f59
10005d14:	10005ad5 	.word	0x10005ad5
10005d18:	10005ad5 	.word	0x10005ad5
10005d1c:	10005f3b 	.word	0x10005f3b
10005d20:	10005db9 	.word	0x10005db9
10005d24:	10005ad5 	.word	0x10005ad5
10005d28:	10005ad5 	.word	0x10005ad5
10005d2c:	10005ad5 	.word	0x10005ad5
10005d30:	10005ad5 	.word	0x10005ad5
10005d34:	10005ad5 	.word	0x10005ad5
10005d38:	10005ad5 	.word	0x10005ad5
10005d3c:	10005ad5 	.word	0x10005ad5
10005d40:	10005f0f 	.word	0x10005f0f
10005d44:	a808      	add	r0, sp, #32
10005d46:	f000 fabd 	bl	100062c4 <usbd_control_set_request>
10005d4a:	4640      	mov	r0, r8
10005d4c:	f89d 1022 	ldrb.w	r1, [sp, #34]	@ 0x22
10005d50:	f7ff fba2 	bl	10005498 <dcd_set_address>
10005d54:	783b      	ldrb	r3, [r7, #0]
10005d56:	f043 0302 	orr.w	r3, r3, #2
10005d5a:	703b      	strb	r3, [r7, #0]
10005d5c:	e5b2      	b.n	100058c4 <tud_task_ext+0x20>
10005d5e:	f8bd 3022 	ldrh.w	r3, [sp, #34]	@ 0x22
10005d62:	2b01      	cmp	r3, #1
10005d64:	f47f aeb6 	bne.w	10005ad4 <tud_task_ext+0x230>
10005d68:	783b      	ldrb	r3, [r7, #0]
10005d6a:	4640      	mov	r0, r8
10005d6c:	f023 0308 	bic.w	r3, r3, #8
10005d70:	a908      	add	r1, sp, #32
10005d72:	703b      	strb	r3, [r7, #0]
10005d74:	f000 fa24 	bl	100061c0 <tud_control_status>
10005d78:	e5a4      	b.n	100058c4 <tud_task_ext+0x20>
10005d7a:	4640      	mov	r0, r8
10005d7c:	783b      	ldrb	r3, [r7, #0]
10005d7e:	089a      	lsrs	r2, r3, #2
10005d80:	f002 0202 	and.w	r2, r2, #2
10005d84:	f3c3 1340 	ubfx	r3, r3, #5, #1
10005d88:	4313      	orrs	r3, r2
10005d8a:	f8ad 301a 	strh.w	r3, [sp, #26]
10005d8e:	f10d 021a 	add.w	r2, sp, #26
10005d92:	2302      	movs	r3, #2
10005d94:	a908      	add	r1, sp, #32
10005d96:	f000 fa2d 	bl	100061f4 <tud_control_xfer>
10005d9a:	e593      	b.n	100058c4 <tud_task_ext+0x20>
10005d9c:	f8bd 3022 	ldrh.w	r3, [sp, #34]	@ 0x22
10005da0:	2b01      	cmp	r3, #1
10005da2:	f47f ae97 	bne.w	10005ad4 <tud_task_ext+0x230>
10005da6:	783b      	ldrb	r3, [r7, #0]
10005da8:	4640      	mov	r0, r8
10005daa:	f043 0308 	orr.w	r3, r3, #8
10005dae:	a908      	add	r1, sp, #32
10005db0:	703b      	strb	r3, [r7, #0]
10005db2:	f000 fa05 	bl	100061c0 <tud_control_status>
10005db6:	e585      	b.n	100058c4 <tud_task_ext+0x20>
10005db8:	2a02      	cmp	r2, #2
10005dba:	f43f ae7e 	beq.w	10005aba <tud_task_ext+0x216>
10005dbe:	f7ff fcdd 	bl	1000577c <tud_descriptor_other_speed_configuration_cb>
10005dc2:	4602      	mov	r2, r0
10005dc4:	2800      	cmp	r0, #0
10005dc6:	f43f ae85 	beq.w	10005ad4 <tud_task_ext+0x230>
10005dca:	4640      	mov	r0, r8
10005dcc:	8853      	ldrh	r3, [r2, #2]
10005dce:	a908      	add	r1, sp, #32
10005dd0:	f000 fa10 	bl	100061f4 <tud_control_xfer>
10005dd4:	2800      	cmp	r0, #0
10005dd6:	f47f ad75 	bne.w	100058c4 <tud_task_ext+0x20>
10005dda:	e67b      	b.n	10005ad4 <tud_task_ext+0x230>
10005ddc:	f89d 3024 	ldrb.w	r3, [sp, #36]	@ 0x24
10005de0:	2b0f      	cmp	r3, #15
10005de2:	f63f ae77 	bhi.w	10005ad4 <tud_task_ext+0x230>
10005de6:	4a16      	ldr	r2, [pc, #88]	@ (10005e40 <tud_task_ext+0x59c>)
10005de8:	443b      	add	r3, r7
10005dea:	791b      	ldrb	r3, [r3, #4]
10005dec:	7812      	ldrb	r2, [r2, #0]
10005dee:	4293      	cmp	r3, r2
10005df0:	d21d      	bcs.n	10005e2e <tud_task_ext+0x58a>
10005df2:	4a15      	ldr	r2, [pc, #84]	@ (10005e48 <tud_task_ext+0x5a4>)
10005df4:	6816      	ldr	r6, [r2, #0]
10005df6:	eb16 1643 	adds.w	r6, r6, r3, lsl #5
10005dfa:	f47f aea2 	bne.w	10005b42 <tud_task_ext+0x29e>
10005dfe:	e669      	b.n	10005ad4 <tud_task_ext+0x230>
10005e00:	2a00      	cmp	r2, #0
10005e02:	f47f ae67 	bne.w	10005ad4 <tud_task_ext+0x230>
10005e06:	2600      	movs	r6, #0
10005e08:	f89d 2021 	ldrb.w	r2, [sp, #33]	@ 0x21
10005e0c:	f002 03fd 	and.w	r3, r2, #253	@ 0xfd
10005e10:	2b01      	cmp	r3, #1
10005e12:	d01b      	beq.n	10005e4c <tud_task_ext+0x5a8>
10005e14:	2a00      	cmp	r2, #0
10005e16:	f47f ae56 	bne.w	10005ac6 <tud_task_ext+0x222>
10005e1a:	9b01      	ldr	r3, [sp, #4]
10005e1c:	9a00      	ldr	r2, [sp, #0]
10005e1e:	443b      	add	r3, r7
10005e20:	4413      	add	r3, r2
10005e22:	f893 3034 	ldrb.w	r3, [r3, #52]	@ 0x34
10005e26:	4640      	mov	r0, r8
10005e28:	f3c3 0340 	ubfx	r3, r3, #1, #1
10005e2c:	e7ad      	b.n	10005d8a <tud_task_ext+0x4e6>
10005e2e:	1c51      	adds	r1, r2, #1
10005e30:	4299      	cmp	r1, r3
10005e32:	f6ff ae4f 	blt.w	10005ad4 <tud_task_ext+0x230>
10005e36:	4e03      	ldr	r6, [pc, #12]	@ (10005e44 <tud_task_ext+0x5a0>)
10005e38:	1a9b      	subs	r3, r3, r2
10005e3a:	eb06 1643 	add.w	r6, r6, r3, lsl #5
10005e3e:	e680      	b.n	10005b42 <tud_task_ext+0x29e>
10005e40:	200029fd 	.word	0x200029fd
10005e44:	10008c44 	.word	0x10008c44
10005e48:	20001f60 	.word	0x20001f60
10005e4c:	f8bd 3022 	ldrh.w	r3, [sp, #34]	@ 0x22
10005e50:	b9b3      	cbnz	r3, 10005e80 <tud_task_ext+0x5dc>
10005e52:	2a01      	cmp	r2, #1
10005e54:	f899 0000 	ldrb.w	r0, [r9]
10005e58:	f000 8086 	beq.w	10005f68 <tud_task_ext+0x6c4>
10005e5c:	f7ff fbd8 	bl	10005610 <dcd_edpt_stall>
10005e60:	9b01      	ldr	r3, [sp, #4]
10005e62:	9a00      	ldr	r2, [sp, #0]
10005e64:	443b      	add	r3, r7
10005e66:	4413      	add	r3, r2
10005e68:	f893 2034 	ldrb.w	r2, [r3, #52]	@ 0x34
10005e6c:	f042 0202 	orr.w	r2, r2, #2
10005e70:	f883 2034 	strb.w	r2, [r3, #52]	@ 0x34
10005e74:	f893 2034 	ldrb.w	r2, [r3, #52]	@ 0x34
10005e78:	f042 0201 	orr.w	r2, r2, #1
10005e7c:	f883 2034 	strb.w	r2, [r3, #52]	@ 0x34
10005e80:	2e00      	cmp	r6, #0
10005e82:	f43f ad1f 	beq.w	100058c4 <tud_task_ext+0x20>
10005e86:	6970      	ldr	r0, [r6, #20]
10005e88:	f000 fa16 	bl	100062b8 <usbd_control_set_complete_callback>
10005e8c:	6973      	ldr	r3, [r6, #20]
10005e8e:	2101      	movs	r1, #1
10005e90:	aa08      	add	r2, sp, #32
10005e92:	4640      	mov	r0, r8
10005e94:	4798      	blx	r3
10005e96:	2000      	movs	r0, #0
10005e98:	f000 fa0e 	bl	100062b8 <usbd_control_set_complete_callback>
10005e9c:	f897 3035 	ldrb.w	r3, [r7, #53]	@ 0x35
10005ea0:	07df      	lsls	r7, r3, #31
10005ea2:	f53f ad0f 	bmi.w	100058c4 <tud_task_ext+0x20>
10005ea6:	e696      	b.n	10005bd6 <tud_task_ext+0x332>
10005ea8:	f7ff fc6c 	bl	10005784 <tud_umount_cb>
10005eac:	4640      	mov	r0, r8
10005eae:	a908      	add	r1, sp, #32
10005eb0:	f000 f986 	bl	100061c0 <tud_control_status>
10005eb4:	e506      	b.n	100058c4 <tud_task_ext+0x20>
10005eb6:	9b04      	ldr	r3, [sp, #16]
10005eb8:	2b01      	cmp	r3, #1
10005eba:	f000 809e 	beq.w	10005ffa <tud_task_ext+0x756>
10005ebe:	2b00      	cmp	r3, #0
10005ec0:	f000 808a 	beq.w	10005fd8 <tud_task_ext+0x734>
10005ec4:	2000      	movs	r0, #0
10005ec6:	f891 8002 	ldrb.w	r8, [r1, #2]
10005eca:	e005      	b.n	10005ed8 <tud_task_ext+0x634>
10005ecc:	f88c 6004 	strb.w	r6, [ip, #4]
10005ed0:	fa5f fc80 	uxtb.w	ip, r0
10005ed4:	4563      	cmp	r3, ip
10005ed6:	d97f      	bls.n	10005fd8 <tud_task_ext+0x734>
10005ed8:	eb08 0c00 	add.w	ip, r8, r0
10005edc:	fa57 fc8c 	uxtab	ip, r7, ip
10005ee0:	f89c e004 	ldrb.w	lr, [ip, #4]
10005ee4:	3001      	adds	r0, #1
10005ee6:	f1be 0fff 	cmp.w	lr, #255	@ 0xff
10005eea:	d0ef      	beq.n	10005ecc <tud_task_ext+0x628>
10005eec:	f04f 23e0 	mov.w	r3, #3758153728	@ 0xe000e000
10005ef0:	f8d3 3df0 	ldr.w	r3, [r3, #3568]	@ 0xdf0
10005ef4:	07da      	lsls	r2, r3, #31
10005ef6:	d500      	bpl.n	10005efa <tud_task_ext+0x656>
10005ef8:	be00      	bkpt	0x0000
10005efa:	f04f 23e0 	mov.w	r3, #3758153728	@ 0xe000e000
10005efe:	f8d3 3df0 	ldr.w	r3, [r3, #3568]	@ 0xdf0
10005f02:	07db      	lsls	r3, r3, #31
10005f04:	d500      	bpl.n	10005f08 <tud_task_ext+0x664>
10005f06:	be00      	bkpt	0x0000
10005f08:	2300      	movs	r3, #0
10005f0a:	707b      	strb	r3, [r7, #1]
10005f0c:	e5e2      	b.n	10005ad4 <tud_task_ext+0x230>
10005f0e:	f7fe ff1f 	bl	10004d50 <tud_descriptor_bos_cb>
10005f12:	4602      	mov	r2, r0
10005f14:	2800      	cmp	r0, #0
10005f16:	f47f af58 	bne.w	10005dca <tud_task_ext+0x526>
10005f1a:	e5db      	b.n	10005ad4 <tud_task_ext+0x230>
10005f1c:	f7ff f958 	bl	100051d0 <tud_descriptor_device_cb>
10005f20:	4602      	mov	r2, r0
10005f22:	2800      	cmp	r0, #0
10005f24:	f43f adcf 	beq.w	10005ac6 <tud_task_ext+0x222>
10005f28:	4640      	mov	r0, r8
10005f2a:	2312      	movs	r3, #18
10005f2c:	a908      	add	r1, sp, #32
10005f2e:	f000 f961 	bl	100061f4 <tud_control_xfer>
10005f32:	2800      	cmp	r0, #0
10005f34:	f47f acc6 	bne.w	100058c4 <tud_task_ext+0x20>
10005f38:	e5cc      	b.n	10005ad4 <tud_task_ext+0x230>
10005f3a:	f7ff fc1d 	bl	10005778 <tud_descriptor_device_qualifier_cb>
10005f3e:	4602      	mov	r2, r0
10005f40:	2800      	cmp	r0, #0
10005f42:	f43f adc7 	beq.w	10005ad4 <tud_task_ext+0x230>
10005f46:	4640      	mov	r0, r8
10005f48:	7813      	ldrb	r3, [r2, #0]
10005f4a:	a908      	add	r1, sp, #32
10005f4c:	f000 f952 	bl	100061f4 <tud_control_xfer>
10005f50:	2800      	cmp	r0, #0
10005f52:	f47f acb7 	bne.w	100058c4 <tud_task_ext+0x20>
10005f56:	e5bd      	b.n	10005ad4 <tud_task_ext+0x230>
10005f58:	f8bd 1024 	ldrh.w	r1, [sp, #36]	@ 0x24
10005f5c:	f7ff f940 	bl	100051e0 <tud_descriptor_string_cb>
10005f60:	4602      	mov	r2, r0
10005f62:	2800      	cmp	r0, #0
10005f64:	d1ef      	bne.n	10005f46 <tud_task_ext+0x6a2>
10005f66:	e5b5      	b.n	10005ad4 <tud_task_ext+0x230>
10005f68:	9302      	str	r3, [sp, #8]
10005f6a:	f7ff fb69 	bl	10005640 <dcd_edpt_clear_stall>
10005f6e:	9a01      	ldr	r2, [sp, #4]
10005f70:	9b00      	ldr	r3, [sp, #0]
10005f72:	443a      	add	r2, r7
10005f74:	441a      	add	r2, r3
10005f76:	f892 1034 	ldrb.w	r1, [r2, #52]	@ 0x34
10005f7a:	9b02      	ldr	r3, [sp, #8]
10005f7c:	f363 0141 	bfi	r1, r3, #1, #1
10005f80:	f882 1034 	strb.w	r1, [r2, #52]	@ 0x34
10005f84:	f892 1034 	ldrb.w	r1, [r2, #52]	@ 0x34
10005f88:	f363 0100 	bfi	r1, r3, #0, #1
10005f8c:	f882 1034 	strb.w	r1, [r2, #52]	@ 0x34
10005f90:	e776      	b.n	10005e80 <tud_task_ext+0x5dc>
10005f92:	2100      	movs	r1, #0
10005f94:	4640      	mov	r0, r8
10005f96:	f7ff fa87 	bl	100054a8 <dcd_sof_enable>
10005f9a:	4640      	mov	r0, r8
10005f9c:	f7ff fb22 	bl	100055e4 <dcd_edpt_close_all>
10005fa0:	78bb      	ldrb	r3, [r7, #2]
10005fa2:	4640      	mov	r0, r8
10005fa4:	9300      	str	r3, [sp, #0]
10005fa6:	f7ff fb9d 	bl	100056e4 <configuration_reset>
10005faa:	9b00      	ldr	r3, [sp, #0]
10005fac:	70bb      	strb	r3, [r7, #2]
10005fae:	e632      	b.n	10005c16 <tud_task_ext+0x372>
10005fb0:	f8dd 800c 	ldr.w	r8, [sp, #12]
10005fb4:	f7ff fbe4 	bl	10005780 <tud_mount_cb>
10005fb8:	e778      	b.n	10005eac <tud_task_ext+0x608>
10005fba:	4640      	mov	r0, r8
10005fbc:	2301      	movs	r3, #1
10005fbe:	a908      	add	r1, sp, #32
10005fc0:	f10d 021a 	add.w	r2, sp, #26
10005fc4:	f88d 601a 	strb.w	r6, [sp, #26]
10005fc8:	f000 f914 	bl	100061f4 <tud_control_xfer>
10005fcc:	e47a      	b.n	100058c4 <tud_task_ext+0x20>
10005fce:	780a      	ldrb	r2, [r1, #0]
10005fd0:	78cb      	ldrb	r3, [r1, #3]
10005fd2:	4411      	add	r1, r2
10005fd4:	784a      	ldrb	r2, [r1, #1]
10005fd6:	e64c      	b.n	10005c72 <tud_task_ext+0x3ce>
10005fd8:	4633      	mov	r3, r6
10005fda:	4810      	ldr	r0, [pc, #64]	@ (1000601c <tud_task_ext+0x778>)
10005fdc:	9204      	str	r2, [sp, #16]
10005fde:	9102      	str	r1, [sp, #8]
10005fe0:	f000 fe76 	bl	10006cd0 <tu_edpt_bind_driver>
10005fe4:	4b0e      	ldr	r3, [pc, #56]	@ (10006020 <tud_task_ext+0x77c>)
10005fe6:	9a04      	ldr	r2, [sp, #16]
10005fe8:	9902      	ldr	r1, [sp, #8]
10005fea:	781b      	ldrb	r3, [r3, #0]
10005fec:	4411      	add	r1, r2
10005fee:	9a00      	ldr	r2, [sp, #0]
10005ff0:	3301      	adds	r3, #1
10005ff2:	4293      	cmp	r3, r2
10005ff4:	f6bf ae34 	bge.w	10005c60 <tud_task_ext+0x3bc>
10005ff8:	e778      	b.n	10005eec <tud_task_ext+0x648>
10005ffa:	f8d8 c010 	ldr.w	ip, [r8, #16]
10005ffe:	4809      	ldr	r0, [pc, #36]	@ (10006024 <tud_task_ext+0x780>)
10006000:	4584      	cmp	ip, r0
10006002:	bf08      	it	eq
10006004:	2302      	moveq	r3, #2
10006006:	e75d      	b.n	10005ec4 <tud_task_ext+0x620>
10006008:	f04f 23e0 	mov.w	r3, #3758153728	@ 0xe000e000
1000600c:	f8d3 3df0 	ldr.w	r3, [r3, #3568]	@ 0xdf0
10006010:	07db      	lsls	r3, r3, #31
10006012:	f57f ac57 	bpl.w	100058c4 <tud_task_ext+0x20>
10006016:	be00      	bkpt	0x0000
10006018:	e454      	b.n	100058c4 <tud_task_ext+0x20>
1000601a:	bf00      	nop
1000601c:	20002144 	.word	0x20002144
10006020:	200029fd 	.word	0x200029fd
10006024:	100066f1 	.word	0x100066f1

10006028 <usbd_open_edpt_pair>:
10006028:	e92d 4ff8 	stmdb	sp!, {r3, r4, r5, r6, r7, r8, r9, sl, fp, lr}
1000602c:	9f0a      	ldr	r7, [sp, #40]	@ 0x28
1000602e:	2a00      	cmp	r2, #0
10006030:	d040      	beq.n	100060b4 <usbd_open_edpt_pair+0x8c>
10006032:	460c      	mov	r4, r1
10006034:	461e      	mov	r6, r3
10006036:	4615      	mov	r5, r2
10006038:	f04f 0a00 	mov.w	sl, #0
1000603c:	f8df 907c 	ldr.w	r9, [pc, #124]	@ 100060bc <usbd_open_edpt_pair+0x94>
10006040:	f8df 807c 	ldr.w	r8, [pc, #124]	@ 100060c0 <usbd_open_edpt_pair+0x98>
10006044:	e018      	b.n	10006078 <usbd_open_edpt_pair+0x50>
10006046:	4620      	mov	r0, r4
10006048:	f898 1002 	ldrb.w	r1, [r8, #2]
1000604c:	f899 b000 	ldrb.w	fp, [r9]
10006050:	f000 fe0e 	bl	10006c70 <tu_edpt_validate>
10006054:	b1e0      	cbz	r0, 10006090 <usbd_open_edpt_pair+0x68>
10006056:	4621      	mov	r1, r4
10006058:	4658      	mov	r0, fp
1000605a:	f7ff fa41 	bl	100054e0 <dcd_edpt_open>
1000605e:	b1f0      	cbz	r0, 1000609e <usbd_open_edpt_pair+0x76>
10006060:	78a2      	ldrb	r2, [r4, #2]
10006062:	f10a 0a01 	add.w	sl, sl, #1
10006066:	09d1      	lsrs	r1, r2, #7
10006068:	bf16      	itet	ne
1000606a:	9b0b      	ldrne	r3, [sp, #44]	@ 0x2c
1000606c:	703a      	strbeq	r2, [r7, #0]
1000606e:	701a      	strbne	r2, [r3, #0]
10006070:	7822      	ldrb	r2, [r4, #0]
10006072:	45aa      	cmp	sl, r5
10006074:	4414      	add	r4, r2
10006076:	d01d      	beq.n	100060b4 <usbd_open_edpt_pair+0x8c>
10006078:	7862      	ldrb	r2, [r4, #1]
1000607a:	2a05      	cmp	r2, #5
1000607c:	d10f      	bne.n	1000609e <usbd_open_edpt_pair+0x76>
1000607e:	78e1      	ldrb	r1, [r4, #3]
10006080:	f001 0103 	and.w	r1, r1, #3
10006084:	42b1      	cmp	r1, r6
10006086:	d10a      	bne.n	1000609e <usbd_open_edpt_pair+0x76>
10006088:	78a2      	ldrb	r2, [r4, #2]
1000608a:	f012 0f70 	tst.w	r2, #112	@ 0x70
1000608e:	d0da      	beq.n	10006046 <usbd_open_edpt_pair+0x1e>
10006090:	f04f 23e0 	mov.w	r3, #3758153728	@ 0xe000e000
10006094:	f8d3 3df0 	ldr.w	r3, [r3, #3568]	@ 0xdf0
10006098:	07da      	lsls	r2, r3, #31
1000609a:	d500      	bpl.n	1000609e <usbd_open_edpt_pair+0x76>
1000609c:	be00      	bkpt	0x0000
1000609e:	f04f 23e0 	mov.w	r3, #3758153728	@ 0xe000e000
100060a2:	f8d3 3df0 	ldr.w	r3, [r3, #3568]	@ 0xdf0
100060a6:	07db      	lsls	r3, r3, #31
100060a8:	d402      	bmi.n	100060b0 <usbd_open_edpt_pair+0x88>
100060aa:	2000      	movs	r0, #0
100060ac:	e8bd 8ff8 	ldmia.w	sp!, {r3, r4, r5, r6, r7, r8, r9, sl, fp, pc}
100060b0:	be00      	bkpt	0x0000
100060b2:	e7fa      	b.n	100060aa <usbd_open_edpt_pair+0x82>
100060b4:	2001      	movs	r0, #1
100060b6:	e8bd 8ff8 	ldmia.w	sp!, {r3, r4, r5, r6, r7, r8, r9, sl, fp, pc}
100060ba:	bf00      	nop
100060bc:	200016b0 	.word	0x200016b0
100060c0:	20002130 	.word	0x20002130

100060c4 <usbd_edpt_open>:
100060c4:	b538      	push	{r3, r4, r5, lr}
100060c6:	788b      	ldrb	r3, [r1, #2]
100060c8:	f013 0f70 	tst.w	r3, #112	@ 0x70
100060cc:	d008      	beq.n	100060e0 <usbd_edpt_open+0x1c>
100060ce:	f04f 23e0 	mov.w	r3, #3758153728	@ 0xe000e000
100060d2:	f8d3 3df0 	ldr.w	r3, [r3, #3568]	@ 0xdf0
100060d6:	07db      	lsls	r3, r3, #31
100060d8:	d500      	bpl.n	100060dc <usbd_edpt_open+0x18>
100060da:	be00      	bkpt	0x0000
100060dc:	2000      	movs	r0, #0
100060de:	bd38      	pop	{r3, r4, r5, pc}
100060e0:	4a07      	ldr	r2, [pc, #28]	@ (10006100 <usbd_edpt_open+0x3c>)
100060e2:	4b08      	ldr	r3, [pc, #32]	@ (10006104 <usbd_edpt_open+0x40>)
100060e4:	460c      	mov	r4, r1
100060e6:	4608      	mov	r0, r1
100060e8:	7891      	ldrb	r1, [r2, #2]
100060ea:	781d      	ldrb	r5, [r3, #0]
100060ec:	f000 fdc0 	bl	10006c70 <tu_edpt_validate>
100060f0:	2800      	cmp	r0, #0
100060f2:	d0ec      	beq.n	100060ce <usbd_edpt_open+0xa>
100060f4:	4621      	mov	r1, r4
100060f6:	4628      	mov	r0, r5
100060f8:	e8bd 4038 	ldmia.w	sp!, {r3, r4, r5, lr}
100060fc:	f7ff b9f0 	b.w	100054e0 <dcd_edpt_open>
10006100:	20002130 	.word	0x20002130
10006104:	200016b0 	.word	0x200016b0

10006108 <usbd_edpt_claim>:
10006108:	460b      	mov	r3, r1
1000610a:	4a06      	ldr	r2, [pc, #24]	@ (10006124 <usbd_edpt_claim+0x1c>)
1000610c:	4806      	ldr	r0, [pc, #24]	@ (10006128 <usbd_edpt_claim+0x20>)
1000610e:	6811      	ldr	r1, [r2, #0]
10006110:	09da      	lsrs	r2, r3, #7
10006112:	3234      	adds	r2, #52	@ 0x34
10006114:	f003 037f 	and.w	r3, r3, #127	@ 0x7f
10006118:	eb02 0343 	add.w	r3, r2, r3, lsl #1
1000611c:	4418      	add	r0, r3
1000611e:	f000 bd61 	b.w	10006be4 <tu_edpt_claim>
10006122:	bf00      	nop
10006124:	20002184 	.word	0x20002184
10006128:	20002130 	.word	0x20002130

1000612c <usbd_edpt_release>:
1000612c:	460b      	mov	r3, r1
1000612e:	4a06      	ldr	r2, [pc, #24]	@ (10006148 <usbd_edpt_release+0x1c>)
10006130:	4806      	ldr	r0, [pc, #24]	@ (1000614c <usbd_edpt_release+0x20>)
10006132:	6811      	ldr	r1, [r2, #0]
10006134:	09da      	lsrs	r2, r3, #7
10006136:	3234      	adds	r2, #52	@ 0x34
10006138:	f003 037f 	and.w	r3, r3, #127	@ 0x7f
1000613c:	eb02 0343 	add.w	r3, r2, r3, lsl #1
10006140:	4418      	add	r0, r3
10006142:	f000 bd79 	b.w	10006c38 <tu_edpt_release>
10006146:	bf00      	nop
10006148:	20002184 	.word	0x20002184
1000614c:	20002130 	.word	0x20002130

10006150 <usbd_edpt_xfer>:
10006150:	b510      	push	{r4, lr}
10006152:	4819      	ldr	r0, [pc, #100]	@ (100061b8 <usbd_edpt_xfer+0x68>)
10006154:	f001 0c7f 	and.w	ip, r1, #127	@ 0x7f
10006158:	eb00 004c 	add.w	r0, r0, ip, lsl #1
1000615c:	eb00 10d1 	add.w	r0, r0, r1, lsr #7
10006160:	f890 c034 	ldrb.w	ip, [r0, #52]	@ 0x34
10006164:	f01c 0f01 	tst.w	ip, #1
10006168:	d008      	beq.n	1000617c <usbd_edpt_xfer+0x2c>
1000616a:	f04f 23e0 	mov.w	r3, #3758153728	@ 0xe000e000
1000616e:	f8d3 3df0 	ldr.w	r3, [r3, #3568]	@ 0xdf0
10006172:	07da      	lsls	r2, r3, #31
10006174:	d500      	bpl.n	10006178 <usbd_edpt_xfer+0x28>
10006176:	be00      	bkpt	0x0000
10006178:	2000      	movs	r0, #0
1000617a:	bd10      	pop	{r4, pc}
1000617c:	f100 0430 	add.w	r4, r0, #48	@ 0x30
10006180:	f894 c004 	ldrb.w	ip, [r4, #4]
10006184:	480d      	ldr	r0, [pc, #52]	@ (100061bc <usbd_edpt_xfer+0x6c>)
10006186:	f04c 0c01 	orr.w	ip, ip, #1
1000618a:	7800      	ldrb	r0, [r0, #0]
1000618c:	f884 c004 	strb.w	ip, [r4, #4]
10006190:	f7ff fa2a 	bl	100055e8 <dcd_edpt_xfer>
10006194:	2800      	cmp	r0, #0
10006196:	d1f0      	bne.n	1000617a <usbd_edpt_xfer+0x2a>
10006198:	f04f 21e0 	mov.w	r1, #3758153728	@ 0xe000e000
1000619c:	7922      	ldrb	r2, [r4, #4]
1000619e:	f360 0200 	bfi	r2, r0, #0, #1
100061a2:	7122      	strb	r2, [r4, #4]
100061a4:	7922      	ldrb	r2, [r4, #4]
100061a6:	f360 0282 	bfi	r2, r0, #2, #1
100061aa:	7122      	strb	r2, [r4, #4]
100061ac:	f8d1 3df0 	ldr.w	r3, [r1, #3568]	@ 0xdf0
100061b0:	07db      	lsls	r3, r3, #31
100061b2:	d5e1      	bpl.n	10006178 <usbd_edpt_xfer+0x28>
100061b4:	be00      	bkpt	0x0000
100061b6:	e7df      	b.n	10006178 <usbd_edpt_xfer+0x28>
100061b8:	20002130 	.word	0x20002130
100061bc:	200016b0 	.word	0x200016b0

100061c0 <tud_control_status>:
100061c0:	b530      	push	{r4, r5, lr}
100061c2:	4c0b      	ldr	r4, [pc, #44]	@ (100061f0 <tud_control_status+0x30>)
100061c4:	468c      	mov	ip, r1
100061c6:	46a6      	mov	lr, r4
100061c8:	4605      	mov	r5, r0
100061ca:	6808      	ldr	r0, [r1, #0]
100061cc:	6849      	ldr	r1, [r1, #4]
100061ce:	2300      	movs	r3, #0
100061d0:	e8ae 0003 	stmia.w	lr!, {r0, r1}
100061d4:	f89c 1000 	ldrb.w	r1, [ip]
100061d8:	4628      	mov	r0, r5
100061da:	43c9      	mvns	r1, r1
100061dc:	e9c4 3302 	strd	r3, r3, [r4, #8]
100061e0:	e8bd 4030 	ldmia.w	sp!, {r4, r5, lr}
100061e4:	461a      	mov	r2, r3
100061e6:	f001 0180 	and.w	r1, r1, #128	@ 0x80
100061ea:	f7ff bfb1 	b.w	10006150 <usbd_edpt_xfer>
100061ee:	bf00      	nop
100061f0:	200020f0 	.word	0x200020f0

100061f4 <tud_control_xfer>:
100061f4:	e92d 41f0 	stmdb	sp!, {r4, r5, r6, r7, r8, lr}
100061f8:	4f28      	ldr	r7, [pc, #160]	@ (1000629c <tud_control_xfer+0xa8>)
100061fa:	f04f 0800 	mov.w	r8, #0
100061fe:	46be      	mov	lr, r7
10006200:	468c      	mov	ip, r1
10006202:	4606      	mov	r6, r0
10006204:	6808      	ldr	r0, [r1, #0]
10006206:	6849      	ldr	r1, [r1, #4]
10006208:	60ba      	str	r2, [r7, #8]
1000620a:	e8ae 0003 	stmia.w	lr!, {r0, r1}
1000620e:	f8a7 800e 	strh.w	r8, [r7, #14]
10006212:	4615      	mov	r5, r2
10006214:	f8bc 2006 	ldrh.w	r2, [ip, #6]
10006218:	4293      	cmp	r3, r2
1000621a:	bf28      	it	cs
1000621c:	4613      	movcs	r3, r2
1000621e:	81bb      	strh	r3, [r7, #12]
10006220:	b19a      	cbz	r2, 1000624a <tud_control_xfer+0x56>
10006222:	461c      	mov	r4, r3
10006224:	b333      	cbz	r3, 10006274 <tud_control_xfer+0x80>
10006226:	b1dd      	cbz	r5, 10006260 <tud_control_xfer+0x6c>
10006228:	f997 3000 	ldrsb.w	r3, [r7]
1000622c:	2c40      	cmp	r4, #64	@ 0x40
1000622e:	bf28      	it	cs
10006230:	2440      	movcs	r4, #64	@ 0x40
10006232:	2b00      	cmp	r3, #0
10006234:	db29      	blt.n	1000628a <tud_control_xfer+0x96>
10006236:	4641      	mov	r1, r8
10006238:	4623      	mov	r3, r4
1000623a:	4630      	mov	r0, r6
1000623c:	4a18      	ldr	r2, [pc, #96]	@ (100062a0 <tud_control_xfer+0xac>)
1000623e:	f7ff ff87 	bl	10006150 <usbd_edpt_xfer>
10006242:	b168      	cbz	r0, 10006260 <tud_control_xfer+0x6c>
10006244:	2001      	movs	r0, #1
10006246:	e8bd 81f0 	ldmia.w	sp!, {r4, r5, r6, r7, r8, pc}
1000624a:	f89c 1000 	ldrb.w	r1, [ip]
1000624e:	4613      	mov	r3, r2
10006250:	43c9      	mvns	r1, r1
10006252:	4630      	mov	r0, r6
10006254:	f001 0180 	and.w	r1, r1, #128	@ 0x80
10006258:	f7ff ff7a 	bl	10006150 <usbd_edpt_xfer>
1000625c:	2800      	cmp	r0, #0
1000625e:	d1f1      	bne.n	10006244 <tud_control_xfer+0x50>
10006260:	f04f 23e0 	mov.w	r3, #3758153728	@ 0xe000e000
10006264:	f8d3 3df0 	ldr.w	r3, [r3, #3568]	@ 0xdf0
10006268:	07db      	lsls	r3, r3, #31
1000626a:	d500      	bpl.n	1000626e <tud_control_xfer+0x7a>
1000626c:	be00      	bkpt	0x0000
1000626e:	2000      	movs	r0, #0
10006270:	e8bd 81f0 	ldmia.w	sp!, {r4, r5, r6, r7, r8, pc}
10006274:	461a      	mov	r2, r3
10006276:	7839      	ldrb	r1, [r7, #0]
10006278:	f001 0180 	and.w	r1, r1, #128	@ 0x80
1000627c:	4623      	mov	r3, r4
1000627e:	4630      	mov	r0, r6
10006280:	f7ff ff66 	bl	10006150 <usbd_edpt_xfer>
10006284:	2800      	cmp	r0, #0
10006286:	d1dd      	bne.n	10006244 <tud_control_xfer+0x50>
10006288:	e7ea      	b.n	10006260 <tud_control_xfer+0x6c>
1000628a:	4622      	mov	r2, r4
1000628c:	4629      	mov	r1, r5
1000628e:	4804      	ldr	r0, [pc, #16]	@ (100062a0 <tud_control_xfer+0xac>)
10006290:	f001 fe3a 	bl	10007f08 <memcpy>
10006294:	2180      	movs	r1, #128	@ 0x80
10006296:	4a02      	ldr	r2, [pc, #8]	@ (100062a0 <tud_control_xfer+0xac>)
10006298:	e7f0      	b.n	1000627c <tud_control_xfer+0x88>
1000629a:	bf00      	nop
1000629c:	200020f0 	.word	0x200020f0
100062a0:	200020b0 	.word	0x200020b0

100062a4 <usbd_control_reset>:
100062a4:	2200      	movs	r2, #0
100062a6:	4b03      	ldr	r3, [pc, #12]	@ (100062b4 <usbd_control_reset+0x10>)
100062a8:	e9c3 2200 	strd	r2, r2, [r3]
100062ac:	e9c3 2202 	strd	r2, r2, [r3, #8]
100062b0:	611a      	str	r2, [r3, #16]
100062b2:	4770      	bx	lr
100062b4:	200020f0 	.word	0x200020f0

100062b8 <usbd_control_set_complete_callback>:
100062b8:	4b01      	ldr	r3, [pc, #4]	@ (100062c0 <usbd_control_set_complete_callback+0x8>)
100062ba:	6118      	str	r0, [r3, #16]
100062bc:	4770      	bx	lr
100062be:	bf00      	nop
100062c0:	200020f0 	.word	0x200020f0

100062c4 <usbd_control_set_request>:
100062c4:	b430      	push	{r4, r5}
100062c6:	4602      	mov	r2, r0
100062c8:	4c04      	ldr	r4, [pc, #16]	@ (100062dc <usbd_control_set_request+0x18>)
100062ca:	2500      	movs	r5, #0
100062cc:	4623      	mov	r3, r4
100062ce:	6800      	ldr	r0, [r0, #0]
100062d0:	6851      	ldr	r1, [r2, #4]
100062d2:	e9c4 5502 	strd	r5, r5, [r4, #8]
100062d6:	bc30      	pop	{r4, r5}
100062d8:	c303      	stmia	r3!, {r0, r1}
100062da:	4770      	bx	lr
100062dc:	200020f0 	.word	0x200020f0

100062e0 <usbd_control_xfer_cb>:
100062e0:	b570      	push	{r4, r5, r6, lr}
100062e2:	4c3d      	ldr	r4, [pc, #244]	@ (100063d8 <usbd_control_xfer_cb+0xf8>)
100062e4:	09c9      	lsrs	r1, r1, #7
100062e6:	7822      	ldrb	r2, [r4, #0]
100062e8:	4606      	mov	r6, r0
100062ea:	ebb1 1fd2 	cmp.w	r1, r2, lsr #7
100062ee:	461d      	mov	r5, r3
100062f0:	b082      	sub	sp, #8
100062f2:	d017      	beq.n	10006324 <usbd_control_xfer_cb+0x44>
100062f4:	b153      	cbz	r3, 1000630c <usbd_control_xfer_cb+0x2c>
100062f6:	f04f 23e0 	mov.w	r3, #3758153728	@ 0xe000e000
100062fa:	f8d3 3df0 	ldr.w	r3, [r3, #3568]	@ 0xdf0
100062fe:	07db      	lsls	r3, r3, #31
10006300:	d402      	bmi.n	10006308 <usbd_control_xfer_cb+0x28>
10006302:	2000      	movs	r0, #0
10006304:	b002      	add	sp, #8
10006306:	bd70      	pop	{r4, r5, r6, pc}
10006308:	be00      	bkpt	0x0000
1000630a:	e7fa      	b.n	10006302 <usbd_control_xfer_cb+0x22>
1000630c:	4621      	mov	r1, r4
1000630e:	f7ff f8d9 	bl	100054c4 <dcd_edpt0_status_complete>
10006312:	6923      	ldr	r3, [r4, #16]
10006314:	b11b      	cbz	r3, 1000631e <usbd_control_xfer_cb+0x3e>
10006316:	4622      	mov	r2, r4
10006318:	2103      	movs	r1, #3
1000631a:	4630      	mov	r0, r6
1000631c:	4798      	blx	r3
1000631e:	2001      	movs	r0, #1
10006320:	b002      	add	sp, #8
10006322:	bd70      	pop	{r4, r5, r6, pc}
10006324:	f994 3000 	ldrsb.w	r3, [r4]
10006328:	2b00      	cmp	r3, #0
1000632a:	db06      	blt.n	1000633a <usbd_control_xfer_cb+0x5a>
1000632c:	68a0      	ldr	r0, [r4, #8]
1000632e:	2800      	cmp	r0, #0
10006330:	d0e7      	beq.n	10006302 <usbd_control_xfer_cb+0x22>
10006332:	462a      	mov	r2, r5
10006334:	4929      	ldr	r1, [pc, #164]	@ (100063dc <usbd_control_xfer_cb+0xfc>)
10006336:	f001 fde7 	bl	10007f08 <memcpy>
1000633a:	89e0      	ldrh	r0, [r4, #14]
1000633c:	68a1      	ldr	r1, [r4, #8]
1000633e:	88e3      	ldrh	r3, [r4, #6]
10006340:	4428      	add	r0, r5
10006342:	b280      	uxth	r0, r0
10006344:	4429      	add	r1, r5
10006346:	4283      	cmp	r3, r0
10006348:	81e0      	strh	r0, [r4, #14]
1000634a:	60a1      	str	r1, [r4, #8]
1000634c:	d016      	beq.n	1000637c <usbd_control_xfer_cb+0x9c>
1000634e:	2d3f      	cmp	r5, #63	@ 0x3f
10006350:	d914      	bls.n	1000637c <usbd_control_xfer_cb+0x9c>
10006352:	89a2      	ldrh	r2, [r4, #12]
10006354:	f994 4000 	ldrsb.w	r4, [r4]
10006358:	1a13      	subs	r3, r2, r0
1000635a:	b29b      	uxth	r3, r3
1000635c:	2b40      	cmp	r3, #64	@ 0x40
1000635e:	bf28      	it	cs
10006360:	2340      	movcs	r3, #64	@ 0x40
10006362:	2c00      	cmp	r4, #0
10006364:	db27      	blt.n	100063b6 <usbd_control_xfer_cb+0xd6>
10006366:	4290      	cmp	r0, r2
10006368:	f04f 0100 	mov.w	r1, #0
1000636c:	d031      	beq.n	100063d2 <usbd_control_xfer_cb+0xf2>
1000636e:	4a1b      	ldr	r2, [pc, #108]	@ (100063dc <usbd_control_xfer_cb+0xfc>)
10006370:	4630      	mov	r0, r6
10006372:	f7ff feed 	bl	10006150 <usbd_edpt_xfer>
10006376:	2800      	cmp	r0, #0
10006378:	d1d1      	bne.n	1000631e <usbd_control_xfer_cb+0x3e>
1000637a:	e7bc      	b.n	100062f6 <usbd_control_xfer_cb+0x16>
1000637c:	6923      	ldr	r3, [r4, #16]
1000637e:	b123      	cbz	r3, 1000638a <usbd_control_xfer_cb+0xaa>
10006380:	2102      	movs	r1, #2
10006382:	4630      	mov	r0, r6
10006384:	4a14      	ldr	r2, [pc, #80]	@ (100063d8 <usbd_control_xfer_cb+0xf8>)
10006386:	4798      	blx	r3
10006388:	b160      	cbz	r0, 100063a4 <usbd_control_xfer_cb+0xc4>
1000638a:	7821      	ldrb	r1, [r4, #0]
1000638c:	2300      	movs	r3, #0
1000638e:	43c9      	mvns	r1, r1
10006390:	4630      	mov	r0, r6
10006392:	461a      	mov	r2, r3
10006394:	f001 0180 	and.w	r1, r1, #128	@ 0x80
10006398:	f7ff feda 	bl	10006150 <usbd_edpt_xfer>
1000639c:	2800      	cmp	r0, #0
1000639e:	d0aa      	beq.n	100062f6 <usbd_control_xfer_cb+0x16>
100063a0:	2001      	movs	r0, #1
100063a2:	e7bd      	b.n	10006320 <usbd_control_xfer_cb+0x40>
100063a4:	4601      	mov	r1, r0
100063a6:	4630      	mov	r0, r6
100063a8:	f7ff f932 	bl	10005610 <dcd_edpt_stall>
100063ac:	2180      	movs	r1, #128	@ 0x80
100063ae:	4630      	mov	r0, r6
100063b0:	f7ff f92e 	bl	10005610 <dcd_edpt_stall>
100063b4:	e7b3      	b.n	1000631e <usbd_control_xfer_cb+0x3e>
100063b6:	4290      	cmp	r0, r2
100063b8:	d008      	beq.n	100063cc <usbd_control_xfer_cb+0xec>
100063ba:	461a      	mov	r2, r3
100063bc:	4807      	ldr	r0, [pc, #28]	@ (100063dc <usbd_control_xfer_cb+0xfc>)
100063be:	9301      	str	r3, [sp, #4]
100063c0:	f001 fda2 	bl	10007f08 <memcpy>
100063c4:	2180      	movs	r1, #128	@ 0x80
100063c6:	4a05      	ldr	r2, [pc, #20]	@ (100063dc <usbd_control_xfer_cb+0xfc>)
100063c8:	9b01      	ldr	r3, [sp, #4]
100063ca:	e7d1      	b.n	10006370 <usbd_control_xfer_cb+0x90>
100063cc:	2180      	movs	r1, #128	@ 0x80
100063ce:	2200      	movs	r2, #0
100063d0:	e7ce      	b.n	10006370 <usbd_control_xfer_cb+0x90>
100063d2:	460a      	mov	r2, r1
100063d4:	e7cc      	b.n	10006370 <usbd_control_xfer_cb+0x90>
100063d6:	bf00      	nop
100063d8:	200020f0 	.word	0x200020f0
100063dc:	200020b0 	.word	0x200020b0

100063e0 <_prep_out_transaction.isra.0>:
100063e0:	e92d 41f0 	stmdb	sp!, {r4, r5, r6, r7, r8, lr}
100063e4:	4604      	mov	r4, r0
100063e6:	f7ff f9d3 	bl	10005790 <tud_mounted>
100063ea:	b908      	cbnz	r0, 100063f0 <_prep_out_transaction.isra.0+0x10>
100063ec:	e8bd 81f0 	ldmia.w	sp!, {r4, r5, r6, r7, r8, pc}
100063f0:	f7ff f9d6 	bl	100057a0 <tud_suspended>
100063f4:	4605      	mov	r5, r0
100063f6:	2800      	cmp	r0, #0
100063f8:	d1f8      	bne.n	100063ec <_prep_out_transaction.isra.0+0xc>
100063fa:	23c8      	movs	r3, #200	@ 0xc8
100063fc:	fb04 f303 	mul.w	r3, r4, r3
10006400:	4e12      	ldr	r6, [pc, #72]	@ (1000644c <_prep_out_transaction.isra.0+0x6c>)
10006402:	18f7      	adds	r7, r6, r3
10006404:	78f9      	ldrb	r1, [r7, #3]
10006406:	2900      	cmp	r1, #0
10006408:	d0f0      	beq.n	100063ec <_prep_out_transaction.isra.0+0xc>
1000640a:	3310      	adds	r3, #16
1000640c:	441e      	add	r6, r3
1000640e:	4630      	mov	r0, r6
10006410:	f000 fdd2 	bl	10006fb8 <tu_fifo_remaining>
10006414:	283f      	cmp	r0, #63	@ 0x3f
10006416:	d9e9      	bls.n	100063ec <_prep_out_transaction.isra.0+0xc>
10006418:	4628      	mov	r0, r5
1000641a:	78f9      	ldrb	r1, [r7, #3]
1000641c:	f7ff fe74 	bl	10006108 <usbd_edpt_claim>
10006420:	2800      	cmp	r0, #0
10006422:	d0e3      	beq.n	100063ec <_prep_out_transaction.isra.0+0xc>
10006424:	4630      	mov	r0, r6
10006426:	f000 fdc7 	bl	10006fb8 <tu_fifo_remaining>
1000642a:	283f      	cmp	r0, #63	@ 0x3f
1000642c:	78f9      	ldrb	r1, [r7, #3]
1000642e:	d908      	bls.n	10006442 <_prep_out_transaction.isra.0+0x62>
10006430:	4a07      	ldr	r2, [pc, #28]	@ (10006450 <_prep_out_transaction.isra.0+0x70>)
10006432:	4628      	mov	r0, r5
10006434:	eb02 12c4 	add.w	r2, r2, r4, lsl #7
10006438:	2340      	movs	r3, #64	@ 0x40
1000643a:	e8bd 41f0 	ldmia.w	sp!, {r4, r5, r6, r7, r8, lr}
1000643e:	f7ff be87 	b.w	10006150 <usbd_edpt_xfer>
10006442:	4628      	mov	r0, r5
10006444:	e8bd 41f0 	ldmia.w	sp!, {r4, r5, r6, r7, r8, lr}
10006448:	f7ff be70 	b.w	1000612c <usbd_edpt_release>
1000644c:	20001fe8 	.word	0x20001fe8
10006450:	20001f64 	.word	0x20001f64

10006454 <tud_cdc_n_connected>:
10006454:	b510      	push	{r4, lr}
10006456:	4604      	mov	r4, r0
10006458:	f7ff f99a 	bl	10005790 <tud_mounted>
1000645c:	b908      	cbnz	r0, 10006462 <tud_cdc_n_connected+0xe>
1000645e:	2000      	movs	r0, #0
10006460:	bd10      	pop	{r4, pc}
10006462:	f7ff f99d 	bl	100057a0 <tud_suspended>
10006466:	2800      	cmp	r0, #0
10006468:	d1f9      	bne.n	1000645e <tud_cdc_n_connected+0xa>
1000646a:	22c8      	movs	r2, #200	@ 0xc8
1000646c:	4b03      	ldr	r3, [pc, #12]	@ (1000647c <tud_cdc_n_connected+0x28>)
1000646e:	fb02 3304 	mla	r3, r2, r4, r3
10006472:	7918      	ldrb	r0, [r3, #4]
10006474:	f000 0001 	and.w	r0, r0, #1
10006478:	bd10      	pop	{r4, pc}
1000647a:	bf00      	nop
1000647c:	20001fe8 	.word	0x20001fe8

10006480 <tud_cdc_n_available>:
10006480:	22c8      	movs	r2, #200	@ 0xc8
10006482:	b508      	push	{r3, lr}
10006484:	4b02      	ldr	r3, [pc, #8]	@ (10006490 <tud_cdc_n_available+0x10>)
10006486:	fb02 3000 	mla	r0, r2, r0, r3
1000648a:	f000 fd7b 	bl	10006f84 <tu_fifo_count>
1000648e:	bd08      	pop	{r3, pc}
10006490:	20001ff8 	.word	0x20001ff8

10006494 <tud_cdc_n_read>:
10006494:	e92d 43f8 	stmdb	sp!, {r3, r4, r5, r6, r7, r8, r9, lr}
10006498:	f64f 73ff 	movw	r3, #65535	@ 0xffff
1000649c:	24c8      	movs	r4, #200	@ 0xc8
1000649e:	429a      	cmp	r2, r3
100064a0:	bf28      	it	cs
100064a2:	461a      	movcs	r2, r3
100064a4:	fb00 f404 	mul.w	r4, r0, r4
100064a8:	f8df 8074 	ldr.w	r8, [pc, #116]	@ 10006520 <tud_cdc_n_read+0x8c>
100064ac:	f104 0510 	add.w	r5, r4, #16
100064b0:	4445      	add	r5, r8
100064b2:	4606      	mov	r6, r0
100064b4:	b292      	uxth	r2, r2
100064b6:	4628      	mov	r0, r5
100064b8:	f000 fdda 	bl	10007070 <tu_fifo_read_n>
100064bc:	4607      	mov	r7, r0
100064be:	f7ff f967 	bl	10005790 <tud_mounted>
100064c2:	b910      	cbnz	r0, 100064ca <tud_cdc_n_read+0x36>
100064c4:	4638      	mov	r0, r7
100064c6:	e8bd 83f8 	ldmia.w	sp!, {r3, r4, r5, r6, r7, r8, r9, pc}
100064ca:	f7ff f969 	bl	100057a0 <tud_suspended>
100064ce:	4681      	mov	r9, r0
100064d0:	2800      	cmp	r0, #0
100064d2:	d1f7      	bne.n	100064c4 <tud_cdc_n_read+0x30>
100064d4:	44a0      	add	r8, r4
100064d6:	f898 3003 	ldrb.w	r3, [r8, #3]
100064da:	2b00      	cmp	r3, #0
100064dc:	d0f2      	beq.n	100064c4 <tud_cdc_n_read+0x30>
100064de:	4628      	mov	r0, r5
100064e0:	f000 fd6a 	bl	10006fb8 <tu_fifo_remaining>
100064e4:	283f      	cmp	r0, #63	@ 0x3f
100064e6:	d9ed      	bls.n	100064c4 <tud_cdc_n_read+0x30>
100064e8:	4648      	mov	r0, r9
100064ea:	f898 1003 	ldrb.w	r1, [r8, #3]
100064ee:	f7ff fe0b 	bl	10006108 <usbd_edpt_claim>
100064f2:	2800      	cmp	r0, #0
100064f4:	d0e6      	beq.n	100064c4 <tud_cdc_n_read+0x30>
100064f6:	4628      	mov	r0, r5
100064f8:	f000 fd5e 	bl	10006fb8 <tu_fifo_remaining>
100064fc:	283f      	cmp	r0, #63	@ 0x3f
100064fe:	f898 1003 	ldrb.w	r1, [r8, #3]
10006502:	d907      	bls.n	10006514 <tud_cdc_n_read+0x80>
10006504:	4a05      	ldr	r2, [pc, #20]	@ (1000651c <tud_cdc_n_read+0x88>)
10006506:	4648      	mov	r0, r9
10006508:	2340      	movs	r3, #64	@ 0x40
1000650a:	eb02 12c6 	add.w	r2, r2, r6, lsl #7
1000650e:	f7ff fe1f 	bl	10006150 <usbd_edpt_xfer>
10006512:	e7d7      	b.n	100064c4 <tud_cdc_n_read+0x30>
10006514:	4648      	mov	r0, r9
10006516:	f7ff fe09 	bl	1000612c <usbd_edpt_release>
1000651a:	e7d3      	b.n	100064c4 <tud_cdc_n_read+0x30>
1000651c:	20001f64 	.word	0x20001f64
10006520:	20001fe8 	.word	0x20001fe8

10006524 <tud_cdc_n_write_flush>:
10006524:	e92d 41f0 	stmdb	sp!, {r4, r5, r6, r7, r8, lr}
10006528:	4604      	mov	r4, r0
1000652a:	f7ff f931 	bl	10005790 <tud_mounted>
1000652e:	b910      	cbnz	r0, 10006536 <tud_cdc_n_write_flush+0x12>
10006530:	2000      	movs	r0, #0
10006532:	e8bd 81f0 	ldmia.w	sp!, {r4, r5, r6, r7, r8, pc}
10006536:	f7ff f933 	bl	100057a0 <tud_suspended>
1000653a:	4605      	mov	r5, r0
1000653c:	2800      	cmp	r0, #0
1000653e:	d1f7      	bne.n	10006530 <tud_cdc_n_write_flush+0xc>
10006540:	26c8      	movs	r6, #200	@ 0xc8
10006542:	fb04 f606 	mul.w	r6, r4, r6
10006546:	f8df 8064 	ldr.w	r8, [pc, #100]	@ 100065ac <tud_cdc_n_write_flush+0x88>
1000654a:	f106 0724 	add.w	r7, r6, #36	@ 0x24
1000654e:	4447      	add	r7, r8
10006550:	4638      	mov	r0, r7
10006552:	f000 fd17 	bl	10006f84 <tu_fifo_count>
10006556:	2800      	cmp	r0, #0
10006558:	d0ea      	beq.n	10006530 <tud_cdc_n_write_flush+0xc>
1000655a:	44b0      	add	r8, r6
1000655c:	4628      	mov	r0, r5
1000655e:	f898 1002 	ldrb.w	r1, [r8, #2]
10006562:	f7ff fdd1 	bl	10006108 <usbd_edpt_claim>
10006566:	2800      	cmp	r0, #0
10006568:	d0e2      	beq.n	10006530 <tud_cdc_n_write_flush+0xc>
1000656a:	4e0f      	ldr	r6, [pc, #60]	@ (100065a8 <tud_cdc_n_write_flush+0x84>)
1000656c:	4638      	mov	r0, r7
1000656e:	eb06 16c4 	add.w	r6, r6, r4, lsl #7
10006572:	4631      	mov	r1, r6
10006574:	2240      	movs	r2, #64	@ 0x40
10006576:	f000 fd7b 	bl	10007070 <tu_fifo_read_n>
1000657a:	f898 1002 	ldrb.w	r1, [r8, #2]
1000657e:	4604      	mov	r4, r0
10006580:	b168      	cbz	r0, 1000659e <tud_cdc_n_write_flush+0x7a>
10006582:	4603      	mov	r3, r0
10006584:	4632      	mov	r2, r6
10006586:	4628      	mov	r0, r5
10006588:	f7ff fde2 	bl	10006150 <usbd_edpt_xfer>
1000658c:	b950      	cbnz	r0, 100065a4 <tud_cdc_n_write_flush+0x80>
1000658e:	f04f 23e0 	mov.w	r3, #3758153728	@ 0xe000e000
10006592:	f8d3 3df0 	ldr.w	r3, [r3, #3568]	@ 0xdf0
10006596:	07db      	lsls	r3, r3, #31
10006598:	d5ca      	bpl.n	10006530 <tud_cdc_n_write_flush+0xc>
1000659a:	be00      	bkpt	0x0000
1000659c:	e7c8      	b.n	10006530 <tud_cdc_n_write_flush+0xc>
1000659e:	f7ff fdc5 	bl	1000612c <usbd_edpt_release>
100065a2:	e7c5      	b.n	10006530 <tud_cdc_n_write_flush+0xc>
100065a4:	4620      	mov	r0, r4
100065a6:	e7c4      	b.n	10006532 <tud_cdc_n_write_flush+0xe>
100065a8:	20001fa4 	.word	0x20001fa4
100065ac:	20001fe8 	.word	0x20001fe8

100065b0 <tud_cdc_n_write>:
100065b0:	b538      	push	{r3, r4, r5, lr}
100065b2:	f64f 75ff 	movw	r5, #65535	@ 0xffff
100065b6:	23c8      	movs	r3, #200	@ 0xc8
100065b8:	42aa      	cmp	r2, r5
100065ba:	bf28      	it	cs
100065bc:	462a      	movcs	r2, r5
100065be:	4c0b      	ldr	r4, [pc, #44]	@ (100065ec <tud_cdc_n_write+0x3c>)
100065c0:	b292      	uxth	r2, r2
100065c2:	fb03 4400 	mla	r4, r3, r0, r4
100065c6:	4605      	mov	r5, r0
100065c8:	4620      	mov	r0, r4
100065ca:	f000 fe0f 	bl	100071ec <tu_fifo_write_n>
100065ce:	4603      	mov	r3, r0
100065d0:	4620      	mov	r0, r4
100065d2:	461c      	mov	r4, r3
100065d4:	f000 fcd6 	bl	10006f84 <tu_fifo_count>
100065d8:	283f      	cmp	r0, #63	@ 0x3f
100065da:	d801      	bhi.n	100065e0 <tud_cdc_n_write+0x30>
100065dc:	4620      	mov	r0, r4
100065de:	bd38      	pop	{r3, r4, r5, pc}
100065e0:	4628      	mov	r0, r5
100065e2:	f7ff ff9f 	bl	10006524 <tud_cdc_n_write_flush>
100065e6:	4620      	mov	r0, r4
100065e8:	bd38      	pop	{r3, r4, r5, pc}
100065ea:	bf00      	nop
100065ec:	2000200c 	.word	0x2000200c

100065f0 <tud_cdc_n_write_available>:
100065f0:	22c8      	movs	r2, #200	@ 0xc8
100065f2:	b508      	push	{r3, lr}
100065f4:	4b02      	ldr	r3, [pc, #8]	@ (10006600 <tud_cdc_n_write_available+0x10>)
100065f6:	fb02 3000 	mla	r0, r2, r0, r3
100065fa:	f000 fcdd 	bl	10006fb8 <tu_fifo_remaining>
100065fe:	bd08      	pop	{r3, pc}
10006600:	2000200c 	.word	0x2000200c

10006604 <cdcd_init>:
10006604:	b5f0      	push	{r4, r5, r6, r7, lr}
10006606:	2400      	movs	r4, #0
10006608:	b083      	sub	sp, #12
1000660a:	22c8      	movs	r2, #200	@ 0xc8
1000660c:	2100      	movs	r1, #0
1000660e:	4817      	ldr	r0, [pc, #92]	@ (1000666c <cdcd_init+0x68>)
10006610:	f001 fbcc 	bl	10007dac <memset>
10006614:	23ff      	movs	r3, #255	@ 0xff
10006616:	f44f 31e1 	mov.w	r1, #115200	@ 0x1c200
1000661a:	2208      	movs	r2, #8
1000661c:	4814      	ldr	r0, [pc, #80]	@ (10006670 <cdcd_init+0x6c>)
1000661e:	7004      	strb	r4, [r0, #0]
10006620:	4812      	ldr	r0, [pc, #72]	@ (1000666c <cdcd_init+0x68>)
10006622:	9400      	str	r4, [sp, #0]
10006624:	4607      	mov	r7, r0
10006626:	7143      	strb	r3, [r0, #5]
10006628:	6081      	str	r1, [r0, #8]
1000662a:	7382      	strb	r2, [r0, #14]
1000662c:	f100 0138 	add.w	r1, r0, #56	@ 0x38
10006630:	2301      	movs	r3, #1
10006632:	2240      	movs	r2, #64	@ 0x40
10006634:	3010      	adds	r0, #16
10006636:	f000 fc75 	bl	10006f24 <tu_fifo_config>
1000663a:	2301      	movs	r3, #1
1000663c:	2240      	movs	r2, #64	@ 0x40
1000663e:	f107 0178 	add.w	r1, r7, #120	@ 0x78
10006642:	9300      	str	r3, [sp, #0]
10006644:	f107 06b8 	add.w	r6, r7, #184	@ 0xb8
10006648:	f107 0024 	add.w	r0, r7, #36	@ 0x24
1000664c:	f000 fc6a 	bl	10006f24 <tu_fifo_config>
10006650:	f107 05c0 	add.w	r5, r7, #192	@ 0xc0
10006654:	4630      	mov	r0, r6
10006656:	f7fa fb1b 	bl	10000c90 <mutex_init>
1000665a:	4628      	mov	r0, r5
1000665c:	f7fa fb18 	bl	10000c90 <mutex_init>
10006660:	e9c7 4607 	strd	r4, r6, [r7, #28]
10006664:	e9c7 540c 	strd	r5, r4, [r7, #48]	@ 0x30
10006668:	b003      	add	sp, #12
1000666a:	bdf0      	pop	{r4, r5, r6, r7, pc}
1000666c:	20001fe8 	.word	0x20001fe8
10006670:	20001fe4 	.word	0x20001fe4

10006674 <cdcd_deinit>:
10006674:	4a0a      	ldr	r2, [pc, #40]	@ (100066a0 <cdcd_deinit+0x2c>)
10006676:	6b11      	ldr	r1, [r2, #48]	@ 0x30
10006678:	6a13      	ldr	r3, [r2, #32]
1000667a:	b161      	cbz	r1, 10006696 <cdcd_deinit+0x22>
1000667c:	b13b      	cbz	r3, 1000668e <cdcd_deinit+0x1a>
1000667e:	2300      	movs	r3, #0
10006680:	e9c2 330c 	strd	r3, r3, [r2, #48]	@ 0x30
10006684:	61d3      	str	r3, [r2, #28]
10006686:	2300      	movs	r3, #0
10006688:	6213      	str	r3, [r2, #32]
1000668a:	2001      	movs	r0, #1
1000668c:	4770      	bx	lr
1000668e:	2001      	movs	r0, #1
10006690:	e9c2 330c 	strd	r3, r3, [r2, #48]	@ 0x30
10006694:	4770      	bx	lr
10006696:	2b00      	cmp	r3, #0
10006698:	d0f7      	beq.n	1000668a <cdcd_deinit+0x16>
1000669a:	61d1      	str	r1, [r2, #28]
1000669c:	e7f3      	b.n	10006686 <cdcd_deinit+0x12>
1000669e:	bf00      	nop
100066a0:	20001fe8 	.word	0x20001fe8

100066a4 <cdcd_reset>:
100066a4:	2200      	movs	r2, #0
100066a6:	b510      	push	{r4, lr}
100066a8:	4c0e      	ldr	r4, [pc, #56]	@ (100066e4 <cdcd_reset+0x40>)
100066aa:	480f      	ldr	r0, [pc, #60]	@ (100066e8 <cdcd_reset+0x44>)
100066ac:	7823      	ldrb	r3, [r4, #0]
100066ae:	6002      	str	r2, [r0, #0]
100066b0:	7102      	strb	r2, [r0, #4]
100066b2:	07da      	lsls	r2, r3, #31
100066b4:	d507      	bpl.n	100066c6 <cdcd_reset+0x22>
100066b6:	079b      	lsls	r3, r3, #30
100066b8:	d50b      	bpl.n	100066d2 <cdcd_reset+0x2e>
100066ba:	e8bd 4010 	ldmia.w	sp!, {r4, lr}
100066be:	2101      	movs	r1, #1
100066c0:	480a      	ldr	r0, [pc, #40]	@ (100066ec <cdcd_reset+0x48>)
100066c2:	f000 be5d 	b.w	10007380 <tu_fifo_set_overwritable>
100066c6:	3010      	adds	r0, #16
100066c8:	f000 fe3e 	bl	10007348 <tu_fifo_clear>
100066cc:	7823      	ldrb	r3, [r4, #0]
100066ce:	079b      	lsls	r3, r3, #30
100066d0:	d4f3      	bmi.n	100066ba <cdcd_reset+0x16>
100066d2:	4806      	ldr	r0, [pc, #24]	@ (100066ec <cdcd_reset+0x48>)
100066d4:	f000 fe38 	bl	10007348 <tu_fifo_clear>
100066d8:	e8bd 4010 	ldmia.w	sp!, {r4, lr}
100066dc:	2101      	movs	r1, #1
100066de:	4803      	ldr	r0, [pc, #12]	@ (100066ec <cdcd_reset+0x48>)
100066e0:	f000 be4e 	b.w	10007380 <tu_fifo_set_overwritable>
100066e4:	20001fe4 	.word	0x20001fe4
100066e8:	20001fe8 	.word	0x20001fe8
100066ec:	2000200c 	.word	0x2000200c

100066f0 <cdcd_open>:
100066f0:	b5f0      	push	{r4, r5, r6, r7, lr}
100066f2:	794b      	ldrb	r3, [r1, #5]
100066f4:	b083      	sub	sp, #12
100066f6:	2b02      	cmp	r3, #2
100066f8:	d102      	bne.n	10006700 <cdcd_open+0x10>
100066fa:	798b      	ldrb	r3, [r1, #6]
100066fc:	2b02      	cmp	r3, #2
100066fe:	d003      	beq.n	10006708 <cdcd_open+0x18>
10006700:	2500      	movs	r5, #0
10006702:	4628      	mov	r0, r5
10006704:	b003      	add	sp, #12
10006706:	bdf0      	pop	{r4, r5, r6, r7, pc}
10006708:	4f27      	ldr	r7, [pc, #156]	@ (100067a8 <cdcd_open+0xb8>)
1000670a:	78bb      	ldrb	r3, [r7, #2]
1000670c:	b13b      	cbz	r3, 1000671e <cdcd_open+0x2e>
1000670e:	f04f 23e0 	mov.w	r3, #3758153728	@ 0xe000e000
10006712:	f8d3 3df0 	ldr.w	r3, [r3, #3568]	@ 0xdf0
10006716:	07db      	lsls	r3, r3, #31
10006718:	d5f2      	bpl.n	10006700 <cdcd_open+0x10>
1000671a:	be00      	bkpt	0x0000
1000671c:	e7f0      	b.n	10006700 <cdcd_open+0x10>
1000671e:	788b      	ldrb	r3, [r1, #2]
10006720:	4606      	mov	r6, r0
10006722:	703b      	strb	r3, [r7, #0]
10006724:	780b      	ldrb	r3, [r1, #0]
10006726:	18cc      	adds	r4, r1, r3
10006728:	7861      	ldrb	r1, [r4, #1]
1000672a:	2924      	cmp	r1, #36	@ 0x24
1000672c:	bf08      	it	eq
1000672e:	2509      	moveq	r5, #9
10006730:	d007      	beq.n	10006742 <cdcd_open+0x52>
10006732:	e036      	b.n	100067a2 <cdcd_open+0xb2>
10006734:	7823      	ldrb	r3, [r4, #0]
10006736:	441c      	add	r4, r3
10006738:	7861      	ldrb	r1, [r4, #1]
1000673a:	442b      	add	r3, r5
1000673c:	2924      	cmp	r1, #36	@ 0x24
1000673e:	b29d      	uxth	r5, r3
10006740:	d107      	bne.n	10006752 <cdcd_open+0x62>
10006742:	42aa      	cmp	r2, r5
10006744:	d2f6      	bcs.n	10006734 <cdcd_open+0x44>
10006746:	2000      	movs	r0, #0
10006748:	f7ff fe4a 	bl	100063e0 <_prep_out_transaction.isra.0>
1000674c:	4628      	mov	r0, r5
1000674e:	b003      	add	sp, #12
10006750:	bdf0      	pop	{r4, r5, r6, r7, pc}
10006752:	460b      	mov	r3, r1
10006754:	2905      	cmp	r1, #5
10006756:	d016      	beq.n	10006786 <cdcd_open+0x96>
10006758:	2b04      	cmp	r3, #4
1000675a:	d1f4      	bne.n	10006746 <cdcd_open+0x56>
1000675c:	7963      	ldrb	r3, [r4, #5]
1000675e:	2b0a      	cmp	r3, #10
10006760:	d1f1      	bne.n	10006746 <cdcd_open+0x56>
10006762:	4b12      	ldr	r3, [pc, #72]	@ (100067ac <cdcd_open+0xbc>)
10006764:	7827      	ldrb	r7, [r4, #0]
10006766:	9301      	str	r3, [sp, #4]
10006768:	3301      	adds	r3, #1
1000676a:	9300      	str	r3, [sp, #0]
1000676c:	2302      	movs	r3, #2
1000676e:	4630      	mov	r0, r6
10006770:	461a      	mov	r2, r3
10006772:	19e1      	adds	r1, r4, r7
10006774:	f7ff fc58 	bl	10006028 <usbd_open_edpt_pair>
10006778:	2800      	cmp	r0, #0
1000677a:	d0c8      	beq.n	1000670e <cdcd_open+0x1e>
1000677c:	350e      	adds	r5, #14
1000677e:	fa17 f585 	uxtah	r5, r7, r5
10006782:	b2ad      	uxth	r5, r5
10006784:	e7df      	b.n	10006746 <cdcd_open+0x56>
10006786:	4621      	mov	r1, r4
10006788:	4630      	mov	r0, r6
1000678a:	f7ff fc9b 	bl	100060c4 <usbd_edpt_open>
1000678e:	2800      	cmp	r0, #0
10006790:	d0bd      	beq.n	1000670e <cdcd_open+0x1e>
10006792:	78a3      	ldrb	r3, [r4, #2]
10006794:	707b      	strb	r3, [r7, #1]
10006796:	7823      	ldrb	r3, [r4, #0]
10006798:	195a      	adds	r2, r3, r5
1000679a:	441c      	add	r4, r3
1000679c:	7863      	ldrb	r3, [r4, #1]
1000679e:	b295      	uxth	r5, r2
100067a0:	e7da      	b.n	10006758 <cdcd_open+0x68>
100067a2:	460b      	mov	r3, r1
100067a4:	2509      	movs	r5, #9
100067a6:	e7d5      	b.n	10006754 <cdcd_open+0x64>
100067a8:	20001fe8 	.word	0x20001fe8
100067ac:	20001fea 	.word	0x20001fea

100067b0 <cdcd_control_xfer_cb>:
100067b0:	7813      	ldrb	r3, [r2, #0]
100067b2:	f003 0360 	and.w	r3, r3, #96	@ 0x60
100067b6:	2b20      	cmp	r3, #32
100067b8:	d108      	bne.n	100067cc <cdcd_control_xfer_cb+0x1c>
100067ba:	b570      	push	{r4, r5, r6, lr}
100067bc:	4c26      	ldr	r4, [pc, #152]	@ (10006858 <cdcd_control_xfer_cb+0xa8>)
100067be:	8893      	ldrh	r3, [r2, #4]
100067c0:	f894 c000 	ldrb.w	ip, [r4]
100067c4:	459c      	cmp	ip, r3
100067c6:	d003      	beq.n	100067d0 <cdcd_control_xfer_cb+0x20>
100067c8:	2000      	movs	r0, #0
100067ca:	bd70      	pop	{r4, r5, r6, pc}
100067cc:	2000      	movs	r0, #0
100067ce:	4770      	bx	lr
100067d0:	7853      	ldrb	r3, [r2, #1]
100067d2:	3b20      	subs	r3, #32
100067d4:	2b03      	cmp	r3, #3
100067d6:	d8f7      	bhi.n	100067c8 <cdcd_control_xfer_cb+0x18>
100067d8:	e8df f003 	tbb	[pc, r3]
100067dc:	020d2327 	.word	0x020d2327
100067e0:	2901      	cmp	r1, #1
100067e2:	d02e      	beq.n	10006842 <cdcd_control_xfer_cb+0x92>
100067e4:	2903      	cmp	r1, #3
100067e6:	d11e      	bne.n	10006826 <cdcd_control_xfer_cb+0x76>
100067e8:	4b1c      	ldr	r3, [pc, #112]	@ (1000685c <cdcd_control_xfer_cb+0xac>)
100067ea:	b1e3      	cbz	r3, 10006826 <cdcd_control_xfer_cb+0x76>
100067ec:	2000      	movs	r0, #0
100067ee:	8851      	ldrh	r1, [r2, #2]
100067f0:	f3af 8000 	nop.w
100067f4:	e017      	b.n	10006826 <cdcd_control_xfer_cb+0x76>
100067f6:	2901      	cmp	r1, #1
100067f8:	d023      	beq.n	10006842 <cdcd_control_xfer_cb+0x92>
100067fa:	2903      	cmp	r1, #3
100067fc:	d113      	bne.n	10006826 <cdcd_control_xfer_cb+0x76>
100067fe:	8855      	ldrh	r5, [r2, #2]
10006800:	4817      	ldr	r0, [pc, #92]	@ (10006860 <cdcd_control_xfer_cb+0xb0>)
10006802:	f005 0601 	and.w	r6, r5, #1
10006806:	f086 0101 	eor.w	r1, r6, #1
1000680a:	7125      	strb	r5, [r4, #4]
1000680c:	f000 fdb8 	bl	10007380 <tu_fifo_set_overwritable>
10006810:	4b14      	ldr	r3, [pc, #80]	@ (10006864 <cdcd_control_xfer_cb+0xb4>)
10006812:	b143      	cbz	r3, 10006826 <cdcd_control_xfer_cb+0x76>
10006814:	4631      	mov	r1, r6
10006816:	2000      	movs	r0, #0
10006818:	f3c5 0240 	ubfx	r2, r5, #1, #1
1000681c:	f3af 8000 	nop.w
10006820:	e001      	b.n	10006826 <cdcd_control_xfer_cb+0x76>
10006822:	2901      	cmp	r1, #1
10006824:	d011      	beq.n	1000684a <cdcd_control_xfer_cb+0x9a>
10006826:	2001      	movs	r0, #1
10006828:	bd70      	pop	{r4, r5, r6, pc}
1000682a:	2901      	cmp	r1, #1
1000682c:	d00d      	beq.n	1000684a <cdcd_control_xfer_cb+0x9a>
1000682e:	2903      	cmp	r1, #3
10006830:	d1f9      	bne.n	10006826 <cdcd_control_xfer_cb+0x76>
10006832:	4b0d      	ldr	r3, [pc, #52]	@ (10006868 <cdcd_control_xfer_cb+0xb8>)
10006834:	2b00      	cmp	r3, #0
10006836:	d0f6      	beq.n	10006826 <cdcd_control_xfer_cb+0x76>
10006838:	2000      	movs	r0, #0
1000683a:	490c      	ldr	r1, [pc, #48]	@ (1000686c <cdcd_control_xfer_cb+0xbc>)
1000683c:	f7fe faa8 	bl	10004d90 <tud_cdc_line_coding_cb>
10006840:	e7f1      	b.n	10006826 <cdcd_control_xfer_cb+0x76>
10006842:	4611      	mov	r1, r2
10006844:	f7ff fcbc 	bl	100061c0 <tud_control_status>
10006848:	e7ed      	b.n	10006826 <cdcd_control_xfer_cb+0x76>
1000684a:	4611      	mov	r1, r2
1000684c:	2307      	movs	r3, #7
1000684e:	4a07      	ldr	r2, [pc, #28]	@ (1000686c <cdcd_control_xfer_cb+0xbc>)
10006850:	f7ff fcd0 	bl	100061f4 <tud_control_xfer>
10006854:	e7e7      	b.n	10006826 <cdcd_control_xfer_cb+0x76>
10006856:	bf00      	nop
10006858:	20001fe8 	.word	0x20001fe8
1000685c:	00000000 	.word	0x00000000
10006860:	2000200c 	.word	0x2000200c
10006864:	00000000 	.word	0x00000000
10006868:	10004d91 	.word	0x10004d91
1000686c:	20001ff0 	.word	0x20001ff0

10006870 <cdcd_xfer_cb>:
10006870:	e92d 43f8 	stmdb	sp!, {r3, r4, r5, r6, r7, r8, r9, lr}
10006874:	4e35      	ldr	r6, [pc, #212]	@ (1000694c <cdcd_xfer_cb+0xdc>)
10006876:	460c      	mov	r4, r1
10006878:	78f2      	ldrb	r2, [r6, #3]
1000687a:	4607      	mov	r7, r0
1000687c:	428a      	cmp	r2, r1
1000687e:	461d      	mov	r5, r3
10006880:	d03d      	beq.n	100068fe <cdcd_xfer_cb+0x8e>
10006882:	78b3      	ldrb	r3, [r6, #2]
10006884:	428b      	cmp	r3, r1
10006886:	d012      	beq.n	100068ae <cdcd_xfer_cb+0x3e>
10006888:	f04f 23e0 	mov.w	r3, #3758153728	@ 0xe000e000
1000688c:	f8d3 3df0 	ldr.w	r3, [r3, #3568]	@ 0xdf0
10006890:	07db      	lsls	r3, r3, #31
10006892:	d432      	bmi.n	100068fa <cdcd_xfer_cb+0x8a>
10006894:	2000      	movs	r0, #0
10006896:	e8bd 83f8 	ldmia.w	sp!, {r3, r4, r5, r6, r7, r8, r9, pc}
1000689a:	4b2d      	ldr	r3, [pc, #180]	@ (10006950 <cdcd_xfer_cb+0xe0>)
1000689c:	b123      	cbz	r3, 100068a8 <cdcd_xfer_cb+0x38>
1000689e:	482d      	ldr	r0, [pc, #180]	@ (10006954 <cdcd_xfer_cb+0xe4>)
100068a0:	f000 fb80 	bl	10006fa4 <tu_fifo_empty>
100068a4:	2800      	cmp	r0, #0
100068a6:	d04d      	beq.n	10006944 <cdcd_xfer_cb+0xd4>
100068a8:	2000      	movs	r0, #0
100068aa:	f7ff fd99 	bl	100063e0 <_prep_out_transaction.isra.0>
100068ae:	78b3      	ldrb	r3, [r6, #2]
100068b0:	42a3      	cmp	r3, r4
100068b2:	d001      	beq.n	100068b8 <cdcd_xfer_cb+0x48>
100068b4:	2001      	movs	r0, #1
100068b6:	e7ee      	b.n	10006896 <cdcd_xfer_cb+0x26>
100068b8:	4b27      	ldr	r3, [pc, #156]	@ (10006958 <cdcd_xfer_cb+0xe8>)
100068ba:	b113      	cbz	r3, 100068c2 <cdcd_xfer_cb+0x52>
100068bc:	2000      	movs	r0, #0
100068be:	f3af 8000 	nop.w
100068c2:	2000      	movs	r0, #0
100068c4:	f7ff fe2e 	bl	10006524 <tud_cdc_n_write_flush>
100068c8:	2800      	cmp	r0, #0
100068ca:	d1f3      	bne.n	100068b4 <cdcd_xfer_cb+0x44>
100068cc:	4823      	ldr	r0, [pc, #140]	@ (1000695c <cdcd_xfer_cb+0xec>)
100068ce:	f000 fb59 	bl	10006f84 <tu_fifo_count>
100068d2:	2800      	cmp	r0, #0
100068d4:	d1ee      	bne.n	100068b4 <cdcd_xfer_cb+0x44>
100068d6:	2d00      	cmp	r5, #0
100068d8:	d0ec      	beq.n	100068b4 <cdcd_xfer_cb+0x44>
100068da:	f015 053f 	ands.w	r5, r5, #63	@ 0x3f
100068de:	d1e9      	bne.n	100068b4 <cdcd_xfer_cb+0x44>
100068e0:	4638      	mov	r0, r7
100068e2:	78b1      	ldrb	r1, [r6, #2]
100068e4:	f7ff fc10 	bl	10006108 <usbd_edpt_claim>
100068e8:	2800      	cmp	r0, #0
100068ea:	d0e3      	beq.n	100068b4 <cdcd_xfer_cb+0x44>
100068ec:	462b      	mov	r3, r5
100068ee:	462a      	mov	r2, r5
100068f0:	4638      	mov	r0, r7
100068f2:	78b1      	ldrb	r1, [r6, #2]
100068f4:	f7ff fc2c 	bl	10006150 <usbd_edpt_xfer>
100068f8:	e7dc      	b.n	100068b4 <cdcd_xfer_cb+0x44>
100068fa:	be00      	bkpt	0x0000
100068fc:	e7ca      	b.n	10006894 <cdcd_xfer_cb+0x24>
100068fe:	b29a      	uxth	r2, r3
10006900:	4917      	ldr	r1, [pc, #92]	@ (10006960 <cdcd_xfer_cb+0xf0>)
10006902:	f106 0010 	add.w	r0, r6, #16
10006906:	f000 fc71 	bl	100071ec <tu_fifo_write_n>
1000690a:	4b16      	ldr	r3, [pc, #88]	@ (10006964 <cdcd_xfer_cb+0xf4>)
1000690c:	2b00      	cmp	r3, #0
1000690e:	d0c4      	beq.n	1000689a <cdcd_xfer_cb+0x2a>
10006910:	7973      	ldrb	r3, [r6, #5]
10006912:	2bff      	cmp	r3, #255	@ 0xff
10006914:	d0c1      	beq.n	1000689a <cdcd_xfer_cb+0x2a>
10006916:	2d00      	cmp	r5, #0
10006918:	d0bf      	beq.n	1000689a <cdcd_xfer_cb+0x2a>
1000691a:	f8df 8044 	ldr.w	r8, [pc, #68]	@ 10006960 <cdcd_xfer_cb+0xf0>
1000691e:	eb08 0905 	add.w	r9, r8, r5
10006922:	e002      	b.n	1000692a <cdcd_xfer_cb+0xba>
10006924:	45c8      	cmp	r8, r9
10006926:	d0b8      	beq.n	1000689a <cdcd_xfer_cb+0x2a>
10006928:	7973      	ldrb	r3, [r6, #5]
1000692a:	f818 2b01 	ldrb.w	r2, [r8], #1
1000692e:	429a      	cmp	r2, r3
10006930:	d1f8      	bne.n	10006924 <cdcd_xfer_cb+0xb4>
10006932:	4808      	ldr	r0, [pc, #32]	@ (10006954 <cdcd_xfer_cb+0xe4>)
10006934:	f000 fb36 	bl	10006fa4 <tu_fifo_empty>
10006938:	2800      	cmp	r0, #0
1000693a:	d1f3      	bne.n	10006924 <cdcd_xfer_cb+0xb4>
1000693c:	7971      	ldrb	r1, [r6, #5]
1000693e:	f3af 8000 	nop.w
10006942:	e7ef      	b.n	10006924 <cdcd_xfer_cb+0xb4>
10006944:	f3af 8000 	nop.w
10006948:	e7ae      	b.n	100068a8 <cdcd_xfer_cb+0x38>
1000694a:	bf00      	nop
1000694c:	20001fe8 	.word	0x20001fe8
10006950:	00000000 	.word	0x00000000
10006954:	20001ff8 	.word	0x20001ff8
10006958:	00000000 	.word	0x00000000
1000695c:	2000200c 	.word	0x2000200c
10006960:	20001f64 	.word	0x20001f64
10006964:	00000000 	.word	0x00000000

10006968 <vendord_init>:
10006968:	b5f0      	push	{r4, r5, r6, r7, lr}
1000696a:	f44f 7213 	mov.w	r2, #588	@ 0x24c
1000696e:	b085      	sub	sp, #20
10006970:	2100      	movs	r1, #0
10006972:	4812      	ldr	r0, [pc, #72]	@ (100069bc <vendord_init+0x54>)
10006974:	f001 fa1a 	bl	10007dac <memset>
10006978:	2640      	movs	r6, #64	@ 0x40
1000697a:	2300      	movs	r3, #0
1000697c:	f44f 7580 	mov.w	r5, #256	@ 0x100
10006980:	4f0e      	ldr	r7, [pc, #56]	@ (100069bc <vendord_init+0x54>)
10006982:	4c0f      	ldr	r4, [pc, #60]	@ (100069c0 <vendord_init+0x58>)
10006984:	f507 72a6 	add.w	r2, r7, #332	@ 0x14c
10006988:	4619      	mov	r1, r3
1000698a:	e9cd 4602 	strd	r4, r6, [sp, #8]
1000698e:	9200      	str	r2, [sp, #0]
10006990:	9501      	str	r5, [sp, #4]
10006992:	461a      	mov	r2, r3
10006994:	f507 7094 	add.w	r0, r7, #296	@ 0x128
10006998:	f000 f9c6 	bl	10006d28 <tu_edpt_stream_init>
1000699c:	2300      	movs	r3, #0
1000699e:	4638      	mov	r0, r7
100069a0:	f107 0128 	add.w	r1, r7, #40	@ 0x28
100069a4:	4434      	add	r4, r6
100069a6:	9100      	str	r1, [sp, #0]
100069a8:	2201      	movs	r2, #1
100069aa:	4619      	mov	r1, r3
100069ac:	e9cd 4602 	strd	r4, r6, [sp, #8]
100069b0:	9501      	str	r5, [sp, #4]
100069b2:	3004      	adds	r0, #4
100069b4:	f000 f9b8 	bl	10006d28 <tu_edpt_stream_init>
100069b8:	b005      	add	sp, #20
100069ba:	bdf0      	pop	{r4, r5, r6, r7, pc}
100069bc:	200022cc 	.word	0x200022cc
100069c0:	2000224c 	.word	0x2000224c

100069c4 <vendord_deinit>:
100069c4:	b508      	push	{r3, lr}
100069c6:	4805      	ldr	r0, [pc, #20]	@ (100069dc <vendord_deinit+0x18>)
100069c8:	f000 f9da 	bl	10006d80 <tu_edpt_stream_deinit>
100069cc:	4b03      	ldr	r3, [pc, #12]	@ (100069dc <vendord_deinit+0x18>)
100069ce:	f5a3 7092 	sub.w	r0, r3, #292	@ 0x124
100069d2:	f000 f9d5 	bl	10006d80 <tu_edpt_stream_deinit>
100069d6:	2001      	movs	r0, #1
100069d8:	bd08      	pop	{r3, pc}
100069da:	bf00      	nop
100069dc:	200023f4 	.word	0x200023f4

100069e0 <vendord_reset>:
100069e0:	b538      	push	{r3, r4, r5, lr}
100069e2:	2500      	movs	r5, #0
100069e4:	4c06      	ldr	r4, [pc, #24]	@ (10006a00 <vendord_reset+0x20>)
100069e6:	f504 7098 	add.w	r0, r4, #304	@ 0x130
100069ea:	7025      	strb	r5, [r4, #0]
100069ec:	f000 fcac 	bl	10007348 <tu_fifo_clear>
100069f0:	f104 000c 	add.w	r0, r4, #12
100069f4:	f000 fca8 	bl	10007348 <tu_fifo_clear>
100069f8:	f884 5129 	strb.w	r5, [r4, #297]	@ 0x129
100069fc:	7165      	strb	r5, [r4, #5]
100069fe:	bd38      	pop	{r3, r4, r5, pc}
10006a00:	200022cc 	.word	0x200022cc

10006a04 <vendord_open>:
10006a04:	e92d 43f8 	stmdb	sp!, {r3, r4, r5, r6, r7, r8, r9, lr}
10006a08:	794b      	ldrb	r3, [r1, #5]
10006a0a:	2bff      	cmp	r3, #255	@ 0xff
10006a0c:	d151      	bne.n	10006ab2 <vendord_open+0xae>
10006a0e:	4e35      	ldr	r6, [pc, #212]	@ (10006ae4 <vendord_open+0xe0>)
10006a10:	f896 3129 	ldrb.w	r3, [r6, #297]	@ 0x129
10006a14:	2b00      	cmp	r3, #0
10006a16:	d14c      	bne.n	10006ab2 <vendord_open+0xae>
10006a18:	f896 8005 	ldrb.w	r8, [r6, #5]
10006a1c:	f1b8 0f00 	cmp.w	r8, #0
10006a20:	d147      	bne.n	10006ab2 <vendord_open+0xae>
10006a22:	788b      	ldrb	r3, [r1, #2]
10006a24:	780c      	ldrb	r4, [r1, #0]
10006a26:	7033      	strb	r3, [r6, #0]
10006a28:	790b      	ldrb	r3, [r1, #4]
10006a2a:	460f      	mov	r7, r1
10006a2c:	440c      	add	r4, r1
10006a2e:	b3ab      	cbz	r3, 10006a9c <vendord_open+0x98>
10006a30:	4681      	mov	r9, r0
10006a32:	18a5      	adds	r5, r4, r2
10006a34:	e003      	b.n	10006a3e <vendord_open+0x3a>
10006a36:	42a5      	cmp	r5, r4
10006a38:	d930      	bls.n	10006a9c <vendord_open+0x98>
10006a3a:	7823      	ldrb	r3, [r4, #0]
10006a3c:	441c      	add	r4, r3
10006a3e:	7863      	ldrb	r3, [r4, #1]
10006a40:	2b05      	cmp	r3, #5
10006a42:	d1f8      	bne.n	10006a36 <vendord_open+0x32>
10006a44:	42ac      	cmp	r4, r5
10006a46:	d229      	bcs.n	10006a9c <vendord_open+0x98>
10006a48:	4621      	mov	r1, r4
10006a4a:	4648      	mov	r0, r9
10006a4c:	f7ff fb3a 	bl	100060c4 <usbd_edpt_open>
10006a50:	b340      	cbz	r0, 10006aa4 <vendord_open+0xa0>
10006a52:	78a3      	ldrb	r3, [r4, #2]
10006a54:	09db      	lsrs	r3, r3, #7
10006a56:	d12f      	bne.n	10006ab8 <vendord_open+0xb4>
10006a58:	4823      	ldr	r0, [pc, #140]	@ (10006ae8 <vendord_open+0xe4>)
10006a5a:	f000 fc75 	bl	10007348 <tu_fifo_clear>
10006a5e:	78a3      	ldrb	r3, [r4, #2]
10006a60:	f896 2128 	ldrb.w	r2, [r6, #296]	@ 0x128
10006a64:	f886 3129 	strb.w	r3, [r6, #297]	@ 0x129
10006a68:	88a3      	ldrh	r3, [r4, #4]
10006a6a:	4648      	mov	r0, r9
10006a6c:	f3c3 030a 	ubfx	r3, r3, #0, #11
10006a70:	f5a3 7300 	sub.w	r3, r3, #512	@ 0x200
10006a74:	fab3 f383 	clz	r3, r3
10006a78:	095b      	lsrs	r3, r3, #5
10006a7a:	f363 0241 	bfi	r2, r3, #1, #1
10006a7e:	491b      	ldr	r1, [pc, #108]	@ (10006aec <vendord_open+0xe8>)
10006a80:	f886 2128 	strb.w	r2, [r6, #296]	@ 0x128
10006a84:	f000 f9ea 	bl	10006e5c <tu_edpt_stream_read_xfer>
10006a88:	b160      	cbz	r0, 10006aa4 <vendord_open+0xa0>
10006a8a:	7823      	ldrb	r3, [r4, #0]
10006a8c:	793a      	ldrb	r2, [r7, #4]
10006a8e:	f108 0801 	add.w	r8, r8, #1
10006a92:	441c      	add	r4, r3
10006a94:	fa5f f388 	uxtb.w	r3, r8
10006a98:	429a      	cmp	r2, r3
10006a9a:	d8d0      	bhi.n	10006a3e <vendord_open+0x3a>
10006a9c:	1be1      	subs	r1, r4, r7
10006a9e:	b288      	uxth	r0, r1
10006aa0:	e8bd 83f8 	ldmia.w	sp!, {r3, r4, r5, r6, r7, r8, r9, pc}
10006aa4:	f04f 23e0 	mov.w	r3, #3758153728	@ 0xe000e000
10006aa8:	f8d3 3df0 	ldr.w	r3, [r3, #3568]	@ 0xdf0
10006aac:	07db      	lsls	r3, r3, #31
10006aae:	d500      	bpl.n	10006ab2 <vendord_open+0xae>
10006ab0:	be00      	bkpt	0x0000
10006ab2:	2000      	movs	r0, #0
10006ab4:	e8bd 83f8 	ldmia.w	sp!, {r3, r4, r5, r6, r7, r8, r9, pc}
10006ab8:	480d      	ldr	r0, [pc, #52]	@ (10006af0 <vendord_open+0xec>)
10006aba:	f000 fc45 	bl	10007348 <tu_fifo_clear>
10006abe:	78a3      	ldrb	r3, [r4, #2]
10006ac0:	7932      	ldrb	r2, [r6, #4]
10006ac2:	7173      	strb	r3, [r6, #5]
10006ac4:	88a3      	ldrh	r3, [r4, #4]
10006ac6:	490b      	ldr	r1, [pc, #44]	@ (10006af4 <vendord_open+0xf0>)
10006ac8:	f3c3 030a 	ubfx	r3, r3, #0, #11
10006acc:	f5a3 7300 	sub.w	r3, r3, #512	@ 0x200
10006ad0:	fab3 f383 	clz	r3, r3
10006ad4:	095b      	lsrs	r3, r3, #5
10006ad6:	f363 0241 	bfi	r2, r3, #1, #1
10006ada:	2000      	movs	r0, #0
10006adc:	7132      	strb	r2, [r6, #4]
10006ade:	f000 f985 	bl	10006dec <tu_edpt_stream_write_xfer>
10006ae2:	e7d2      	b.n	10006a8a <vendord_open+0x86>
10006ae4:	200022cc 	.word	0x200022cc
10006ae8:	200023fc 	.word	0x200023fc
10006aec:	200023f4 	.word	0x200023f4
10006af0:	200022d8 	.word	0x200022d8
10006af4:	200022d0 	.word	0x200022d0

10006af8 <vendord_xfer_cb>:
10006af8:	b570      	push	{r4, r5, r6, lr}
10006afa:	4c1b      	ldr	r4, [pc, #108]	@ (10006b68 <vendord_xfer_cb+0x70>)
10006afc:	4606      	mov	r6, r0
10006afe:	f894 c129 	ldrb.w	ip, [r4, #297]	@ 0x129
10006b02:	461d      	mov	r5, r3
10006b04:	458c      	cmp	ip, r1
10006b06:	d011      	beq.n	10006b2c <vendord_xfer_cb+0x34>
10006b08:	7963      	ldrb	r3, [r4, #5]
10006b0a:	428b      	cmp	r3, r1
10006b0c:	d001      	beq.n	10006b12 <vendord_xfer_cb+0x1a>
10006b0e:	2000      	movs	r0, #0
10006b10:	bd70      	pop	{r4, r5, r6, pc}
10006b12:	4b16      	ldr	r3, [pc, #88]	@ (10006b6c <vendord_xfer_cb+0x74>)
10006b14:	b11b      	cbz	r3, 10006b1e <vendord_xfer_cb+0x26>
10006b16:	2000      	movs	r0, #0
10006b18:	b2a9      	uxth	r1, r5
10006b1a:	f3af 8000 	nop.w
10006b1e:	4630      	mov	r0, r6
10006b20:	4913      	ldr	r1, [pc, #76]	@ (10006b70 <vendord_xfer_cb+0x78>)
10006b22:	f000 f963 	bl	10006dec <tu_edpt_stream_write_xfer>
10006b26:	b1c8      	cbz	r0, 10006b5c <vendord_xfer_cb+0x64>
10006b28:	2001      	movs	r0, #1
10006b2a:	bd70      	pop	{r4, r5, r6, pc}
10006b2c:	f8b4 3134 	ldrh.w	r3, [r4, #308]	@ 0x134
10006b30:	b963      	cbnz	r3, 10006b4c <vendord_xfer_cb+0x54>
10006b32:	4b10      	ldr	r3, [pc, #64]	@ (10006b74 <vendord_xfer_cb+0x7c>)
10006b34:	b123      	cbz	r3, 10006b40 <vendord_xfer_cb+0x48>
10006b36:	2000      	movs	r0, #0
10006b38:	490f      	ldr	r1, [pc, #60]	@ (10006b78 <vendord_xfer_cb+0x80>)
10006b3a:	b2aa      	uxth	r2, r5
10006b3c:	f3af 8000 	nop.w
10006b40:	4630      	mov	r0, r6
10006b42:	490e      	ldr	r1, [pc, #56]	@ (10006b7c <vendord_xfer_cb+0x84>)
10006b44:	f000 f98a 	bl	10006e5c <tu_edpt_stream_read_xfer>
10006b48:	2001      	movs	r0, #1
10006b4a:	e7ee      	b.n	10006b2a <vendord_xfer_cb+0x32>
10006b4c:	f8d4 112c 	ldr.w	r1, [r4, #300]	@ 0x12c
10006b50:	b2aa      	uxth	r2, r5
10006b52:	f504 7098 	add.w	r0, r4, #304	@ 0x130
10006b56:	f000 fb49 	bl	100071ec <tu_fifo_write_n>
10006b5a:	e7ea      	b.n	10006b32 <vendord_xfer_cb+0x3a>
10006b5c:	462a      	mov	r2, r5
10006b5e:	4630      	mov	r0, r6
10006b60:	4903      	ldr	r1, [pc, #12]	@ (10006b70 <vendord_xfer_cb+0x78>)
10006b62:	f000 f90f 	bl	10006d84 <tu_edpt_stream_write_zlp_if_needed>
10006b66:	e7df      	b.n	10006b28 <vendord_xfer_cb+0x30>
10006b68:	200022cc 	.word	0x200022cc
10006b6c:	00000000 	.word	0x00000000
10006b70:	200022d0 	.word	0x200022d0
10006b74:	00000000 	.word	0x00000000
10006b78:	2000224c 	.word	0x2000224c
10006b7c:	200023f4 	.word	0x200023f4

10006b80 <tusb_rhport_init>:
10006b80:	b510      	push	{r4, lr}
10006b82:	b082      	sub	sp, #8
10006b84:	b1c9      	cbz	r1, 10006bba <tusb_rhport_init+0x3a>
10006b86:	2801      	cmp	r0, #1
10006b88:	d80c      	bhi.n	10006ba4 <tusb_rhport_init+0x24>
10006b8a:	780b      	ldrb	r3, [r1, #0]
10006b8c:	b153      	cbz	r3, 10006ba4 <tusb_rhport_init+0x24>
10006b8e:	4c14      	ldr	r4, [pc, #80]	@ (10006be0 <tusb_rhport_init+0x60>)
10006b90:	2b01      	cmp	r3, #1
10006b92:	5423      	strb	r3, [r4, r0]
10006b94:	d002      	beq.n	10006b9c <tusb_rhport_init+0x1c>
10006b96:	2001      	movs	r0, #1
10006b98:	b002      	add	sp, #8
10006b9a:	bd10      	pop	{r4, pc}
10006b9c:	f7fe fe08 	bl	100057b0 <tud_rhport_init>
10006ba0:	2800      	cmp	r0, #0
10006ba2:	d1f8      	bne.n	10006b96 <tusb_rhport_init+0x16>
10006ba4:	f04f 23e0 	mov.w	r3, #3758153728	@ 0xe000e000
10006ba8:	f8d3 3df0 	ldr.w	r3, [r3, #3568]	@ 0xdf0
10006bac:	07db      	lsls	r3, r3, #31
10006bae:	d402      	bmi.n	10006bb6 <tusb_rhport_init+0x36>
10006bb0:	2000      	movs	r0, #0
10006bb2:	b002      	add	sp, #8
10006bb4:	bd10      	pop	{r4, pc}
10006bb6:	be00      	bkpt	0x0000
10006bb8:	e7fa      	b.n	10006bb0 <tusb_rhport_init+0x30>
10006bba:	2401      	movs	r4, #1
10006bbc:	4608      	mov	r0, r1
10006bbe:	a901      	add	r1, sp, #4
10006bc0:	f8ad 4004 	strh.w	r4, [sp, #4]
10006bc4:	f7fe fdf4 	bl	100057b0 <tud_rhport_init>
10006bc8:	b938      	cbnz	r0, 10006bda <tusb_rhport_init+0x5a>
10006bca:	f04f 23e0 	mov.w	r3, #3758153728	@ 0xe000e000
10006bce:	f8d3 3df0 	ldr.w	r3, [r3, #3568]	@ 0xdf0
10006bd2:	07da      	lsls	r2, r3, #31
10006bd4:	d5ed      	bpl.n	10006bb2 <tusb_rhport_init+0x32>
10006bd6:	be00      	bkpt	0x0000
10006bd8:	e7eb      	b.n	10006bb2 <tusb_rhport_init+0x32>
10006bda:	4b01      	ldr	r3, [pc, #4]	@ (10006be0 <tusb_rhport_init+0x60>)
10006bdc:	701c      	strb	r4, [r3, #0]
10006bde:	e7e8      	b.n	10006bb2 <tusb_rhport_init+0x32>
10006be0:	20002124 	.word	0x20002124

10006be4 <tu_edpt_claim>:
10006be4:	b5f8      	push	{r3, r4, r5, r6, r7, lr}
10006be6:	7803      	ldrb	r3, [r0, #0]
10006be8:	f013 0401 	ands.w	r4, r3, #1
10006bec:	d11a      	bne.n	10006c24 <tu_edpt_claim+0x40>
10006bee:	7803      	ldrb	r3, [r0, #0]
10006bf0:	4605      	mov	r5, r0
10006bf2:	075a      	lsls	r2, r3, #29
10006bf4:	f3c3 0780 	ubfx	r7, r3, #2, #1
10006bf8:	d501      	bpl.n	10006bfe <tu_edpt_claim+0x1a>
10006bfa:	4620      	mov	r0, r4
10006bfc:	bdf8      	pop	{r3, r4, r5, r6, r7, pc}
10006bfe:	460e      	mov	r6, r1
10006c00:	f04f 31ff 	mov.w	r1, #4294967295	@ 0xffffffff
10006c04:	4630      	mov	r0, r6
10006c06:	f001 fd9f 	bl	10008748 <__mutex_enter_timeout_ms_veneer>
10006c0a:	782b      	ldrb	r3, [r5, #0]
10006c0c:	f013 0401 	ands.w	r4, r3, #1
10006c10:	d10b      	bne.n	10006c2a <tu_edpt_claim+0x46>
10006c12:	782b      	ldrb	r3, [r5, #0]
10006c14:	075b      	lsls	r3, r3, #29
10006c16:	d409      	bmi.n	10006c2c <tu_edpt_claim+0x48>
10006c18:	782b      	ldrb	r3, [r5, #0]
10006c1a:	2401      	movs	r4, #1
10006c1c:	f043 0304 	orr.w	r3, r3, #4
10006c20:	702b      	strb	r3, [r5, #0]
10006c22:	e003      	b.n	10006c2c <tu_edpt_claim+0x48>
10006c24:	2400      	movs	r4, #0
10006c26:	4620      	mov	r0, r4
10006c28:	bdf8      	pop	{r3, r4, r5, r6, r7, pc}
10006c2a:	463c      	mov	r4, r7
10006c2c:	4630      	mov	r0, r6
10006c2e:	f001 fd9b 	bl	10008768 <__mutex_exit_veneer>
10006c32:	4620      	mov	r0, r4
10006c34:	bdf8      	pop	{r3, r4, r5, r6, r7, pc}
10006c36:	bf00      	nop

10006c38 <tu_edpt_release>:
10006c38:	b570      	push	{r4, r5, r6, lr}
10006c3a:	460c      	mov	r4, r1
10006c3c:	4605      	mov	r5, r0
10006c3e:	f04f 31ff 	mov.w	r1, #4294967295	@ 0xffffffff
10006c42:	4620      	mov	r0, r4
10006c44:	f001 fd80 	bl	10008748 <__mutex_enter_timeout_ms_veneer>
10006c48:	782b      	ldrb	r3, [r5, #0]
10006c4a:	f3c3 0680 	ubfx	r6, r3, #2, #1
10006c4e:	075b      	lsls	r3, r3, #29
10006c50:	d508      	bpl.n	10006c64 <tu_edpt_release+0x2c>
10006c52:	782b      	ldrb	r3, [r5, #0]
10006c54:	f013 0301 	ands.w	r3, r3, #1
10006c58:	bf11      	iteee	ne
10006c5a:	2600      	movne	r6, #0
10006c5c:	782a      	ldrbeq	r2, [r5, #0]
10006c5e:	f363 0282 	bfieq	r2, r3, #2, #1
10006c62:	702a      	strbeq	r2, [r5, #0]
10006c64:	4620      	mov	r0, r4
10006c66:	f001 fd7f 	bl	10008768 <__mutex_exit_veneer>
10006c6a:	4630      	mov	r0, r6
10006c6c:	bd70      	pop	{r4, r5, r6, pc}
10006c6e:	bf00      	nop

10006c70 <tu_edpt_validate>:
10006c70:	78c3      	ldrb	r3, [r0, #3]
10006c72:	8882      	ldrh	r2, [r0, #4]
10006c74:	f003 0003 	and.w	r0, r3, #3
10006c78:	2802      	cmp	r0, #2
10006c7a:	f3c2 020a 	ubfx	r2, r2, #0, #11
10006c7e:	d015      	beq.n	10006cac <tu_edpt_validate+0x3c>
10006c80:	2803      	cmp	r0, #3
10006c82:	d00a      	beq.n	10006c9a <tu_edpt_validate+0x2a>
10006c84:	2801      	cmp	r0, #1
10006c86:	d11c      	bne.n	10006cc2 <tu_edpt_validate+0x52>
10006c88:	2902      	cmp	r1, #2
10006c8a:	f240 33ff 	movw	r3, #1023	@ 0x3ff
10006c8e:	bf08      	it	eq
10006c90:	f44f 6380 	moveq.w	r3, #1024	@ 0x400
10006c94:	4293      	cmp	r3, r2
10006c96:	d30d      	bcc.n	10006cb4 <tu_edpt_validate+0x44>
10006c98:	4770      	bx	lr
10006c9a:	2902      	cmp	r1, #2
10006c9c:	bf14      	ite	ne
10006c9e:	2340      	movne	r3, #64	@ 0x40
10006ca0:	f44f 6380 	moveq.w	r3, #1024	@ 0x400
10006ca4:	4293      	cmp	r3, r2
10006ca6:	d305      	bcc.n	10006cb4 <tu_edpt_validate+0x44>
10006ca8:	2001      	movs	r0, #1
10006caa:	4770      	bx	lr
10006cac:	2902      	cmp	r1, #2
10006cae:	d00a      	beq.n	10006cc6 <tu_edpt_validate+0x56>
10006cb0:	2a40      	cmp	r2, #64	@ 0x40
10006cb2:	d9f9      	bls.n	10006ca8 <tu_edpt_validate+0x38>
10006cb4:	f04f 23e0 	mov.w	r3, #3758153728	@ 0xe000e000
10006cb8:	f8d3 3df0 	ldr.w	r3, [r3, #3568]	@ 0xdf0
10006cbc:	07db      	lsls	r3, r3, #31
10006cbe:	d500      	bpl.n	10006cc2 <tu_edpt_validate+0x52>
10006cc0:	be00      	bkpt	0x0000
10006cc2:	2000      	movs	r0, #0
10006cc4:	4770      	bx	lr
10006cc6:	f5b2 7f00 	cmp.w	r2, #512	@ 0x200
10006cca:	d0ed      	beq.n	10006ca8 <tu_edpt_validate+0x38>
10006ccc:	e7f2      	b.n	10006cb4 <tu_edpt_validate+0x44>
10006cce:	bf00      	nop

10006cd0 <tu_edpt_bind_driver>:
10006cd0:	440a      	add	r2, r1
10006cd2:	4291      	cmp	r1, r2
10006cd4:	d226      	bcs.n	10006d24 <tu_edpt_bind_driver+0x54>
10006cd6:	f891 c001 	ldrb.w	ip, [r1, #1]
10006cda:	f1bc 0f05 	cmp.w	ip, #5
10006cde:	d005      	beq.n	10006cec <tu_edpt_bind_driver+0x1c>
10006ce0:	f891 c000 	ldrb.w	ip, [r1]
10006ce4:	4461      	add	r1, ip
10006ce6:	428a      	cmp	r2, r1
10006ce8:	d8f5      	bhi.n	10006cd6 <tu_edpt_bind_driver+0x6>
10006cea:	4770      	bx	lr
10006cec:	b500      	push	{lr}
10006cee:	f891 c002 	ldrb.w	ip, [r1, #2]
10006cf2:	f00c 0e7f 	and.w	lr, ip, #127	@ 0x7f
10006cf6:	eb00 0e4e 	add.w	lr, r0, lr, lsl #1
10006cfa:	ea4f 1cdc 	mov.w	ip, ip, lsr #7
10006cfe:	f80e 300c 	strb.w	r3, [lr, ip]
10006d02:	f891 c000 	ldrb.w	ip, [r1]
10006d06:	4461      	add	r1, ip
10006d08:	428a      	cmp	r2, r1
10006d0a:	d909      	bls.n	10006d20 <tu_edpt_bind_driver+0x50>
10006d0c:	f891 c001 	ldrb.w	ip, [r1, #1]
10006d10:	f1bc 0f05 	cmp.w	ip, #5
10006d14:	d0eb      	beq.n	10006cee <tu_edpt_bind_driver+0x1e>
10006d16:	f891 c000 	ldrb.w	ip, [r1]
10006d1a:	4461      	add	r1, ip
10006d1c:	428a      	cmp	r2, r1
10006d1e:	d8f5      	bhi.n	10006d0c <tu_edpt_bind_driver+0x3c>
10006d20:	f85d fb04 	ldr.w	pc, [sp], #4
10006d24:	4770      	bx	lr
10006d26:	bf00      	nop

10006d28 <tu_edpt_stream_init>:
10006d28:	e92d 41f0 	stmdb	sp!, {r4, r5, r6, r7, r8, lr}
10006d2c:	468e      	mov	lr, r1
10006d2e:	b082      	sub	sp, #8
10006d30:	9300      	str	r3, [sp, #0]
10006d32:	f890 c000 	ldrb.w	ip, [r0]
10006d36:	9e08      	ldr	r6, [sp, #32]
10006d38:	f8bd 7024 	ldrh.w	r7, [sp, #36]	@ 0x24
10006d3c:	f36e 0c00 	bfi	ip, lr, #0, #1
10006d40:	4604      	mov	r4, r0
10006d42:	4615      	mov	r5, r2
10006d44:	2301      	movs	r3, #1
10006d46:	4631      	mov	r1, r6
10006d48:	463a      	mov	r2, r7
10006d4a:	f800 cb08 	strb.w	ip, [r0], #8
10006d4e:	f8bd 802c 	ldrh.w	r8, [sp, #44]	@ 0x2c
10006d52:	f000 f8e7 	bl	10006f24 <tu_fifo_config>
10006d56:	b106      	cbz	r6, 10006d5a <tu_edpt_stream_init+0x32>
10006d58:	b93f      	cbnz	r7, 10006d6a <tu_edpt_stream_init+0x42>
10006d5a:	2001      	movs	r0, #1
10006d5c:	9b0a      	ldr	r3, [sp, #40]	@ 0x28
10006d5e:	f8a4 8002 	strh.w	r8, [r4, #2]
10006d62:	6063      	str	r3, [r4, #4]
10006d64:	b002      	add	sp, #8
10006d66:	e8bd 81f0 	ldmia.w	sp!, {r4, r5, r6, r7, r8, pc}
10006d6a:	f104 061c 	add.w	r6, r4, #28
10006d6e:	4630      	mov	r0, r6
10006d70:	f7f9 ff8e 	bl	10000c90 <mutex_init>
10006d74:	b10d      	cbz	r5, 10006d7a <tu_edpt_stream_init+0x52>
10006d76:	4635      	mov	r5, r6
10006d78:	2600      	movs	r6, #0
10006d7a:	e9c4 5605 	strd	r5, r6, [r4, #20]
10006d7e:	e7ec      	b.n	10006d5a <tu_edpt_stream_init+0x32>

10006d80 <tu_edpt_stream_deinit>:
10006d80:	2001      	movs	r0, #1
10006d82:	4770      	bx	lr

10006d84 <tu_edpt_stream_write_zlp_if_needed>:
10006d84:	b5f8      	push	{r3, r4, r5, r6, r7, lr}
10006d86:	4607      	mov	r7, r0
10006d88:	4608      	mov	r0, r1
10006d8a:	f240 13ff 	movw	r3, #511	@ 0x1ff
10006d8e:	4615      	mov	r5, r2
10006d90:	f810 2b08 	ldrb.w	r2, [r0], #8
10006d94:	460c      	mov	r4, r1
10006d96:	f012 0f02 	tst.w	r2, #2
10006d9a:	bf0c      	ite	eq
10006d9c:	263f      	moveq	r6, #63	@ 0x3f
10006d9e:	461e      	movne	r6, r3
10006da0:	f000 f8f0 	bl	10006f84 <tu_fifo_count>
10006da4:	b928      	cbnz	r0, 10006db2 <tu_edpt_stream_write_zlp_if_needed+0x2e>
10006da6:	b125      	cbz	r5, 10006db2 <tu_edpt_stream_write_zlp_if_needed+0x2e>
10006da8:	422e      	tst	r6, r5
10006daa:	d102      	bne.n	10006db2 <tu_edpt_stream_write_zlp_if_needed+0x2e>
10006dac:	7823      	ldrb	r3, [r4, #0]
10006dae:	07da      	lsls	r2, r3, #31
10006db0:	d501      	bpl.n	10006db6 <tu_edpt_stream_write_zlp_if_needed+0x32>
10006db2:	2000      	movs	r0, #0
10006db4:	bdf8      	pop	{r3, r4, r5, r6, r7, pc}
10006db6:	4638      	mov	r0, r7
10006db8:	7861      	ldrb	r1, [r4, #1]
10006dba:	f7ff f9a5 	bl	10006108 <usbd_edpt_claim>
10006dbe:	2800      	cmp	r0, #0
10006dc0:	d0f7      	beq.n	10006db2 <tu_edpt_stream_write_zlp_if_needed+0x2e>
10006dc2:	7823      	ldrb	r3, [r4, #0]
10006dc4:	f013 0301 	ands.w	r3, r3, #1
10006dc8:	d007      	beq.n	10006dda <tu_edpt_stream_write_zlp_if_needed+0x56>
10006dca:	f04f 23e0 	mov.w	r3, #3758153728	@ 0xe000e000
10006dce:	f8d3 3df0 	ldr.w	r3, [r3, #3568]	@ 0xdf0
10006dd2:	07db      	lsls	r3, r3, #31
10006dd4:	d5ed      	bpl.n	10006db2 <tu_edpt_stream_write_zlp_if_needed+0x2e>
10006dd6:	be00      	bkpt	0x0000
10006dd8:	e7eb      	b.n	10006db2 <tu_edpt_stream_write_zlp_if_needed+0x2e>
10006dda:	461a      	mov	r2, r3
10006ddc:	4638      	mov	r0, r7
10006dde:	7861      	ldrb	r1, [r4, #1]
10006de0:	f7ff f9b6 	bl	10006150 <usbd_edpt_xfer>
10006de4:	2800      	cmp	r0, #0
10006de6:	d0f0      	beq.n	10006dca <tu_edpt_stream_write_zlp_if_needed+0x46>
10006de8:	bdf8      	pop	{r3, r4, r5, r6, r7, pc}
10006dea:	bf00      	nop

10006dec <tu_edpt_stream_write_xfer>:
10006dec:	b570      	push	{r4, r5, r6, lr}
10006dee:	f101 0508 	add.w	r5, r1, #8
10006df2:	4606      	mov	r6, r0
10006df4:	4628      	mov	r0, r5
10006df6:	460c      	mov	r4, r1
10006df8:	f000 f8c4 	bl	10006f84 <tu_fifo_count>
10006dfc:	b110      	cbz	r0, 10006e04 <tu_edpt_stream_write_xfer+0x18>
10006dfe:	7823      	ldrb	r3, [r4, #0]
10006e00:	07da      	lsls	r2, r3, #31
10006e02:	d501      	bpl.n	10006e08 <tu_edpt_stream_write_xfer+0x1c>
10006e04:	2000      	movs	r0, #0
10006e06:	bd70      	pop	{r4, r5, r6, pc}
10006e08:	4630      	mov	r0, r6
10006e0a:	7861      	ldrb	r1, [r4, #1]
10006e0c:	f7ff f97c 	bl	10006108 <usbd_edpt_claim>
10006e10:	2800      	cmp	r0, #0
10006e12:	d0f7      	beq.n	10006e04 <tu_edpt_stream_write_xfer+0x18>
10006e14:	4628      	mov	r0, r5
10006e16:	8862      	ldrh	r2, [r4, #2]
10006e18:	6861      	ldr	r1, [r4, #4]
10006e1a:	f000 f929 	bl	10007070 <tu_fifo_read_n>
10006e1e:	7823      	ldrb	r3, [r4, #0]
10006e20:	4605      	mov	r5, r0
10006e22:	f003 0301 	and.w	r3, r3, #1
10006e26:	b140      	cbz	r0, 10006e3a <tu_edpt_stream_write_xfer+0x4e>
10006e28:	b173      	cbz	r3, 10006e48 <tu_edpt_stream_write_xfer+0x5c>
10006e2a:	f04f 23e0 	mov.w	r3, #3758153728	@ 0xe000e000
10006e2e:	f8d3 3df0 	ldr.w	r3, [r3, #3568]	@ 0xdf0
10006e32:	07db      	lsls	r3, r3, #31
10006e34:	d5e6      	bpl.n	10006e04 <tu_edpt_stream_write_xfer+0x18>
10006e36:	be00      	bkpt	0x0000
10006e38:	e7e4      	b.n	10006e04 <tu_edpt_stream_write_xfer+0x18>
10006e3a:	2b00      	cmp	r3, #0
10006e3c:	d1e2      	bne.n	10006e04 <tu_edpt_stream_write_xfer+0x18>
10006e3e:	4630      	mov	r0, r6
10006e40:	7861      	ldrb	r1, [r4, #1]
10006e42:	f7ff f973 	bl	1000612c <usbd_edpt_release>
10006e46:	e7dd      	b.n	10006e04 <tu_edpt_stream_write_xfer+0x18>
10006e48:	4603      	mov	r3, r0
10006e4a:	6862      	ldr	r2, [r4, #4]
10006e4c:	4630      	mov	r0, r6
10006e4e:	7861      	ldrb	r1, [r4, #1]
10006e50:	f7ff f97e 	bl	10006150 <usbd_edpt_xfer>
10006e54:	2800      	cmp	r0, #0
10006e56:	d0e8      	beq.n	10006e2a <tu_edpt_stream_write_xfer+0x3e>
10006e58:	4628      	mov	r0, r5
10006e5a:	bd70      	pop	{r4, r5, r6, pc}

10006e5c <tu_edpt_stream_read_xfer>:
10006e5c:	898a      	ldrh	r2, [r1, #12]
10006e5e:	e92d 41f0 	stmdb	sp!, {r4, r5, r6, r7, r8, lr}
10006e62:	780b      	ldrb	r3, [r1, #0]
10006e64:	460c      	mov	r4, r1
10006e66:	4606      	mov	r6, r0
10006e68:	b922      	cbnz	r2, 10006e74 <tu_edpt_stream_read_xfer+0x18>
10006e6a:	07dd      	lsls	r5, r3, #31
10006e6c:	d534      	bpl.n	10006ed8 <tu_edpt_stream_read_xfer+0x7c>
10006e6e:	2000      	movs	r0, #0
10006e70:	e8bd 81f0 	ldmia.w	sp!, {r4, r5, r6, r7, r8, pc}
10006e74:	f104 0708 	add.w	r7, r4, #8
10006e78:	0799      	lsls	r1, r3, #30
10006e7a:	4638      	mov	r0, r7
10006e7c:	bf47      	ittee	mi
10006e7e:	f44f 487e 	movmi.w	r8, #65024	@ 0xfe00
10006e82:	f44f 7500 	movmi.w	r5, #512	@ 0x200
10006e86:	f64f 78c0 	movwpl	r8, #65472	@ 0xffc0
10006e8a:	2540      	movpl	r5, #64	@ 0x40
10006e8c:	f000 f894 	bl	10006fb8 <tu_fifo_remaining>
10006e90:	4285      	cmp	r5, r0
10006e92:	d8ec      	bhi.n	10006e6e <tu_edpt_stream_read_xfer+0x12>
10006e94:	7823      	ldrb	r3, [r4, #0]
10006e96:	07da      	lsls	r2, r3, #31
10006e98:	d4e9      	bmi.n	10006e6e <tu_edpt_stream_read_xfer+0x12>
10006e9a:	4630      	mov	r0, r6
10006e9c:	7861      	ldrb	r1, [r4, #1]
10006e9e:	f7ff f933 	bl	10006108 <usbd_edpt_claim>
10006ea2:	2800      	cmp	r0, #0
10006ea4:	d0e3      	beq.n	10006e6e <tu_edpt_stream_read_xfer+0x12>
10006ea6:	4638      	mov	r0, r7
10006ea8:	f000 f886 	bl	10006fb8 <tu_fifo_remaining>
10006eac:	7823      	ldrb	r3, [r4, #0]
10006eae:	4285      	cmp	r5, r0
10006eb0:	f003 0301 	and.w	r3, r3, #1
10006eb4:	d82d      	bhi.n	10006f12 <tu_edpt_stream_read_xfer+0xb6>
10006eb6:	b9bb      	cbnz	r3, 10006ee8 <tu_edpt_stream_read_xfer+0x8c>
10006eb8:	8865      	ldrh	r5, [r4, #2]
10006eba:	ea08 0800 	and.w	r8, r8, r0
10006ebe:	4545      	cmp	r5, r8
10006ec0:	bf28      	it	cs
10006ec2:	4645      	movcs	r5, r8
10006ec4:	7861      	ldrb	r1, [r4, #1]
10006ec6:	b35d      	cbz	r5, 10006f20 <tu_edpt_stream_read_xfer+0xc4>
10006ec8:	6862      	ldr	r2, [r4, #4]
10006eca:	462b      	mov	r3, r5
10006ecc:	4630      	mov	r0, r6
10006ece:	f7ff f93f 	bl	10006150 <usbd_edpt_xfer>
10006ed2:	b148      	cbz	r0, 10006ee8 <tu_edpt_stream_read_xfer+0x8c>
10006ed4:	4628      	mov	r0, r5
10006ed6:	e7cb      	b.n	10006e70 <tu_edpt_stream_read_xfer+0x14>
10006ed8:	7849      	ldrb	r1, [r1, #1]
10006eda:	f7ff f915 	bl	10006108 <usbd_edpt_claim>
10006ede:	2800      	cmp	r0, #0
10006ee0:	d0c5      	beq.n	10006e6e <tu_edpt_stream_read_xfer+0x12>
10006ee2:	7823      	ldrb	r3, [r4, #0]
10006ee4:	07d8      	lsls	r0, r3, #31
10006ee6:	d507      	bpl.n	10006ef8 <tu_edpt_stream_read_xfer+0x9c>
10006ee8:	f04f 23e0 	mov.w	r3, #3758153728	@ 0xe000e000
10006eec:	f8d3 3df0 	ldr.w	r3, [r3, #3568]	@ 0xdf0
10006ef0:	07db      	lsls	r3, r3, #31
10006ef2:	d5bc      	bpl.n	10006e6e <tu_edpt_stream_read_xfer+0x12>
10006ef4:	be00      	bkpt	0x0000
10006ef6:	e7ba      	b.n	10006e6e <tu_edpt_stream_read_xfer+0x12>
10006ef8:	8863      	ldrh	r3, [r4, #2]
10006efa:	7861      	ldrb	r1, [r4, #1]
10006efc:	b13b      	cbz	r3, 10006f0e <tu_edpt_stream_read_xfer+0xb2>
10006efe:	6862      	ldr	r2, [r4, #4]
10006f00:	4630      	mov	r0, r6
10006f02:	f7ff f925 	bl	10006150 <usbd_edpt_xfer>
10006f06:	2800      	cmp	r0, #0
10006f08:	d0ee      	beq.n	10006ee8 <tu_edpt_stream_read_xfer+0x8c>
10006f0a:	8860      	ldrh	r0, [r4, #2]
10006f0c:	e7b0      	b.n	10006e70 <tu_edpt_stream_read_xfer+0x14>
10006f0e:	461a      	mov	r2, r3
10006f10:	e7f6      	b.n	10006f00 <tu_edpt_stream_read_xfer+0xa4>
10006f12:	2b00      	cmp	r3, #0
10006f14:	d1ab      	bne.n	10006e6e <tu_edpt_stream_read_xfer+0x12>
10006f16:	4630      	mov	r0, r6
10006f18:	7861      	ldrb	r1, [r4, #1]
10006f1a:	f7ff f907 	bl	1000612c <usbd_edpt_release>
10006f1e:	e7a6      	b.n	10006e6e <tu_edpt_stream_read_xfer+0x12>
10006f20:	462a      	mov	r2, r5
10006f22:	e7d2      	b.n	10006eca <tu_edpt_stream_read_xfer+0x6e>

10006f24 <tu_fifo_config>:
10006f24:	e92d 41f0 	stmdb	sp!, {r4, r5, r6, r7, r8, lr}
10006f28:	f5b2 4f00 	cmp.w	r2, #32768	@ 0x8000
10006f2c:	f89d 8018 	ldrb.w	r8, [sp, #24]
10006f30:	d824      	bhi.n	10006f7c <tu_fifo_config+0x58>
10006f32:	4604      	mov	r4, r0
10006f34:	68c0      	ldr	r0, [r0, #12]
10006f36:	4617      	mov	r7, r2
10006f38:	460e      	mov	r6, r1
10006f3a:	461d      	mov	r5, r3
10006f3c:	b118      	cbz	r0, 10006f46 <tu_fifo_config+0x22>
10006f3e:	f04f 31ff 	mov.w	r1, #4294967295	@ 0xffffffff
10006f42:	f001 fc01 	bl	10008748 <__mutex_enter_timeout_ms_veneer>
10006f46:	6920      	ldr	r0, [r4, #16]
10006f48:	b118      	cbz	r0, 10006f52 <tu_fifo_config+0x2e>
10006f4a:	f04f 31ff 	mov.w	r1, #4294967295	@ 0xffffffff
10006f4e:	f001 fbfb 	bl	10008748 <__mutex_enter_timeout_ms_veneer>
10006f52:	2200      	movs	r2, #0
10006f54:	f3c5 030e 	ubfx	r3, r5, #0, #15
10006f58:	68e0      	ldr	r0, [r4, #12]
10006f5a:	ea43 33c8 	orr.w	r3, r3, r8, lsl #15
10006f5e:	8162      	strh	r2, [r4, #10]
10006f60:	6026      	str	r6, [r4, #0]
10006f62:	80a7      	strh	r7, [r4, #4]
10006f64:	80e3      	strh	r3, [r4, #6]
10006f66:	8122      	strh	r2, [r4, #8]
10006f68:	b108      	cbz	r0, 10006f6e <tu_fifo_config+0x4a>
10006f6a:	f001 fbfd 	bl	10008768 <__mutex_exit_veneer>
10006f6e:	6920      	ldr	r0, [r4, #16]
10006f70:	b108      	cbz	r0, 10006f76 <tu_fifo_config+0x52>
10006f72:	f001 fbf9 	bl	10008768 <__mutex_exit_veneer>
10006f76:	2001      	movs	r0, #1
10006f78:	e8bd 81f0 	ldmia.w	sp!, {r4, r5, r6, r7, r8, pc}
10006f7c:	2000      	movs	r0, #0
10006f7e:	e8bd 81f0 	ldmia.w	sp!, {r4, r5, r6, r7, r8, pc}
10006f82:	bf00      	nop

10006f84 <tu_fifo_count>:
10006f84:	8903      	ldrh	r3, [r0, #8]
10006f86:	8942      	ldrh	r2, [r0, #10]
10006f88:	b29b      	uxth	r3, r3
10006f8a:	b292      	uxth	r2, r2
10006f8c:	8880      	ldrh	r0, [r0, #4]
10006f8e:	4293      	cmp	r3, r2
10006f90:	bf36      	itet	cc
10006f92:	ebc2 0240 	rsbcc	r2, r2, r0, lsl #1
10006f96:	1a9b      	subcs	r3, r3, r2
10006f98:	189b      	addcc	r3, r3, r2
10006f9a:	b29b      	uxth	r3, r3
10006f9c:	4298      	cmp	r0, r3
10006f9e:	bf28      	it	cs
10006fa0:	4618      	movcs	r0, r3
10006fa2:	4770      	bx	lr

10006fa4 <tu_fifo_empty>:
10006fa4:	8902      	ldrh	r2, [r0, #8]
10006fa6:	8943      	ldrh	r3, [r0, #10]
10006fa8:	b290      	uxth	r0, r2
10006faa:	b29b      	uxth	r3, r3
10006fac:	1ac0      	subs	r0, r0, r3
10006fae:	fab0 f080 	clz	r0, r0
10006fb2:	0940      	lsrs	r0, r0, #5
10006fb4:	4770      	bx	lr
10006fb6:	bf00      	nop

10006fb8 <tu_fifo_remaining>:
10006fb8:	8903      	ldrh	r3, [r0, #8]
10006fba:	8942      	ldrh	r2, [r0, #10]
10006fbc:	b29b      	uxth	r3, r3
10006fbe:	8880      	ldrh	r0, [r0, #4]
10006fc0:	b292      	uxth	r2, r2
10006fc2:	4293      	cmp	r3, r2
10006fc4:	bf36      	itet	cc
10006fc6:	ebc2 0240 	rsbcc	r2, r2, r0, lsl #1
10006fca:	1a9b      	subcs	r3, r3, r2
10006fcc:	189b      	addcc	r3, r3, r2
10006fce:	b29b      	uxth	r3, r3
10006fd0:	4298      	cmp	r0, r3
10006fd2:	bf86      	itte	hi
10006fd4:	1ac0      	subhi	r0, r0, r3
10006fd6:	b280      	uxthhi	r0, r0
10006fd8:	2000      	movls	r0, #0
10006fda:	4770      	bx	lr

10006fdc <tu_fifo_read>:
10006fdc:	b538      	push	{r3, r4, r5, lr}
10006fde:	4604      	mov	r4, r0
10006fe0:	6900      	ldr	r0, [r0, #16]
10006fe2:	460d      	mov	r5, r1
10006fe4:	b118      	cbz	r0, 10006fee <tu_fifo_read+0x12>
10006fe6:	f04f 31ff 	mov.w	r1, #4294967295	@ 0xffffffff
10006fea:	f001 fbad 	bl	10008748 <__mutex_enter_timeout_ms_veneer>
10006fee:	8921      	ldrh	r1, [r4, #8]
10006ff0:	8963      	ldrh	r3, [r4, #10]
10006ff2:	b289      	uxth	r1, r1
10006ff4:	b29b      	uxth	r3, r3
10006ff6:	88a2      	ldrh	r2, [r4, #4]
10006ff8:	4299      	cmp	r1, r3
10006ffa:	bf36      	itet	cc
10006ffc:	ebc3 0042 	rsbcc	r0, r3, r2, lsl #1
10007000:	1ac8      	subcs	r0, r1, r3
10007002:	1840      	addcc	r0, r0, r1
10007004:	b280      	uxth	r0, r0
10007006:	b350      	cbz	r0, 1000705e <tu_fifo_read+0x82>
10007008:	4282      	cmp	r2, r0
1000700a:	d209      	bcs.n	10007020 <tu_fifo_read+0x44>
1000700c:	4291      	cmp	r1, r2
1000700e:	bf2c      	ite	cs
10007010:	1a89      	subcs	r1, r1, r2
10007012:	1889      	addcc	r1, r1, r2
10007014:	b28b      	uxth	r3, r1
10007016:	429a      	cmp	r2, r3
10007018:	8163      	strh	r3, [r4, #10]
1000701a:	d803      	bhi.n	10007024 <tu_fifo_read+0x48>
1000701c:	1a9b      	subs	r3, r3, r2
1000701e:	b29b      	uxth	r3, r3
10007020:	429a      	cmp	r2, r3
10007022:	d9fb      	bls.n	1000701c <tu_fifo_read+0x40>
10007024:	88e2      	ldrh	r2, [r4, #6]
10007026:	6821      	ldr	r1, [r4, #0]
10007028:	f3c2 020e 	ubfx	r2, r2, #0, #15
1000702c:	fb02 1103 	mla	r1, r2, r3, r1
10007030:	4628      	mov	r0, r5
10007032:	f000 ff69 	bl	10007f08 <memcpy>
10007036:	8961      	ldrh	r1, [r4, #10]
10007038:	2501      	movs	r5, #1
1000703a:	b289      	uxth	r1, r1
1000703c:	1c4b      	adds	r3, r1, #1
1000703e:	b29b      	uxth	r3, r3
10007040:	4299      	cmp	r1, r3
10007042:	88a2      	ldrh	r2, [r4, #4]
10007044:	d90e      	bls.n	10007064 <tu_fifo_read+0x88>
10007046:	2300      	movs	r3, #0
10007048:	fa02 f105 	lsl.w	r1, r2, r5
1000704c:	1a5b      	subs	r3, r3, r1
1000704e:	b29b      	uxth	r3, r3
10007050:	6920      	ldr	r0, [r4, #16]
10007052:	8163      	strh	r3, [r4, #10]
10007054:	b108      	cbz	r0, 1000705a <tu_fifo_read+0x7e>
10007056:	f001 fb87 	bl	10008768 <__mutex_exit_veneer>
1000705a:	4628      	mov	r0, r5
1000705c:	bd38      	pop	{r3, r4, r5, pc}
1000705e:	4605      	mov	r5, r0
10007060:	8963      	ldrh	r3, [r4, #10]
10007062:	b29b      	uxth	r3, r3
10007064:	ebb3 0f42 	cmp.w	r3, r2, lsl #1
10007068:	ea4f 0142 	mov.w	r1, r2, lsl #1
1000706c:	dbf0      	blt.n	10007050 <tu_fifo_read+0x74>
1000706e:	e7ed      	b.n	1000704c <tu_fifo_read+0x70>

10007070 <tu_fifo_read_n>:
10007070:	e92d 47f0 	stmdb	sp!, {r4, r5, r6, r7, r8, r9, sl, lr}
10007074:	4606      	mov	r6, r0
10007076:	6900      	ldr	r0, [r0, #16]
10007078:	4688      	mov	r8, r1
1000707a:	4691      	mov	r9, r2
1000707c:	b118      	cbz	r0, 10007086 <tu_fifo_read_n+0x16>
1000707e:	f04f 31ff 	mov.w	r1, #4294967295	@ 0xffffffff
10007082:	f001 fb61 	bl	10008748 <__mutex_enter_timeout_ms_veneer>
10007086:	8933      	ldrh	r3, [r6, #8]
10007088:	8974      	ldrh	r4, [r6, #10]
1000708a:	b29b      	uxth	r3, r3
1000708c:	b2a4      	uxth	r4, r4
1000708e:	88b5      	ldrh	r5, [r6, #4]
10007090:	42a3      	cmp	r3, r4
10007092:	bf36      	itet	cc
10007094:	ebc4 0745 	rsbcc	r7, r4, r5, lsl #1
10007098:	1b1f      	subcs	r7, r3, r4
1000709a:	18ff      	addcc	r7, r7, r3
1000709c:	b2bf      	uxth	r7, r7
1000709e:	2f00      	cmp	r7, #0
100070a0:	d04a      	beq.n	10007138 <tu_fifo_read_n+0xc8>
100070a2:	42bd      	cmp	r5, r7
100070a4:	d340      	bcc.n	10007128 <tu_fifo_read_n+0xb8>
100070a6:	45b9      	cmp	r9, r7
100070a8:	bf28      	it	cs
100070aa:	46b9      	movcs	r9, r7
100070ac:	42a5      	cmp	r5, r4
100070ae:	fa1f f789 	uxth.w	r7, r9
100070b2:	d803      	bhi.n	100070bc <tu_fifo_read_n+0x4c>
100070b4:	1b64      	subs	r4, r4, r5
100070b6:	b2a4      	uxth	r4, r4
100070b8:	42a5      	cmp	r5, r4
100070ba:	d9fb      	bls.n	100070b4 <tu_fifo_read_n+0x44>
100070bc:	f8b6 a006 	ldrh.w	sl, [r6, #6]
100070c0:	1b2b      	subs	r3, r5, r4
100070c2:	6831      	ldr	r1, [r6, #0]
100070c4:	b29b      	uxth	r3, r3
100070c6:	f3ca 020e 	ubfx	r2, sl, #0, #15
100070ca:	429f      	cmp	r7, r3
100070cc:	4692      	mov	sl, r2
100070ce:	fb02 1104 	mla	r1, r2, r4, r1
100070d2:	d923      	bls.n	1000711c <tu_fifo_read_n+0xac>
100070d4:	fb13 f302 	smulbb	r3, r3, r2
100070d8:	fa1f f983 	uxth.w	r9, r3
100070dc:	464a      	mov	r2, r9
100070de:	4640      	mov	r0, r8
100070e0:	1b7d      	subs	r5, r7, r5
100070e2:	f000 ff11 	bl	10007f08 <memcpy>
100070e6:	1962      	adds	r2, r4, r5
100070e8:	fb12 f20a 	smulbb	r2, r2, sl
100070ec:	6831      	ldr	r1, [r6, #0]
100070ee:	eb08 0009 	add.w	r0, r8, r9
100070f2:	b292      	uxth	r2, r2
100070f4:	f000 ff08 	bl	10007f08 <memcpy>
100070f8:	8972      	ldrh	r2, [r6, #10]
100070fa:	88b5      	ldrh	r5, [r6, #4]
100070fc:	b292      	uxth	r2, r2
100070fe:	19d3      	adds	r3, r2, r7
10007100:	b29b      	uxth	r3, r3
10007102:	429a      	cmp	r2, r3
10007104:	d91a      	bls.n	1000713c <tu_fifo_read_n+0xcc>
10007106:	006a      	lsls	r2, r5, #1
10007108:	1a9b      	subs	r3, r3, r2
1000710a:	b29b      	uxth	r3, r3
1000710c:	6930      	ldr	r0, [r6, #16]
1000710e:	8173      	strh	r3, [r6, #10]
10007110:	b108      	cbz	r0, 10007116 <tu_fifo_read_n+0xa6>
10007112:	f001 fb29 	bl	10008768 <__mutex_exit_veneer>
10007116:	4638      	mov	r0, r7
10007118:	e8bd 87f0 	ldmia.w	sp!, {r4, r5, r6, r7, r8, r9, sl, pc}
1000711c:	4640      	mov	r0, r8
1000711e:	fb07 f202 	mul.w	r2, r7, r2
10007122:	f000 fef1 	bl	10007f08 <memcpy>
10007126:	e7e7      	b.n	100070f8 <tu_fifo_read_n+0x88>
10007128:	42ab      	cmp	r3, r5
1000712a:	bf2c      	ite	cs
1000712c:	1b5b      	subcs	r3, r3, r5
1000712e:	195b      	addcc	r3, r3, r5
10007130:	b29c      	uxth	r4, r3
10007132:	462f      	mov	r7, r5
10007134:	8174      	strh	r4, [r6, #10]
10007136:	e7b6      	b.n	100070a6 <tu_fifo_read_n+0x36>
10007138:	8973      	ldrh	r3, [r6, #10]
1000713a:	b29b      	uxth	r3, r3
1000713c:	ebb3 0f45 	cmp.w	r3, r5, lsl #1
10007140:	ea4f 0245 	mov.w	r2, r5, lsl #1
10007144:	dbe2      	blt.n	1000710c <tu_fifo_read_n+0x9c>
10007146:	e7df      	b.n	10007108 <tu_fifo_read_n+0x98>

10007148 <tu_fifo_write>:
10007148:	b5f8      	push	{r3, r4, r5, r6, r7, lr}
1000714a:	4604      	mov	r4, r0
1000714c:	68c0      	ldr	r0, [r0, #12]
1000714e:	460e      	mov	r6, r1
10007150:	b118      	cbz	r0, 1000715a <tu_fifo_write+0x12>
10007152:	f04f 31ff 	mov.w	r1, #4294967295	@ 0xffffffff
10007156:	f001 faf7 	bl	10008748 <__mutex_enter_timeout_ms_veneer>
1000715a:	8925      	ldrh	r5, [r4, #8]
1000715c:	8923      	ldrh	r3, [r4, #8]
1000715e:	8961      	ldrh	r1, [r4, #10]
10007160:	b29b      	uxth	r3, r3
10007162:	b289      	uxth	r1, r1
10007164:	88a2      	ldrh	r2, [r4, #4]
10007166:	428b      	cmp	r3, r1
10007168:	bf36      	itet	cc
1000716a:	ebc1 0142 	rsbcc	r1, r1, r2, lsl #1
1000716e:	1a5b      	subcs	r3, r3, r1
10007170:	185b      	addcc	r3, r3, r1
10007172:	b29b      	uxth	r3, r3
10007174:	429a      	cmp	r2, r3
10007176:	b2ad      	uxth	r5, r5
10007178:	d808      	bhi.n	1000718c <tu_fifo_write+0x44>
1000717a:	79e7      	ldrb	r7, [r4, #7]
1000717c:	09ff      	lsrs	r7, r7, #7
1000717e:	d105      	bne.n	1000718c <tu_fifo_write+0x44>
10007180:	68e0      	ldr	r0, [r4, #12]
10007182:	b108      	cbz	r0, 10007188 <tu_fifo_write+0x40>
10007184:	f001 faf0 	bl	10008768 <__mutex_exit_veneer>
10007188:	4638      	mov	r0, r7
1000718a:	bdf8      	pop	{r3, r4, r5, r6, r7, pc}
1000718c:	4295      	cmp	r5, r2
1000718e:	bf28      	it	cs
10007190:	462b      	movcs	r3, r5
10007192:	d318      	bcc.n	100071c6 <tu_fifo_write+0x7e>
10007194:	1a9b      	subs	r3, r3, r2
10007196:	b29b      	uxth	r3, r3
10007198:	4293      	cmp	r3, r2
1000719a:	d2fb      	bcs.n	10007194 <tu_fifo_write+0x4c>
1000719c:	88e2      	ldrh	r2, [r4, #6]
1000719e:	6820      	ldr	r0, [r4, #0]
100071a0:	f3c2 020e 	ubfx	r2, r2, #0, #15
100071a4:	fb02 0003 	mla	r0, r2, r3, r0
100071a8:	4631      	mov	r1, r6
100071aa:	f000 fead 	bl	10007f08 <memcpy>
100071ae:	1c6b      	adds	r3, r5, #1
100071b0:	b29b      	uxth	r3, r3
100071b2:	429d      	cmp	r5, r3
100071b4:	88a2      	ldrh	r2, [r4, #4]
100071b6:	d912      	bls.n	100071de <tu_fifo_write+0x96>
100071b8:	2300      	movs	r3, #0
100071ba:	0051      	lsls	r1, r2, #1
100071bc:	1a5b      	subs	r3, r3, r1
100071be:	b29b      	uxth	r3, r3
100071c0:	2701      	movs	r7, #1
100071c2:	8123      	strh	r3, [r4, #8]
100071c4:	e7dc      	b.n	10007180 <tu_fifo_write+0x38>
100071c6:	88e2      	ldrh	r2, [r4, #6]
100071c8:	6820      	ldr	r0, [r4, #0]
100071ca:	f3c2 020e 	ubfx	r2, r2, #0, #15
100071ce:	fb05 0002 	mla	r0, r5, r2, r0
100071d2:	4631      	mov	r1, r6
100071d4:	f000 fe98 	bl	10007f08 <memcpy>
100071d8:	3501      	adds	r5, #1
100071da:	88a2      	ldrh	r2, [r4, #4]
100071dc:	b2ab      	uxth	r3, r5
100071de:	ebb3 0f42 	cmp.w	r3, r2, lsl #1
100071e2:	ea4f 0142 	mov.w	r1, r2, lsl #1
100071e6:	dbeb      	blt.n	100071c0 <tu_fifo_write+0x78>
100071e8:	e7e8      	b.n	100071bc <tu_fifo_write+0x74>
100071ea:	bf00      	nop

100071ec <tu_fifo_write_n>:
100071ec:	e92d 4ff0 	stmdb	sp!, {r4, r5, r6, r7, r8, r9, sl, fp, lr}
100071f0:	4617      	mov	r7, r2
100071f2:	b083      	sub	sp, #12
100071f4:	2a00      	cmp	r2, #0
100071f6:	d075      	beq.n	100072e4 <tu_fifo_write_n+0xf8>
100071f8:	4606      	mov	r6, r0
100071fa:	68c0      	ldr	r0, [r0, #12]
100071fc:	4689      	mov	r9, r1
100071fe:	b118      	cbz	r0, 10007208 <tu_fifo_write_n+0x1c>
10007200:	f04f 31ff 	mov.w	r1, #4294967295	@ 0xffffffff
10007204:	f001 faa0 	bl	10008748 <__mutex_enter_timeout_ms_veneer>
10007208:	79f3      	ldrb	r3, [r6, #7]
1000720a:	f8b6 8008 	ldrh.w	r8, [r6, #8]
1000720e:	8972      	ldrh	r2, [r6, #10]
10007210:	09db      	lsrs	r3, r3, #7
10007212:	88b5      	ldrh	r5, [r6, #4]
10007214:	fa1f f888 	uxth.w	r8, r8
10007218:	b292      	uxth	r2, r2
1000721a:	d13c      	bne.n	10007296 <tu_fifo_write_n+0xaa>
1000721c:	4590      	cmp	r8, r2
1000721e:	bf36      	itet	cc
10007220:	ebc2 0245 	rsbcc	r2, r2, r5, lsl #1
10007224:	eba8 0202 	subcs.w	r2, r8, r2
10007228:	4442      	addcc	r2, r8
1000722a:	b292      	uxth	r2, r2
1000722c:	42aa      	cmp	r2, r5
1000722e:	d25e      	bcs.n	100072ee <tu_fifo_write_n+0x102>
10007230:	1aaa      	subs	r2, r5, r2
10007232:	b292      	uxth	r2, r2
10007234:	42ba      	cmp	r2, r7
10007236:	bf28      	it	cs
10007238:	463a      	movcs	r2, r7
1000723a:	f8b6 b006 	ldrh.w	fp, [r6, #6]
1000723e:	b297      	uxth	r7, r2
10007240:	1b7b      	subs	r3, r7, r5
10007242:	eb08 0a07 	add.w	sl, r8, r7
10007246:	f3cb 0b0e 	ubfx	fp, fp, #0, #15
1000724a:	b29b      	uxth	r3, r3
1000724c:	fa1f fa8a 	uxth.w	sl, sl
10007250:	45a8      	cmp	r8, r5
10007252:	4644      	mov	r4, r8
10007254:	d303      	bcc.n	1000725e <tu_fifo_write_n+0x72>
10007256:	1b64      	subs	r4, r4, r5
10007258:	b2a4      	uxth	r4, r4
1000725a:	42ac      	cmp	r4, r5
1000725c:	d2fb      	bcs.n	10007256 <tu_fifo_write_n+0x6a>
1000725e:	1b2d      	subs	r5, r5, r4
10007260:	6830      	ldr	r0, [r6, #0]
10007262:	b2ad      	uxth	r5, r5
10007264:	42bd      	cmp	r5, r7
10007266:	fb0b 0004 	mla	r0, fp, r4, r0
1000726a:	d357      	bcc.n	1000731c <tu_fifo_write_n+0x130>
1000726c:	4649      	mov	r1, r9
1000726e:	fb0b f207 	mul.w	r2, fp, r7
10007272:	f000 fe49 	bl	10007f08 <memcpy>
10007276:	88b2      	ldrh	r2, [r6, #4]
10007278:	45d0      	cmp	r8, sl
1000727a:	ea4f 0342 	mov.w	r3, r2, lsl #1
1000727e:	d802      	bhi.n	10007286 <tu_fifo_write_n+0x9a>
10007280:	ebba 0f42 	cmp.w	sl, r2, lsl #1
10007284:	db03      	blt.n	1000728e <tu_fifo_write_n+0xa2>
10007286:	ebaa 0303 	sub.w	r3, sl, r3
1000728a:	fa1f fa83 	uxth.w	sl, r3
1000728e:	463d      	mov	r5, r7
10007290:	f8a6 a008 	strh.w	sl, [r6, #8]
10007294:	e02c      	b.n	100072f0 <tu_fifo_write_n+0x104>
10007296:	f8b6 b006 	ldrh.w	fp, [r6, #6]
1000729a:	42af      	cmp	r7, r5
1000729c:	f3cb 0b0e 	ubfx	fp, fp, #0, #15
100072a0:	d22f      	bcs.n	10007302 <tu_fifo_write_n+0x116>
100072a2:	4590      	cmp	r8, r2
100072a4:	bf36      	itet	cc
100072a6:	ebc2 0145 	rsbcc	r1, r2, r5, lsl #1
100072aa:	eba8 0102 	subcs.w	r1, r8, r2
100072ae:	4441      	addcc	r1, r8
100072b0:	b289      	uxth	r1, r1
100072b2:	0068      	lsls	r0, r5, #1
100072b4:	4439      	add	r1, r7
100072b6:	1b7b      	subs	r3, r7, r5
100072b8:	4281      	cmp	r1, r0
100072ba:	b29b      	uxth	r3, r3
100072bc:	db0d      	blt.n	100072da <tu_fifo_write_n+0xee>
100072be:	eb02 0a05 	add.w	sl, r2, r5
100072c2:	fa1f fa8a 	uxth.w	sl, sl
100072c6:	ebaa 0807 	sub.w	r8, sl, r7
100072ca:	fa1f f888 	uxth.w	r8, r8
100072ce:	4542      	cmp	r2, r8
100072d0:	d937      	bls.n	10007342 <tu_fifo_write_n+0x156>
100072d2:	eba8 0000 	sub.w	r0, r8, r0
100072d6:	fa1f f880 	uxth.w	r8, r0
100072da:	eb07 0a08 	add.w	sl, r7, r8
100072de:	fa1f fa8a 	uxth.w	sl, sl
100072e2:	e7b5      	b.n	10007250 <tu_fifo_write_n+0x64>
100072e4:	4615      	mov	r5, r2
100072e6:	4628      	mov	r0, r5
100072e8:	b003      	add	sp, #12
100072ea:	e8bd 8ff0 	ldmia.w	sp!, {r4, r5, r6, r7, r8, r9, sl, fp, pc}
100072ee:	2500      	movs	r5, #0
100072f0:	68f0      	ldr	r0, [r6, #12]
100072f2:	2800      	cmp	r0, #0
100072f4:	d0f7      	beq.n	100072e6 <tu_fifo_write_n+0xfa>
100072f6:	f001 fa37 	bl	10008768 <__mutex_exit_veneer>
100072fa:	4628      	mov	r0, r5
100072fc:	b003      	add	sp, #12
100072fe:	e8bd 8ff0 	ldmia.w	sp!, {r4, r5, r6, r7, r8, r9, sl, fp, pc}
10007302:	2d00      	cmp	r5, #0
10007304:	d0f4      	beq.n	100072f0 <tu_fifo_write_n+0x104>
10007306:	1b7f      	subs	r7, r7, r5
10007308:	eb02 0a05 	add.w	sl, r2, r5
1000730c:	fb0b 9907 	mla	r9, fp, r7, r9
10007310:	4690      	mov	r8, r2
10007312:	462f      	mov	r7, r5
10007314:	2300      	movs	r3, #0
10007316:	fa1f fa8a 	uxth.w	sl, sl
1000731a:	e799      	b.n	10007250 <tu_fifo_write_n+0x64>
1000731c:	fb15 f50b 	smulbb	r5, r5, fp
10007320:	b2ad      	uxth	r5, r5
10007322:	462a      	mov	r2, r5
10007324:	4649      	mov	r1, r9
10007326:	9301      	str	r3, [sp, #4]
10007328:	f000 fdee 	bl	10007f08 <memcpy>
1000732c:	9b01      	ldr	r3, [sp, #4]
1000732e:	6830      	ldr	r0, [r6, #0]
10007330:	18e2      	adds	r2, r4, r3
10007332:	fb12 f20b 	smulbb	r2, r2, fp
10007336:	eb09 0105 	add.w	r1, r9, r5
1000733a:	b292      	uxth	r2, r2
1000733c:	f000 fde4 	bl	10007f08 <memcpy>
10007340:	e799      	b.n	10007276 <tu_fifo_write_n+0x8a>
10007342:	4540      	cmp	r0, r8
10007344:	dc84      	bgt.n	10007250 <tu_fifo_write_n+0x64>
10007346:	e7c4      	b.n	100072d2 <tu_fifo_write_n+0xe6>

10007348 <tu_fifo_clear>:
10007348:	b510      	push	{r4, lr}
1000734a:	4604      	mov	r4, r0
1000734c:	68c0      	ldr	r0, [r0, #12]
1000734e:	b118      	cbz	r0, 10007358 <tu_fifo_clear+0x10>
10007350:	f04f 31ff 	mov.w	r1, #4294967295	@ 0xffffffff
10007354:	f001 f9f8 	bl	10008748 <__mutex_enter_timeout_ms_veneer>
10007358:	6920      	ldr	r0, [r4, #16]
1000735a:	b118      	cbz	r0, 10007364 <tu_fifo_clear+0x1c>
1000735c:	f04f 31ff 	mov.w	r1, #4294967295	@ 0xffffffff
10007360:	f001 f9f2 	bl	10008748 <__mutex_enter_timeout_ms_veneer>
10007364:	2300      	movs	r3, #0
10007366:	68e0      	ldr	r0, [r4, #12]
10007368:	8163      	strh	r3, [r4, #10]
1000736a:	8123      	strh	r3, [r4, #8]
1000736c:	b108      	cbz	r0, 10007372 <tu_fifo_clear+0x2a>
1000736e:	f001 f9fb 	bl	10008768 <__mutex_exit_veneer>
10007372:	6920      	ldr	r0, [r4, #16]
10007374:	b108      	cbz	r0, 1000737a <tu_fifo_clear+0x32>
10007376:	f001 f9f7 	bl	10008768 <__mutex_exit_veneer>
1000737a:	2001      	movs	r0, #1
1000737c:	bd10      	pop	{r4, pc}
1000737e:	bf00      	nop

10007380 <tu_fifo_set_overwritable>:
10007380:	b538      	push	{r3, r4, r5, lr}
10007382:	4604      	mov	r4, r0
10007384:	68c0      	ldr	r0, [r0, #12]
10007386:	460d      	mov	r5, r1
10007388:	b118      	cbz	r0, 10007392 <tu_fifo_set_overwritable+0x12>
1000738a:	f04f 31ff 	mov.w	r1, #4294967295	@ 0xffffffff
1000738e:	f001 f9db 	bl	10008748 <__mutex_enter_timeout_ms_veneer>
10007392:	6920      	ldr	r0, [r4, #16]
10007394:	b118      	cbz	r0, 1000739e <tu_fifo_set_overwritable+0x1e>
10007396:	f04f 31ff 	mov.w	r1, #4294967295	@ 0xffffffff
1000739a:	f001 f9d5 	bl	10008748 <__mutex_enter_timeout_ms_veneer>
1000739e:	79e3      	ldrb	r3, [r4, #7]
100073a0:	68e0      	ldr	r0, [r4, #12]
100073a2:	f365 13c7 	bfi	r3, r5, #7, #1
100073a6:	71e3      	strb	r3, [r4, #7]
100073a8:	b108      	cbz	r0, 100073ae <tu_fifo_set_overwritable+0x2e>
100073aa:	f001 f9dd 	bl	10008768 <__mutex_exit_veneer>
100073ae:	6920      	ldr	r0, [r4, #16]
100073b0:	b108      	cbz	r0, 100073b6 <tu_fifo_set_overwritable+0x36>
100073b2:	f001 f9d9 	bl	10008768 <__mutex_exit_veneer>
100073b6:	2001      	movs	r0, #1
100073b8:	bd38      	pop	{r3, r4, r5, pc}
100073ba:	bf00      	nop

100073bc <adc_init>:
100073bc:	2301      	movs	r3, #1
100073be:	4807      	ldr	r0, [pc, #28]	@ (100073dc <adc_init+0x20>)
100073c0:	4907      	ldr	r1, [pc, #28]	@ (100073e0 <adc_init+0x24>)
100073c2:	4a08      	ldr	r2, [pc, #32]	@ (100073e4 <adc_init+0x28>)
100073c4:	6003      	str	r3, [r0, #0]
100073c6:	600b      	str	r3, [r1, #0]
100073c8:	6893      	ldr	r3, [r2, #8]
100073ca:	07d9      	lsls	r1, r3, #31
100073cc:	d5fc      	bpl.n	100073c8 <adc_init+0xc>
100073ce:	2301      	movs	r3, #1
100073d0:	4a05      	ldr	r2, [pc, #20]	@ (100073e8 <adc_init+0x2c>)
100073d2:	6013      	str	r3, [r2, #0]
100073d4:	6813      	ldr	r3, [r2, #0]
100073d6:	05db      	lsls	r3, r3, #23
100073d8:	d5fc      	bpl.n	100073d4 <adc_init+0x18>
100073da:	4770      	bx	lr
100073dc:	40022000 	.word	0x40022000
100073e0:	40023000 	.word	0x40023000
100073e4:	40020000 	.word	0x40020000
100073e8:	400a0000 	.word	0x400a0000

100073ec <core1_trampoline>:
100073ec:	bd03      	pop	{r0, r1, pc}
100073ee:	bf00      	nop

100073f0 <core1_wrapper>:
100073f0:	b510      	push	{r4, lr}
100073f2:	4604      	mov	r4, r0
100073f4:	f7fa fa64 	bl	100018c0 <runtime_run_per_core_initializers>
100073f8:	4623      	mov	r3, r4
100073fa:	e8bd 4010 	ldmia.w	sp!, {r4, lr}
100073fe:	4718      	bx	r3

10007400 <multicore_launch_core1_raw>:
10007400:	b5f0      	push	{r4, r5, r6, r7, lr}
10007402:	4605      	mov	r5, r0
10007404:	b087      	sub	sp, #28
10007406:	2019      	movs	r0, #25
10007408:	4617      	mov	r7, r2
1000740a:	460e      	mov	r6, r1
1000740c:	f7f9 fa52 	bl	100008b4 <irq_is_enabled>
10007410:	2100      	movs	r1, #0
10007412:	4604      	mov	r4, r0
10007414:	2019      	movs	r0, #25
10007416:	f7f9 fa37 	bl	10000888 <irq_set_enabled>
1000741a:	2100      	movs	r1, #0
1000741c:	e9cd 6504 	strd	r6, r5, [sp, #16]
10007420:	9703      	str	r7, [sp, #12]
10007422:	2600      	movs	r6, #0
10007424:	2700      	movs	r7, #0
10007426:	2201      	movs	r2, #1
10007428:	f04f 4350 	mov.w	r3, #3489660928	@ 0xd0000000
1000742c:	468c      	mov	ip, r1
1000742e:	e9cd 6700 	strd	r6, r7, [sp]
10007432:	9202      	str	r2, [sp, #8]
10007434:	b1a9      	cbz	r1, 10007462 <multicore_launch_core1_raw+0x62>
10007436:	6d1a      	ldr	r2, [r3, #80]	@ 0x50
10007438:	0795      	lsls	r5, r2, #30
1000743a:	d5fc      	bpl.n	10007436 <multicore_launch_core1_raw+0x36>
1000743c:	6559      	str	r1, [r3, #84]	@ 0x54
1000743e:	bf40      	sev
10007440:	6d1a      	ldr	r2, [r3, #80]	@ 0x50
10007442:	07d0      	lsls	r0, r2, #31
10007444:	d403      	bmi.n	1000744e <multicore_launch_core1_raw+0x4e>
10007446:	bf20      	wfe
10007448:	6d1a      	ldr	r2, [r3, #80]	@ 0x50
1000744a:	07d2      	lsls	r2, r2, #31
1000744c:	d5fb      	bpl.n	10007446 <multicore_launch_core1_raw+0x46>
1000744e:	6d9a      	ldr	r2, [r3, #88]	@ 0x58
10007450:	428a      	cmp	r2, r1
10007452:	d00b      	beq.n	1000746c <multicore_launch_core1_raw+0x6c>
10007454:	f04f 0c00 	mov.w	ip, #0
10007458:	eb0d 028c 	add.w	r2, sp, ip, lsl #2
1000745c:	6811      	ldr	r1, [r2, #0]
1000745e:	e7e9      	b.n	10007434 <multicore_launch_core1_raw+0x34>
10007460:	6d9a      	ldr	r2, [r3, #88]	@ 0x58
10007462:	6d1a      	ldr	r2, [r3, #80]	@ 0x50
10007464:	07d6      	lsls	r6, r2, #31
10007466:	d4fb      	bmi.n	10007460 <multicore_launch_core1_raw+0x60>
10007468:	bf40      	sev
1000746a:	e7e4      	b.n	10007436 <multicore_launch_core1_raw+0x36>
1000746c:	f10c 0c01 	add.w	ip, ip, #1
10007470:	f1bc 0f06 	cmp.w	ip, #6
10007474:	d1f0      	bne.n	10007458 <multicore_launch_core1_raw+0x58>
10007476:	4621      	mov	r1, r4
10007478:	2019      	movs	r0, #25
1000747a:	b007      	add	sp, #28
1000747c:	e8bd 40f0 	ldmia.w	sp!, {r4, r5, r6, r7, lr}
10007480:	f7f9 ba02 	b.w	10000888 <irq_set_enabled>

10007484 <multicore_launch_core1>:
10007484:	4b0c      	ldr	r3, [pc, #48]	@ (100074b8 <multicore_launch_core1+0x34>)
10007486:	4a0d      	ldr	r2, [pc, #52]	@ (100074bc <multicore_launch_core1+0x38>)
10007488:	4293      	cmp	r3, r2
1000748a:	d30e      	bcc.n	100074aa <multicore_launch_core1+0x26>
1000748c:	469c      	mov	ip, r3
1000748e:	f203 71f4 	addw	r1, r3, #2036	@ 0x7f4
10007492:	4a0b      	ldr	r2, [pc, #44]	@ (100074c0 <multicore_launch_core1+0x3c>)
10007494:	6892      	ldr	r2, [r2, #8]
10007496:	f8cc 07f4 	str.w	r0, [ip, #2036]	@ 0x7f4
1000749a:	480a      	ldr	r0, [pc, #40]	@ (100074c4 <multicore_launch_core1+0x40>)
1000749c:	f8cc 37f8 	str.w	r3, [ip, #2040]	@ 0x7f8
100074a0:	f8cc 07fc 	str.w	r0, [ip, #2044]	@ 0x7fc
100074a4:	4808      	ldr	r0, [pc, #32]	@ (100074c8 <multicore_launch_core1+0x44>)
100074a6:	f7ff bfab 	b.w	10007400 <multicore_launch_core1_raw>
100074aa:	f04f 33ff 	mov.w	r3, #4294967295	@ 0xffffffff
100074ae:	f240 71f3 	movw	r1, #2035	@ 0x7f3
100074b2:	469c      	mov	ip, r3
100074b4:	e7ed      	b.n	10007492 <multicore_launch_core1+0xe>
100074b6:	bf00      	nop
100074b8:	20080800 	.word	0x20080800
100074bc:	20080000 	.word	0x20080000
100074c0:	e000ed00 	.word	0xe000ed00
100074c4:	100073f1 	.word	0x100073f1
100074c8:	100073ed 	.word	0x100073ed

100074cc <malloc>:
100074cc:	4b02      	ldr	r3, [pc, #8]	@ (100074d8 <malloc+0xc>)
100074ce:	4601      	mov	r1, r0
100074d0:	6818      	ldr	r0, [r3, #0]
100074d2:	f000 b803 	b.w	100074dc <_malloc_r>
100074d6:	bf00      	nop
100074d8:	20001ad4 	.word	0x20001ad4

100074dc <_malloc_r>:
100074dc:	f101 030b 	add.w	r3, r1, #11
100074e0:	2b16      	cmp	r3, #22
100074e2:	e92d 4ff0 	stmdb	sp!, {r4, r5, r6, r7, r8, r9, sl, fp, lr}
100074e6:	4607      	mov	r7, r0
100074e8:	b083      	sub	sp, #12
100074ea:	d823      	bhi.n	10007534 <_malloc_r+0x58>
100074ec:	2910      	cmp	r1, #16
100074ee:	f200 80af 	bhi.w	10007650 <_malloc_r+0x174>
100074f2:	f000 faaf 	bl	10007a54 <__malloc_lock>
100074f6:	2510      	movs	r5, #16
100074f8:	2318      	movs	r3, #24
100074fa:	2002      	movs	r0, #2
100074fc:	4eba      	ldr	r6, [pc, #744]	@ (100077e8 <_malloc_r+0x30c>)
100074fe:	4433      	add	r3, r6
10007500:	685c      	ldr	r4, [r3, #4]
10007502:	f1a3 0208 	sub.w	r2, r3, #8
10007506:	4294      	cmp	r4, r2
10007508:	f000 8156 	beq.w	100077b8 <_malloc_r+0x2dc>
1000750c:	6863      	ldr	r3, [r4, #4]
1000750e:	4638      	mov	r0, r7
10007510:	f023 0303 	bic.w	r3, r3, #3
10007514:	e9d4 1202 	ldrd	r1, r2, [r4, #8]
10007518:	4423      	add	r3, r4
1000751a:	60ca      	str	r2, [r1, #12]
1000751c:	6091      	str	r1, [r2, #8]
1000751e:	685a      	ldr	r2, [r3, #4]
10007520:	3408      	adds	r4, #8
10007522:	f042 0201 	orr.w	r2, r2, #1
10007526:	605a      	str	r2, [r3, #4]
10007528:	f000 fa9a 	bl	10007a60 <__malloc_unlock>
1000752c:	4620      	mov	r0, r4
1000752e:	b003      	add	sp, #12
10007530:	e8bd 8ff0 	ldmia.w	sp!, {r4, r5, r6, r7, r8, r9, sl, fp, pc}
10007534:	2b00      	cmp	r3, #0
10007536:	f023 0507 	bic.w	r5, r3, #7
1000753a:	f2c0 8089 	blt.w	10007650 <_malloc_r+0x174>
1000753e:	42a9      	cmp	r1, r5
10007540:	f200 8086 	bhi.w	10007650 <_malloc_r+0x174>
10007544:	f000 fa86 	bl	10007a54 <__malloc_lock>
10007548:	f5b5 7ffc 	cmp.w	r5, #504	@ 0x1f8
1000754c:	f0c0 827b 	bcc.w	10007a46 <_malloc_r+0x56a>
10007550:	0a6b      	lsrs	r3, r5, #9
10007552:	f000 8084 	beq.w	1000765e <_malloc_r+0x182>
10007556:	2b04      	cmp	r3, #4
10007558:	f200 8162 	bhi.w	10007820 <_malloc_r+0x344>
1000755c:	09ab      	lsrs	r3, r5, #6
1000755e:	f103 0039 	add.w	r0, r3, #57	@ 0x39
10007562:	f103 0e38 	add.w	lr, r3, #56	@ 0x38
10007566:	00c3      	lsls	r3, r0, #3
10007568:	4e9f      	ldr	r6, [pc, #636]	@ (100077e8 <_malloc_r+0x30c>)
1000756a:	4433      	add	r3, r6
1000756c:	f1a3 0c08 	sub.w	ip, r3, #8
10007570:	685c      	ldr	r4, [r3, #4]
10007572:	45a4      	cmp	ip, r4
10007574:	d107      	bne.n	10007586 <_malloc_r+0xaa>
10007576:	e00d      	b.n	10007594 <_malloc_r+0xb8>
10007578:	2a00      	cmp	r2, #0
1000757a:	68e1      	ldr	r1, [r4, #12]
1000757c:	f280 8116 	bge.w	100077ac <_malloc_r+0x2d0>
10007580:	458c      	cmp	ip, r1
10007582:	460c      	mov	r4, r1
10007584:	d006      	beq.n	10007594 <_malloc_r+0xb8>
10007586:	6863      	ldr	r3, [r4, #4]
10007588:	f023 0303 	bic.w	r3, r3, #3
1000758c:	1b5a      	subs	r2, r3, r5
1000758e:	2a0f      	cmp	r2, #15
10007590:	ddf2      	ble.n	10007578 <_malloc_r+0x9c>
10007592:	4670      	mov	r0, lr
10007594:	f8df 8268 	ldr.w	r8, [pc, #616]	@ 10007800 <_malloc_r+0x324>
10007598:	6934      	ldr	r4, [r6, #16]
1000759a:	4544      	cmp	r4, r8
1000759c:	f000 80f2 	beq.w	10007784 <_malloc_r+0x2a8>
100075a0:	6863      	ldr	r3, [r4, #4]
100075a2:	f023 0c03 	bic.w	ip, r3, #3
100075a6:	ebac 0305 	sub.w	r3, ip, r5
100075aa:	2b0f      	cmp	r3, #15
100075ac:	f300 8174 	bgt.w	10007898 <_malloc_r+0x3bc>
100075b0:	2b00      	cmp	r3, #0
100075b2:	e9c6 8804 	strd	r8, r8, [r6, #16]
100075b6:	f280 8163 	bge.w	10007880 <_malloc_r+0x3a4>
100075ba:	f5bc 7f00 	cmp.w	ip, #512	@ 0x200
100075be:	f8d6 e004 	ldr.w	lr, [r6, #4]
100075c2:	f080 80ff 	bcs.w	100077c4 <_malloc_r+0x2e8>
100075c6:	ea4f 03dc 	mov.w	r3, ip, lsr #3
100075ca:	2201      	movs	r2, #1
100075cc:	ea4f 1c5c 	mov.w	ip, ip, lsr #5
100075d0:	3301      	adds	r3, #1
100075d2:	fa02 f20c 	lsl.w	r2, r2, ip
100075d6:	f856 1033 	ldr.w	r1, [r6, r3, lsl #3]
100075da:	ea4e 0e02 	orr.w	lr, lr, r2
100075de:	eb06 02c3 	add.w	r2, r6, r3, lsl #3
100075e2:	3a08      	subs	r2, #8
100075e4:	f8c6 e004 	str.w	lr, [r6, #4]
100075e8:	e9c4 1202 	strd	r1, r2, [r4, #8]
100075ec:	f846 4033 	str.w	r4, [r6, r3, lsl #3]
100075f0:	60cc      	str	r4, [r1, #12]
100075f2:	1083      	asrs	r3, r0, #2
100075f4:	f04f 0c01 	mov.w	ip, #1
100075f8:	fa0c fc03 	lsl.w	ip, ip, r3
100075fc:	45f4      	cmp	ip, lr
100075fe:	d834      	bhi.n	1000766a <_malloc_r+0x18e>
10007600:	ea1c 0f0e 	tst.w	ip, lr
10007604:	d107      	bne.n	10007616 <_malloc_r+0x13a>
10007606:	f020 0003 	bic.w	r0, r0, #3
1000760a:	ea4f 0c4c 	mov.w	ip, ip, lsl #1
1000760e:	3004      	adds	r0, #4
10007610:	ea1c 0f0e 	tst.w	ip, lr
10007614:	d0f9      	beq.n	1000760a <_malloc_r+0x12e>
10007616:	eb06 0ac0 	add.w	sl, r6, r0, lsl #3
1000761a:	4681      	mov	r9, r0
1000761c:	46d6      	mov	lr, sl
1000761e:	f8de 300c 	ldr.w	r3, [lr, #12]
10007622:	e00b      	b.n	1000763c <_malloc_r+0x160>
10007624:	685a      	ldr	r2, [r3, #4]
10007626:	461c      	mov	r4, r3
10007628:	68db      	ldr	r3, [r3, #12]
1000762a:	f022 0203 	bic.w	r2, r2, #3
1000762e:	1b51      	subs	r1, r2, r5
10007630:	290f      	cmp	r1, #15
10007632:	f300 8101 	bgt.w	10007838 <_malloc_r+0x35c>
10007636:	2900      	cmp	r1, #0
10007638:	f280 8115 	bge.w	10007866 <_malloc_r+0x38a>
1000763c:	459e      	cmp	lr, r3
1000763e:	d1f1      	bne.n	10007624 <_malloc_r+0x148>
10007640:	f109 0901 	add.w	r9, r9, #1
10007644:	f10e 0e08 	add.w	lr, lr, #8
10007648:	f019 0f03 	tst.w	r9, #3
1000764c:	d1e7      	bne.n	1000761e <_malloc_r+0x142>
1000764e:	e158      	b.n	10007902 <_malloc_r+0x426>
10007650:	230c      	movs	r3, #12
10007652:	603b      	str	r3, [r7, #0]
10007654:	2400      	movs	r4, #0
10007656:	4620      	mov	r0, r4
10007658:	b003      	add	sp, #12
1000765a:	e8bd 8ff0 	ldmia.w	sp!, {r4, r5, r6, r7, r8, r9, sl, fp, pc}
1000765e:	f44f 7300 	mov.w	r3, #512	@ 0x200
10007662:	2040      	movs	r0, #64	@ 0x40
10007664:	f04f 0e3f 	mov.w	lr, #63	@ 0x3f
10007668:	e77e      	b.n	10007568 <_malloc_r+0x8c>
1000766a:	68b4      	ldr	r4, [r6, #8]
1000766c:	6863      	ldr	r3, [r4, #4]
1000766e:	f023 0903 	bic.w	r9, r3, #3
10007672:	45a9      	cmp	r9, r5
10007674:	eba9 0305 	sub.w	r3, r9, r5
10007678:	d302      	bcc.n	10007680 <_malloc_r+0x1a4>
1000767a:	2b0f      	cmp	r3, #15
1000767c:	f300 8085 	bgt.w	1000778a <_malloc_r+0x2ae>
10007680:	4b5a      	ldr	r3, [pc, #360]	@ (100077ec <_malloc_r+0x310>)
10007682:	2008      	movs	r0, #8
10007684:	681b      	ldr	r3, [r3, #0]
10007686:	f103 0810 	add.w	r8, r3, #16
1000768a:	eb04 0309 	add.w	r3, r4, r9
1000768e:	9300      	str	r3, [sp, #0]
10007690:	f000 fc24 	bl	10007edc <sysconf>
10007694:	4a56      	ldr	r2, [pc, #344]	@ (100077f0 <_malloc_r+0x314>)
10007696:	44a8      	add	r8, r5
10007698:	4683      	mov	fp, r0
1000769a:	6813      	ldr	r3, [r2, #0]
1000769c:	3301      	adds	r3, #1
1000769e:	d005      	beq.n	100076ac <_malloc_r+0x1d0>
100076a0:	f108 38ff 	add.w	r8, r8, #4294967295	@ 0xffffffff
100076a4:	4243      	negs	r3, r0
100076a6:	4480      	add	r8, r0
100076a8:	ea03 0808 	and.w	r8, r3, r8
100076ac:	4641      	mov	r1, r8
100076ae:	4638      	mov	r0, r7
100076b0:	f000 fbfc 	bl	10007eac <_sbrk_r>
100076b4:	f1b0 3fff 	cmp.w	r0, #4294967295	@ 0xffffffff
100076b8:	4682      	mov	sl, r0
100076ba:	4a4d      	ldr	r2, [pc, #308]	@ (100077f0 <_malloc_r+0x314>)
100076bc:	f000 8107 	beq.w	100078ce <_malloc_r+0x3f2>
100076c0:	eb04 0309 	add.w	r3, r4, r9
100076c4:	4283      	cmp	r3, r0
100076c6:	f200 8100 	bhi.w	100078ca <_malloc_r+0x3ee>
100076ca:	4b4a      	ldr	r3, [pc, #296]	@ (100077f4 <_malloc_r+0x318>)
100076cc:	f10b 3cff 	add.w	ip, fp, #4294967295	@ 0xffffffff
100076d0:	6818      	ldr	r0, [r3, #0]
100076d2:	4440      	add	r0, r8
100076d4:	6018      	str	r0, [r3, #0]
100076d6:	f000 8164 	beq.w	100079a2 <_malloc_r+0x4c6>
100076da:	6811      	ldr	r1, [r2, #0]
100076dc:	3101      	adds	r1, #1
100076de:	f000 816c 	beq.w	100079ba <_malloc_r+0x4de>
100076e2:	eb04 0209 	add.w	r2, r4, r9
100076e6:	ebaa 0202 	sub.w	r2, sl, r2
100076ea:	4402      	add	r2, r0
100076ec:	601a      	str	r2, [r3, #0]
100076ee:	f01a 0207 	ands.w	r2, sl, #7
100076f2:	e9cd 2300 	strd	r2, r3, [sp]
100076f6:	f000 8127 	beq.w	10007948 <_malloc_r+0x46c>
100076fa:	f1c2 0208 	rsb	r2, r2, #8
100076fe:	4638      	mov	r0, r7
10007700:	4492      	add	sl, r2
10007702:	445a      	add	r2, fp
10007704:	44d0      	add	r8, sl
10007706:	ea08 010c 	and.w	r1, r8, ip
1000770a:	1a52      	subs	r2, r2, r1
1000770c:	ea02 0b0c 	and.w	fp, r2, ip
10007710:	4659      	mov	r1, fp
10007712:	f000 fbcb 	bl	10007eac <_sbrk_r>
10007716:	1c42      	adds	r2, r0, #1
10007718:	9b01      	ldr	r3, [sp, #4]
1000771a:	f000 816a 	beq.w	100079f2 <_malloc_r+0x516>
1000771e:	eba0 000a 	sub.w	r0, r0, sl
10007722:	eb00 080b 	add.w	r8, r0, fp
10007726:	6818      	ldr	r0, [r3, #0]
10007728:	f048 0201 	orr.w	r2, r8, #1
1000772c:	42b4      	cmp	r4, r6
1000772e:	f8c6 a008 	str.w	sl, [r6, #8]
10007732:	4458      	add	r0, fp
10007734:	f8ca 2004 	str.w	r2, [sl, #4]
10007738:	6018      	str	r0, [r3, #0]
1000773a:	d017      	beq.n	1000776c <_malloc_r+0x290>
1000773c:	f1b9 0f0f 	cmp.w	r9, #15
10007740:	f240 813e 	bls.w	100079c0 <_malloc_r+0x4e4>
10007744:	6861      	ldr	r1, [r4, #4]
10007746:	f1a9 020c 	sub.w	r2, r9, #12
1000774a:	f04f 0c05 	mov.w	ip, #5
1000774e:	f022 0207 	bic.w	r2, r2, #7
10007752:	f001 0101 	and.w	r1, r1, #1
10007756:	4311      	orrs	r1, r2
10007758:	2a0f      	cmp	r2, #15
1000775a:	6061      	str	r1, [r4, #4]
1000775c:	eb04 0102 	add.w	r1, r4, r2
10007760:	e9c1 cc01 	strd	ip, ip, [r1, #4]
10007764:	f200 814d 	bhi.w	10007a02 <_malloc_r+0x526>
10007768:	f8da 2004 	ldr.w	r2, [sl, #4]
1000776c:	4b22      	ldr	r3, [pc, #136]	@ (100077f8 <_malloc_r+0x31c>)
1000776e:	4654      	mov	r4, sl
10007770:	6819      	ldr	r1, [r3, #0]
10007772:	4281      	cmp	r1, r0
10007774:	bf38      	it	cc
10007776:	6018      	strcc	r0, [r3, #0]
10007778:	4b20      	ldr	r3, [pc, #128]	@ (100077fc <_malloc_r+0x320>)
1000777a:	6819      	ldr	r1, [r3, #0]
1000777c:	4281      	cmp	r1, r0
1000777e:	bf38      	it	cc
10007780:	6018      	strcc	r0, [r3, #0]
10007782:	e0a6      	b.n	100078d2 <_malloc_r+0x3f6>
10007784:	f8d6 e004 	ldr.w	lr, [r6, #4]
10007788:	e733      	b.n	100075f2 <_malloc_r+0x116>
1000778a:	1962      	adds	r2, r4, r5
1000778c:	f045 0501 	orr.w	r5, r5, #1
10007790:	f043 0301 	orr.w	r3, r3, #1
10007794:	3408      	adds	r4, #8
10007796:	f844 5c04 	str.w	r5, [r4, #-4]
1000779a:	4638      	mov	r0, r7
1000779c:	60b2      	str	r2, [r6, #8]
1000779e:	6053      	str	r3, [r2, #4]
100077a0:	f000 f95e 	bl	10007a60 <__malloc_unlock>
100077a4:	4620      	mov	r0, r4
100077a6:	b003      	add	sp, #12
100077a8:	e8bd 8ff0 	ldmia.w	sp!, {r4, r5, r6, r7, r8, r9, sl, fp, pc}
100077ac:	68a2      	ldr	r2, [r4, #8]
100077ae:	4423      	add	r3, r4
100077b0:	4638      	mov	r0, r7
100077b2:	60d1      	str	r1, [r2, #12]
100077b4:	608a      	str	r2, [r1, #8]
100077b6:	e6b2      	b.n	1000751e <_malloc_r+0x42>
100077b8:	68dc      	ldr	r4, [r3, #12]
100077ba:	42a3      	cmp	r3, r4
100077bc:	f47f aea6 	bne.w	1000750c <_malloc_r+0x30>
100077c0:	3002      	adds	r0, #2
100077c2:	e6e7      	b.n	10007594 <_malloc_r+0xb8>
100077c4:	f5bc 6f20 	cmp.w	ip, #2560	@ 0xa00
100077c8:	ea4f 225c 	mov.w	r2, ip, lsr #9
100077cc:	d376      	bcc.n	100078bc <_malloc_r+0x3e0>
100077ce:	2a14      	cmp	r2, #20
100077d0:	f200 80cd 	bhi.w	1000796e <_malloc_r+0x492>
100077d4:	f102 035c 	add.w	r3, r2, #92	@ 0x5c
100077d8:	325b      	adds	r2, #91	@ 0x5b
100077da:	00db      	lsls	r3, r3, #3
100077dc:	18f1      	adds	r1, r6, r3
100077de:	58f3      	ldr	r3, [r6, r3]
100077e0:	3908      	subs	r1, #8
100077e2:	4299      	cmp	r1, r3
100077e4:	d111      	bne.n	1000780a <_malloc_r+0x32e>
100077e6:	e0a5      	b.n	10007934 <_malloc_r+0x458>
100077e8:	200016c0 	.word	0x200016c0
100077ec:	20001e20 	.word	0x20001e20
100077f0:	200016b4 	.word	0x200016b4
100077f4:	20001df0 	.word	0x20001df0
100077f8:	20001e18 	.word	0x20001e18
100077fc:	20001e1c 	.word	0x20001e1c
10007800:	200016c8 	.word	0x200016c8
10007804:	689b      	ldr	r3, [r3, #8]
10007806:	4299      	cmp	r1, r3
10007808:	d004      	beq.n	10007814 <_malloc_r+0x338>
1000780a:	685a      	ldr	r2, [r3, #4]
1000780c:	f022 0203 	bic.w	r2, r2, #3
10007810:	4562      	cmp	r2, ip
10007812:	d8f7      	bhi.n	10007804 <_malloc_r+0x328>
10007814:	68d9      	ldr	r1, [r3, #12]
10007816:	e9c4 3102 	strd	r3, r1, [r4, #8]
1000781a:	608c      	str	r4, [r1, #8]
1000781c:	60dc      	str	r4, [r3, #12]
1000781e:	e6e8      	b.n	100075f2 <_malloc_r+0x116>
10007820:	2b14      	cmp	r3, #20
10007822:	d963      	bls.n	100078ec <_malloc_r+0x410>
10007824:	2b54      	cmp	r3, #84	@ 0x54
10007826:	f200 80ab 	bhi.w	10007980 <_malloc_r+0x4a4>
1000782a:	0b2b      	lsrs	r3, r5, #12
1000782c:	f103 006f 	add.w	r0, r3, #111	@ 0x6f
10007830:	f103 0e6e 	add.w	lr, r3, #110	@ 0x6e
10007834:	00c3      	lsls	r3, r0, #3
10007836:	e697      	b.n	10007568 <_malloc_r+0x8c>
10007838:	f8d4 c008 	ldr.w	ip, [r4, #8]
1000783c:	4638      	mov	r0, r7
1000783e:	1967      	adds	r7, r4, r5
10007840:	f045 0501 	orr.w	r5, r5, #1
10007844:	6065      	str	r5, [r4, #4]
10007846:	f8cc 300c 	str.w	r3, [ip, #12]
1000784a:	f8c3 c008 	str.w	ip, [r3, #8]
1000784e:	f041 0301 	orr.w	r3, r1, #1
10007852:	e9c6 7704 	strd	r7, r7, [r6, #16]
10007856:	e9c7 8802 	strd	r8, r8, [r7, #8]
1000785a:	607b      	str	r3, [r7, #4]
1000785c:	50a1      	str	r1, [r4, r2]
1000785e:	3408      	adds	r4, #8
10007860:	f000 f8fe 	bl	10007a60 <__malloc_unlock>
10007864:	e6f7      	b.n	10007656 <_malloc_r+0x17a>
10007866:	4422      	add	r2, r4
10007868:	4638      	mov	r0, r7
1000786a:	6851      	ldr	r1, [r2, #4]
1000786c:	f041 0101 	orr.w	r1, r1, #1
10007870:	6051      	str	r1, [r2, #4]
10007872:	f854 2f08 	ldr.w	r2, [r4, #8]!
10007876:	60d3      	str	r3, [r2, #12]
10007878:	609a      	str	r2, [r3, #8]
1000787a:	f000 f8f1 	bl	10007a60 <__malloc_unlock>
1000787e:	e6ea      	b.n	10007656 <_malloc_r+0x17a>
10007880:	44a4      	add	ip, r4
10007882:	4638      	mov	r0, r7
10007884:	3408      	adds	r4, #8
10007886:	f8dc 3004 	ldr.w	r3, [ip, #4]
1000788a:	f043 0301 	orr.w	r3, r3, #1
1000788e:	f8cc 3004 	str.w	r3, [ip, #4]
10007892:	f000 f8e5 	bl	10007a60 <__malloc_unlock>
10007896:	e6de      	b.n	10007656 <_malloc_r+0x17a>
10007898:	1962      	adds	r2, r4, r5
1000789a:	f043 0101 	orr.w	r1, r3, #1
1000789e:	f045 0501 	orr.w	r5, r5, #1
100078a2:	4638      	mov	r0, r7
100078a4:	6065      	str	r5, [r4, #4]
100078a6:	e9c6 2204 	strd	r2, r2, [r6, #16]
100078aa:	e9c2 8802 	strd	r8, r8, [r2, #8]
100078ae:	6051      	str	r1, [r2, #4]
100078b0:	f844 300c 	str.w	r3, [r4, ip]
100078b4:	3408      	adds	r4, #8
100078b6:	f000 f8d3 	bl	10007a60 <__malloc_unlock>
100078ba:	e6cc      	b.n	10007656 <_malloc_r+0x17a>
100078bc:	ea4f 129c 	mov.w	r2, ip, lsr #6
100078c0:	f102 0339 	add.w	r3, r2, #57	@ 0x39
100078c4:	3238      	adds	r2, #56	@ 0x38
100078c6:	00db      	lsls	r3, r3, #3
100078c8:	e788      	b.n	100077dc <_malloc_r+0x300>
100078ca:	42b4      	cmp	r4, r6
100078cc:	d062      	beq.n	10007994 <_malloc_r+0x4b8>
100078ce:	68b4      	ldr	r4, [r6, #8]
100078d0:	6862      	ldr	r2, [r4, #4]
100078d2:	f022 0803 	bic.w	r8, r2, #3
100078d6:	45a8      	cmp	r8, r5
100078d8:	eba8 0305 	sub.w	r3, r8, r5
100078dc:	d302      	bcc.n	100078e4 <_malloc_r+0x408>
100078de:	2b0f      	cmp	r3, #15
100078e0:	f73f af53 	bgt.w	1000778a <_malloc_r+0x2ae>
100078e4:	4638      	mov	r0, r7
100078e6:	f000 f8bb 	bl	10007a60 <__malloc_unlock>
100078ea:	e6b3      	b.n	10007654 <_malloc_r+0x178>
100078ec:	f103 005c 	add.w	r0, r3, #92	@ 0x5c
100078f0:	f103 0e5b 	add.w	lr, r3, #91	@ 0x5b
100078f4:	00c3      	lsls	r3, r0, #3
100078f6:	e637      	b.n	10007568 <_malloc_r+0x8c>
100078f8:	f85a 3908 	ldr.w	r3, [sl], #-8
100078fc:	4553      	cmp	r3, sl
100078fe:	f040 80a0 	bne.w	10007a42 <_malloc_r+0x566>
10007902:	f010 0f03 	tst.w	r0, #3
10007906:	f100 30ff 	add.w	r0, r0, #4294967295	@ 0xffffffff
1000790a:	d1f5      	bne.n	100078f8 <_malloc_r+0x41c>
1000790c:	6873      	ldr	r3, [r6, #4]
1000790e:	ea23 030c 	bic.w	r3, r3, ip
10007912:	6073      	str	r3, [r6, #4]
10007914:	ea4f 0c4c 	mov.w	ip, ip, lsl #1
10007918:	f10c 32ff 	add.w	r2, ip, #4294967295	@ 0xffffffff
1000791c:	429a      	cmp	r2, r3
1000791e:	d304      	bcc.n	1000792a <_malloc_r+0x44e>
10007920:	e6a3      	b.n	1000766a <_malloc_r+0x18e>
10007922:	ea4f 0c4c 	mov.w	ip, ip, lsl #1
10007926:	f109 0904 	add.w	r9, r9, #4
1000792a:	ea1c 0f03 	tst.w	ip, r3
1000792e:	d0f8      	beq.n	10007922 <_malloc_r+0x446>
10007930:	4648      	mov	r0, r9
10007932:	e670      	b.n	10007616 <_malloc_r+0x13a>
10007934:	1092      	asrs	r2, r2, #2
10007936:	f04f 0c01 	mov.w	ip, #1
1000793a:	fa0c f202 	lsl.w	r2, ip, r2
1000793e:	ea4e 0e02 	orr.w	lr, lr, r2
10007942:	f8c6 e004 	str.w	lr, [r6, #4]
10007946:	e766      	b.n	10007816 <_malloc_r+0x33a>
10007948:	eb0a 0208 	add.w	r2, sl, r8
1000794c:	4638      	mov	r0, r7
1000794e:	ea02 020c 	and.w	r2, r2, ip
10007952:	ebab 0b02 	sub.w	fp, fp, r2
10007956:	ea0b 0b0c 	and.w	fp, fp, ip
1000795a:	4659      	mov	r1, fp
1000795c:	f000 faa6 	bl	10007eac <_sbrk_r>
10007960:	1c43      	adds	r3, r0, #1
10007962:	9b01      	ldr	r3, [sp, #4]
10007964:	f47f aedb 	bne.w	1000771e <_malloc_r+0x242>
10007968:	f8dd b000 	ldr.w	fp, [sp]
1000796c:	e6db      	b.n	10007726 <_malloc_r+0x24a>
1000796e:	2a54      	cmp	r2, #84	@ 0x54
10007970:	d82a      	bhi.n	100079c8 <_malloc_r+0x4ec>
10007972:	ea4f 321c 	mov.w	r2, ip, lsr #12
10007976:	f102 036f 	add.w	r3, r2, #111	@ 0x6f
1000797a:	326e      	adds	r2, #110	@ 0x6e
1000797c:	00db      	lsls	r3, r3, #3
1000797e:	e72d      	b.n	100077dc <_malloc_r+0x300>
10007980:	f5b3 7faa 	cmp.w	r3, #340	@ 0x154
10007984:	d82a      	bhi.n	100079dc <_malloc_r+0x500>
10007986:	0beb      	lsrs	r3, r5, #15
10007988:	f103 0078 	add.w	r0, r3, #120	@ 0x78
1000798c:	f103 0e77 	add.w	lr, r3, #119	@ 0x77
10007990:	00c3      	lsls	r3, r0, #3
10007992:	e5e9      	b.n	10007568 <_malloc_r+0x8c>
10007994:	4b2e      	ldr	r3, [pc, #184]	@ (10007a50 <_malloc_r+0x574>)
10007996:	f10b 3cff 	add.w	ip, fp, #4294967295	@ 0xffffffff
1000799a:	6818      	ldr	r0, [r3, #0]
1000799c:	4440      	add	r0, r8
1000799e:	6018      	str	r0, [r3, #0]
100079a0:	e69b      	b.n	100076da <_malloc_r+0x1fe>
100079a2:	ea1a 0f0c 	tst.w	sl, ip
100079a6:	f47f ae98 	bne.w	100076da <_malloc_r+0x1fe>
100079aa:	44c8      	add	r8, r9
100079ac:	f8d6 a008 	ldr.w	sl, [r6, #8]
100079b0:	f048 0201 	orr.w	r2, r8, #1
100079b4:	f8ca 2004 	str.w	r2, [sl, #4]
100079b8:	e6d8      	b.n	1000776c <_malloc_r+0x290>
100079ba:	f8c2 a000 	str.w	sl, [r2]
100079be:	e696      	b.n	100076ee <_malloc_r+0x212>
100079c0:	2301      	movs	r3, #1
100079c2:	f8ca 3004 	str.w	r3, [sl, #4]
100079c6:	e78d      	b.n	100078e4 <_malloc_r+0x408>
100079c8:	f5b2 7faa 	cmp.w	r2, #340	@ 0x154
100079cc:	d824      	bhi.n	10007a18 <_malloc_r+0x53c>
100079ce:	ea4f 32dc 	mov.w	r2, ip, lsr #15
100079d2:	f102 0378 	add.w	r3, r2, #120	@ 0x78
100079d6:	3277      	adds	r2, #119	@ 0x77
100079d8:	00db      	lsls	r3, r3, #3
100079da:	e6ff      	b.n	100077dc <_malloc_r+0x300>
100079dc:	f240 5254 	movw	r2, #1364	@ 0x554
100079e0:	4293      	cmp	r3, r2
100079e2:	d824      	bhi.n	10007a2e <_malloc_r+0x552>
100079e4:	0cab      	lsrs	r3, r5, #18
100079e6:	f103 007d 	add.w	r0, r3, #125	@ 0x7d
100079ea:	f103 0e7c 	add.w	lr, r3, #124	@ 0x7c
100079ee:	00c3      	lsls	r3, r0, #3
100079f0:	e5ba      	b.n	10007568 <_malloc_r+0x8c>
100079f2:	9a00      	ldr	r2, [sp, #0]
100079f4:	f04f 0b00 	mov.w	fp, #0
100079f8:	3a08      	subs	r2, #8
100079fa:	4490      	add	r8, r2
100079fc:	eba8 080a 	sub.w	r8, r8, sl
10007a00:	e691      	b.n	10007726 <_malloc_r+0x24a>
10007a02:	4638      	mov	r0, r7
10007a04:	f104 0108 	add.w	r1, r4, #8
10007a08:	9300      	str	r3, [sp, #0]
10007a0a:	f000 fb7d 	bl	10008108 <_free_r>
10007a0e:	9b00      	ldr	r3, [sp, #0]
10007a10:	f8d6 a008 	ldr.w	sl, [r6, #8]
10007a14:	6818      	ldr	r0, [r3, #0]
10007a16:	e6a7      	b.n	10007768 <_malloc_r+0x28c>
10007a18:	f240 5354 	movw	r3, #1364	@ 0x554
10007a1c:	429a      	cmp	r2, r3
10007a1e:	d80c      	bhi.n	10007a3a <_malloc_r+0x55e>
10007a20:	ea4f 429c 	mov.w	r2, ip, lsr #18
10007a24:	f102 037d 	add.w	r3, r2, #125	@ 0x7d
10007a28:	327c      	adds	r2, #124	@ 0x7c
10007a2a:	00db      	lsls	r3, r3, #3
10007a2c:	e6d6      	b.n	100077dc <_malloc_r+0x300>
10007a2e:	f44f 737e 	mov.w	r3, #1016	@ 0x3f8
10007a32:	207f      	movs	r0, #127	@ 0x7f
10007a34:	f04f 0e7e 	mov.w	lr, #126	@ 0x7e
10007a38:	e596      	b.n	10007568 <_malloc_r+0x8c>
10007a3a:	f44f 737e 	mov.w	r3, #1016	@ 0x3f8
10007a3e:	227e      	movs	r2, #126	@ 0x7e
10007a40:	e6cc      	b.n	100077dc <_malloc_r+0x300>
10007a42:	6873      	ldr	r3, [r6, #4]
10007a44:	e766      	b.n	10007914 <_malloc_r+0x438>
10007a46:	08e8      	lsrs	r0, r5, #3
10007a48:	f105 0308 	add.w	r3, r5, #8
10007a4c:	e556      	b.n	100074fc <_malloc_r+0x20>
10007a4e:	bf00      	nop
10007a50:	20001df0 	.word	0x20001df0

10007a54 <__malloc_lock>:
10007a54:	4801      	ldr	r0, [pc, #4]	@ (10007a5c <__malloc_lock+0x8>)
10007a56:	f000 ba53 	b.w	10007f00 <__retarget_lock_acquire_recursive>
10007a5a:	bf00      	nop
10007a5c:	20001de8 	.word	0x20001de8

10007a60 <__malloc_unlock>:
10007a60:	4801      	ldr	r0, [pc, #4]	@ (10007a68 <__malloc_unlock+0x8>)
10007a62:	f000 ba4f 	b.w	10007f04 <__retarget_lock_release_recursive>
10007a66:	bf00      	nop
10007a68:	20001de8 	.word	0x20001de8

10007a6c <setvbuf>:
10007a6c:	e92d 41f0 	stmdb	sp!, {r4, r5, r6, r7, r8, lr}
10007a70:	4c65      	ldr	r4, [pc, #404]	@ (10007c08 <setvbuf+0x19c>)
10007a72:	b084      	sub	sp, #16
10007a74:	460e      	mov	r6, r1
10007a76:	4617      	mov	r7, r2
10007a78:	f8d4 8000 	ldr.w	r8, [r4]
10007a7c:	461d      	mov	r5, r3
10007a7e:	4604      	mov	r4, r0
10007a80:	f1b8 0f00 	cmp.w	r8, #0
10007a84:	d004      	beq.n	10007a90 <setvbuf+0x24>
10007a86:	f8d8 3034 	ldr.w	r3, [r8, #52]	@ 0x34
10007a8a:	2b00      	cmp	r3, #0
10007a8c:	f000 80a4 	beq.w	10007bd8 <setvbuf+0x16c>
10007a90:	2f02      	cmp	r7, #2
10007a92:	d005      	beq.n	10007aa0 <setvbuf+0x34>
10007a94:	2f01      	cmp	r7, #1
10007a96:	f200 80a3 	bhi.w	10007be0 <setvbuf+0x174>
10007a9a:	2d00      	cmp	r5, #0
10007a9c:	f2c0 80a0 	blt.w	10007be0 <setvbuf+0x174>
10007aa0:	6e63      	ldr	r3, [r4, #100]	@ 0x64
10007aa2:	07db      	lsls	r3, r3, #31
10007aa4:	d53c      	bpl.n	10007b20 <setvbuf+0xb4>
10007aa6:	4621      	mov	r1, r4
10007aa8:	4640      	mov	r0, r8
10007aaa:	f000 fd6d 	bl	10008588 <_fflush_r>
10007aae:	6b21      	ldr	r1, [r4, #48]	@ 0x30
10007ab0:	b141      	cbz	r1, 10007ac4 <setvbuf+0x58>
10007ab2:	f104 0340 	add.w	r3, r4, #64	@ 0x40
10007ab6:	4299      	cmp	r1, r3
10007ab8:	d002      	beq.n	10007ac0 <setvbuf+0x54>
10007aba:	4640      	mov	r0, r8
10007abc:	f000 fb24 	bl	10008108 <_free_r>
10007ac0:	2300      	movs	r3, #0
10007ac2:	6323      	str	r3, [r4, #48]	@ 0x30
10007ac4:	f9b4 200c 	ldrsh.w	r2, [r4, #12]
10007ac8:	2300      	movs	r3, #0
10007aca:	0611      	lsls	r1, r2, #24
10007acc:	61a3      	str	r3, [r4, #24]
10007ace:	6063      	str	r3, [r4, #4]
10007ad0:	d456      	bmi.n	10007b80 <setvbuf+0x114>
10007ad2:	4b4e      	ldr	r3, [pc, #312]	@ (10007c0c <setvbuf+0x1a0>)
10007ad4:	2f02      	cmp	r7, #2
10007ad6:	ea03 0302 	and.w	r3, r3, r2
10007ada:	81a3      	strh	r3, [r4, #12]
10007adc:	d05c      	beq.n	10007b98 <setvbuf+0x12c>
10007ade:	ab03      	add	r3, sp, #12
10007ae0:	aa02      	add	r2, sp, #8
10007ae2:	4621      	mov	r1, r4
10007ae4:	4640      	mov	r0, r8
10007ae6:	f000 fc25 	bl	10008334 <__swhatbuf_r>
10007aea:	89a3      	ldrh	r3, [r4, #12]
10007aec:	4318      	orrs	r0, r3
10007aee:	81a0      	strh	r0, [r4, #12]
10007af0:	b1ed      	cbz	r5, 10007b2e <setvbuf+0xc2>
10007af2:	b1ee      	cbz	r6, 10007b30 <setvbuf+0xc4>
10007af4:	f8d8 3034 	ldr.w	r3, [r8, #52]	@ 0x34
10007af8:	b343      	cbz	r3, 10007b4c <setvbuf+0xe0>
10007afa:	9a02      	ldr	r2, [sp, #8]
10007afc:	f9b4 300c 	ldrsh.w	r3, [r4, #12]
10007b00:	42aa      	cmp	r2, r5
10007b02:	d002      	beq.n	10007b0a <setvbuf+0x9e>
10007b04:	f443 6300 	orr.w	r3, r3, #2048	@ 0x800
10007b08:	81a3      	strh	r3, [r4, #12]
10007b0a:	2f01      	cmp	r7, #1
10007b0c:	d022      	beq.n	10007b54 <setvbuf+0xe8>
10007b0e:	0718      	lsls	r0, r3, #28
10007b10:	6026      	str	r6, [r4, #0]
10007b12:	e9c4 6504 	strd	r6, r5, [r4, #16]
10007b16:	d527      	bpl.n	10007b68 <setvbuf+0xfc>
10007b18:	07d9      	lsls	r1, r3, #31
10007b1a:	d452      	bmi.n	10007bc2 <setvbuf+0x156>
10007b1c:	60a5      	str	r5, [r4, #8]
10007b1e:	e025      	b.n	10007b6c <setvbuf+0x100>
10007b20:	89a3      	ldrh	r3, [r4, #12]
10007b22:	0598      	lsls	r0, r3, #22
10007b24:	d4bf      	bmi.n	10007aa6 <setvbuf+0x3a>
10007b26:	6da0      	ldr	r0, [r4, #88]	@ 0x58
10007b28:	f000 f9ea 	bl	10007f00 <__retarget_lock_acquire_recursive>
10007b2c:	e7bb      	b.n	10007aa6 <setvbuf+0x3a>
10007b2e:	9d02      	ldr	r5, [sp, #8]
10007b30:	4628      	mov	r0, r5
10007b32:	f7fb fa51 	bl	10002fd8 <__wrap_malloc>
10007b36:	4606      	mov	r6, r0
10007b38:	2800      	cmp	r0, #0
10007b3a:	d054      	beq.n	10007be6 <setvbuf+0x17a>
10007b3c:	89a3      	ldrh	r3, [r4, #12]
10007b3e:	f043 0380 	orr.w	r3, r3, #128	@ 0x80
10007b42:	81a3      	strh	r3, [r4, #12]
10007b44:	f8d8 3034 	ldr.w	r3, [r8, #52]	@ 0x34
10007b48:	2b00      	cmp	r3, #0
10007b4a:	d1d6      	bne.n	10007afa <setvbuf+0x8e>
10007b4c:	4640      	mov	r0, r8
10007b4e:	f000 f903 	bl	10007d58 <__sinit>
10007b52:	e7d2      	b.n	10007afa <setvbuf+0x8e>
10007b54:	f043 0201 	orr.w	r2, r3, #1
10007b58:	6026      	str	r6, [r4, #0]
10007b5a:	b212      	sxth	r2, r2
10007b5c:	e9c4 6504 	strd	r6, r5, [r4, #16]
10007b60:	071e      	lsls	r6, r3, #28
10007b62:	81a2      	strh	r2, [r4, #12]
10007b64:	d42e      	bmi.n	10007bc4 <setvbuf+0x158>
10007b66:	4613      	mov	r3, r2
10007b68:	2200      	movs	r2, #0
10007b6a:	60a2      	str	r2, [r4, #8]
10007b6c:	6e62      	ldr	r2, [r4, #100]	@ 0x64
10007b6e:	07d2      	lsls	r2, r2, #31
10007b70:	d401      	bmi.n	10007b76 <setvbuf+0x10a>
10007b72:	059b      	lsls	r3, r3, #22
10007b74:	d52c      	bpl.n	10007bd0 <setvbuf+0x164>
10007b76:	2500      	movs	r5, #0
10007b78:	4628      	mov	r0, r5
10007b7a:	b004      	add	sp, #16
10007b7c:	e8bd 81f0 	ldmia.w	sp!, {r4, r5, r6, r7, r8, pc}
10007b80:	6921      	ldr	r1, [r4, #16]
10007b82:	4640      	mov	r0, r8
10007b84:	f000 fac0 	bl	10008108 <_free_r>
10007b88:	f9b4 200c 	ldrsh.w	r2, [r4, #12]
10007b8c:	4b1f      	ldr	r3, [pc, #124]	@ (10007c0c <setvbuf+0x1a0>)
10007b8e:	2f02      	cmp	r7, #2
10007b90:	ea03 0302 	and.w	r3, r3, r2
10007b94:	81a3      	strh	r3, [r4, #12]
10007b96:	d1a2      	bne.n	10007ade <setvbuf+0x72>
10007b98:	2500      	movs	r5, #0
10007b9a:	f043 0202 	orr.w	r2, r3, #2
10007b9e:	f104 0143 	add.w	r1, r4, #67	@ 0x43
10007ba2:	2000      	movs	r0, #0
10007ba4:	81a2      	strh	r2, [r4, #12]
10007ba6:	2201      	movs	r2, #1
10007ba8:	6021      	str	r1, [r4, #0]
10007baa:	6162      	str	r2, [r4, #20]
10007bac:	6e62      	ldr	r2, [r4, #100]	@ 0x64
10007bae:	6121      	str	r1, [r4, #16]
10007bb0:	07d2      	lsls	r2, r2, #31
10007bb2:	60a0      	str	r0, [r4, #8]
10007bb4:	d4e0      	bmi.n	10007b78 <setvbuf+0x10c>
10007bb6:	059f      	lsls	r7, r3, #22
10007bb8:	d4de      	bmi.n	10007b78 <setvbuf+0x10c>
10007bba:	6da0      	ldr	r0, [r4, #88]	@ 0x58
10007bbc:	f000 f9a2 	bl	10007f04 <__retarget_lock_release_recursive>
10007bc0:	e7da      	b.n	10007b78 <setvbuf+0x10c>
10007bc2:	461a      	mov	r2, r3
10007bc4:	2100      	movs	r1, #0
10007bc6:	426d      	negs	r5, r5
10007bc8:	4613      	mov	r3, r2
10007bca:	60a1      	str	r1, [r4, #8]
10007bcc:	61a5      	str	r5, [r4, #24]
10007bce:	e7cd      	b.n	10007b6c <setvbuf+0x100>
10007bd0:	6da0      	ldr	r0, [r4, #88]	@ 0x58
10007bd2:	f000 f997 	bl	10007f04 <__retarget_lock_release_recursive>
10007bd6:	e7ce      	b.n	10007b76 <setvbuf+0x10a>
10007bd8:	4640      	mov	r0, r8
10007bda:	f000 f8bd 	bl	10007d58 <__sinit>
10007bde:	e757      	b.n	10007a90 <setvbuf+0x24>
10007be0:	f04f 35ff 	mov.w	r5, #4294967295	@ 0xffffffff
10007be4:	e7c8      	b.n	10007b78 <setvbuf+0x10c>
10007be6:	9b02      	ldr	r3, [sp, #8]
10007be8:	42ab      	cmp	r3, r5
10007bea:	d008      	beq.n	10007bfe <setvbuf+0x192>
10007bec:	4618      	mov	r0, r3
10007bee:	9301      	str	r3, [sp, #4]
10007bf0:	f7fb f9f2 	bl	10002fd8 <__wrap_malloc>
10007bf4:	9b01      	ldr	r3, [sp, #4]
10007bf6:	4606      	mov	r6, r0
10007bf8:	461d      	mov	r5, r3
10007bfa:	2800      	cmp	r0, #0
10007bfc:	d19e      	bne.n	10007b3c <setvbuf+0xd0>
10007bfe:	f9b4 300c 	ldrsh.w	r3, [r4, #12]
10007c02:	f04f 35ff 	mov.w	r5, #4294967295	@ 0xffffffff
10007c06:	e7c8      	b.n	10007b9a <setvbuf+0x12e>
10007c08:	20001ad4 	.word	0x20001ad4
10007c0c:	fffff35c 	.word	0xfffff35c

10007c10 <stdio_exit_handler>:
10007c10:	4a02      	ldr	r2, [pc, #8]	@ (10007c1c <stdio_exit_handler+0xc>)
10007c12:	4903      	ldr	r1, [pc, #12]	@ (10007c20 <stdio_exit_handler+0x10>)
10007c14:	4803      	ldr	r0, [pc, #12]	@ (10007c24 <stdio_exit_handler+0x14>)
10007c16:	f000 bb6b 	b.w	100082f0 <_fwalk_sglue>
10007c1a:	bf00      	nop
10007c1c:	20001ac8 	.word	0x20001ac8
10007c20:	10008395 	.word	0x10008395
10007c24:	20001ad8 	.word	0x20001ad8

10007c28 <cleanup_stdio>:
10007c28:	4b0c      	ldr	r3, [pc, #48]	@ (10007c5c <cleanup_stdio+0x34>)
10007c2a:	6841      	ldr	r1, [r0, #4]
10007c2c:	4299      	cmp	r1, r3
10007c2e:	b510      	push	{r4, lr}
10007c30:	4604      	mov	r4, r0
10007c32:	d001      	beq.n	10007c38 <cleanup_stdio+0x10>
10007c34:	f000 fbae 	bl	10008394 <_fclose_r>
10007c38:	68a1      	ldr	r1, [r4, #8]
10007c3a:	4b09      	ldr	r3, [pc, #36]	@ (10007c60 <cleanup_stdio+0x38>)
10007c3c:	4299      	cmp	r1, r3
10007c3e:	d002      	beq.n	10007c46 <cleanup_stdio+0x1e>
10007c40:	4620      	mov	r0, r4
10007c42:	f000 fba7 	bl	10008394 <_fclose_r>
10007c46:	68e1      	ldr	r1, [r4, #12]
10007c48:	4b06      	ldr	r3, [pc, #24]	@ (10007c64 <cleanup_stdio+0x3c>)
10007c4a:	4299      	cmp	r1, r3
10007c4c:	d004      	beq.n	10007c58 <cleanup_stdio+0x30>
10007c4e:	4620      	mov	r0, r4
10007c50:	e8bd 4010 	ldmia.w	sp!, {r4, lr}
10007c54:	f000 bb9e 	b.w	10008394 <_fclose_r>
10007c58:	bd10      	pop	{r4, pc}
10007c5a:	bf00      	nop
10007c5c:	20001e24 	.word	0x20001e24
10007c60:	20001e8c 	.word	0x20001e8c
10007c64:	20001ef4 	.word	0x20001ef4

10007c68 <global_stdio_init.part.0>:
10007c68:	e92d 43f8 	stmdb	sp!, {r3, r4, r5, r6, r7, r8, r9, lr}
10007c6c:	4a31      	ldr	r2, [pc, #196]	@ (10007d34 <global_stdio_init.part.0+0xcc>)
10007c6e:	2500      	movs	r5, #0
10007c70:	4c31      	ldr	r4, [pc, #196]	@ (10007d38 <global_stdio_init.part.0+0xd0>)
10007c72:	2304      	movs	r3, #4
10007c74:	4931      	ldr	r1, [pc, #196]	@ (10007d3c <global_stdio_init.part.0+0xd4>)
10007c76:	f8df 90d8 	ldr.w	r9, [pc, #216]	@ 10007d50 <global_stdio_init.part.0+0xe8>
10007c7a:	f104 005c 	add.w	r0, r4, #92	@ 0x5c
10007c7e:	f8df 80d4 	ldr.w	r8, [pc, #212]	@ 10007d54 <global_stdio_init.part.0+0xec>
10007c82:	4f2f      	ldr	r7, [pc, #188]	@ (10007d40 <global_stdio_init.part.0+0xd8>)
10007c84:	4e2f      	ldr	r6, [pc, #188]	@ (10007d44 <global_stdio_init.part.0+0xdc>)
10007c86:	6011      	str	r1, [r2, #0]
10007c88:	4629      	mov	r1, r5
10007c8a:	2208      	movs	r2, #8
10007c8c:	6025      	str	r5, [r4, #0]
10007c8e:	6665      	str	r5, [r4, #100]	@ 0x64
10007c90:	e9c4 3503 	strd	r3, r5, [r4, #12]
10007c94:	e9c4 5501 	strd	r5, r5, [r4, #4]
10007c98:	e9c4 5505 	strd	r5, r5, [r4, #20]
10007c9c:	f000 f886 	bl	10007dac <memset>
10007ca0:	f104 0058 	add.w	r0, r4, #88	@ 0x58
10007ca4:	62e6      	str	r6, [r4, #44]	@ 0x2c
10007ca6:	e9c4 4907 	strd	r4, r9, [r4, #28]
10007caa:	e9c4 8709 	strd	r8, r7, [r4, #36]	@ 0x24
10007cae:	f000 f923 	bl	10007ef8 <__retarget_lock_init_recursive>
10007cb2:	4b25      	ldr	r3, [pc, #148]	@ (10007d48 <global_stdio_init.part.0+0xe0>)
10007cb4:	4629      	mov	r1, r5
10007cb6:	2208      	movs	r2, #8
10007cb8:	f104 00c4 	add.w	r0, r4, #196	@ 0xc4
10007cbc:	6763      	str	r3, [r4, #116]	@ 0x74
10007cbe:	6725      	str	r5, [r4, #112]	@ 0x70
10007cc0:	f8c4 50cc 	str.w	r5, [r4, #204]	@ 0xcc
10007cc4:	f8c4 5080 	str.w	r5, [r4, #128]	@ 0x80
10007cc8:	e9c4 551a 	strd	r5, r5, [r4, #104]	@ 0x68
10007ccc:	e9c4 551e 	strd	r5, r5, [r4, #120]	@ 0x78
10007cd0:	f000 f86c 	bl	10007dac <memset>
10007cd4:	f104 0368 	add.w	r3, r4, #104	@ 0x68
10007cd8:	f104 00c0 	add.w	r0, r4, #192	@ 0xc0
10007cdc:	f8c4 3084 	str.w	r3, [r4, #132]	@ 0x84
10007ce0:	e9c4 9822 	strd	r9, r8, [r4, #136]	@ 0x88
10007ce4:	e9c4 7624 	strd	r7, r6, [r4, #144]	@ 0x90
10007ce8:	f000 f906 	bl	10007ef8 <__retarget_lock_init_recursive>
10007cec:	4b17      	ldr	r3, [pc, #92]	@ (10007d4c <global_stdio_init.part.0+0xe4>)
10007cee:	4629      	mov	r1, r5
10007cf0:	f504 7096 	add.w	r0, r4, #300	@ 0x12c
10007cf4:	2208      	movs	r2, #8
10007cf6:	f8c4 30dc 	str.w	r3, [r4, #220]	@ 0xdc
10007cfa:	f8c4 50d8 	str.w	r5, [r4, #216]	@ 0xd8
10007cfe:	f8c4 5134 	str.w	r5, [r4, #308]	@ 0x134
10007d02:	f8c4 50e8 	str.w	r5, [r4, #232]	@ 0xe8
10007d06:	e9c4 5534 	strd	r5, r5, [r4, #208]	@ 0xd0
10007d0a:	e9c4 5538 	strd	r5, r5, [r4, #224]	@ 0xe0
10007d0e:	f000 f84d 	bl	10007dac <memset>
10007d12:	f104 03d0 	add.w	r3, r4, #208	@ 0xd0
10007d16:	f504 7094 	add.w	r0, r4, #296	@ 0x128
10007d1a:	f8c4 90f0 	str.w	r9, [r4, #240]	@ 0xf0
10007d1e:	f8c4 60fc 	str.w	r6, [r4, #252]	@ 0xfc
10007d22:	f8c4 30ec 	str.w	r3, [r4, #236]	@ 0xec
10007d26:	e9c4 873d 	strd	r8, r7, [r4, #244]	@ 0xf4
10007d2a:	e8bd 43f8 	ldmia.w	sp!, {r3, r4, r5, r6, r7, r8, r9, lr}
10007d2e:	f000 b8e3 	b.w	10007ef8 <__retarget_lock_init_recursive>
10007d32:	bf00      	nop
10007d34:	20001f5c 	.word	0x20001f5c
10007d38:	20001e24 	.word	0x20001e24
10007d3c:	10007c11 	.word	0x10007c11
10007d40:	10008641 	.word	0x10008641
10007d44:	10008669 	.word	0x10008669
10007d48:	00010009 	.word	0x00010009
10007d4c:	00020012 	.word	0x00020012
10007d50:	100085dd 	.word	0x100085dd
10007d54:	10008601 	.word	0x10008601

10007d58 <__sinit>:
10007d58:	b510      	push	{r4, lr}
10007d5a:	4604      	mov	r4, r0
10007d5c:	480a      	ldr	r0, [pc, #40]	@ (10007d88 <__sinit+0x30>)
10007d5e:	f000 f8cf 	bl	10007f00 <__retarget_lock_acquire_recursive>
10007d62:	6b63      	ldr	r3, [r4, #52]	@ 0x34
10007d64:	b923      	cbnz	r3, 10007d70 <__sinit+0x18>
10007d66:	4b09      	ldr	r3, [pc, #36]	@ (10007d8c <__sinit+0x34>)
10007d68:	4a09      	ldr	r2, [pc, #36]	@ (10007d90 <__sinit+0x38>)
10007d6a:	681b      	ldr	r3, [r3, #0]
10007d6c:	6362      	str	r2, [r4, #52]	@ 0x34
10007d6e:	b123      	cbz	r3, 10007d7a <__sinit+0x22>
10007d70:	4805      	ldr	r0, [pc, #20]	@ (10007d88 <__sinit+0x30>)
10007d72:	e8bd 4010 	ldmia.w	sp!, {r4, lr}
10007d76:	f000 b8c5 	b.w	10007f04 <__retarget_lock_release_recursive>
10007d7a:	f7ff ff75 	bl	10007c68 <global_stdio_init.part.0>
10007d7e:	4802      	ldr	r0, [pc, #8]	@ (10007d88 <__sinit+0x30>)
10007d80:	e8bd 4010 	ldmia.w	sp!, {r4, lr}
10007d84:	f000 b8be 	b.w	10007f04 <__retarget_lock_release_recursive>
10007d88:	20001dec 	.word	0x20001dec
10007d8c:	20001f5c 	.word	0x20001f5c
10007d90:	10007c29 	.word	0x10007c29

10007d94 <__sfp_lock_acquire>:
10007d94:	4801      	ldr	r0, [pc, #4]	@ (10007d9c <__sfp_lock_acquire+0x8>)
10007d96:	f000 b8b3 	b.w	10007f00 <__retarget_lock_acquire_recursive>
10007d9a:	bf00      	nop
10007d9c:	20001dec 	.word	0x20001dec

10007da0 <__sfp_lock_release>:
10007da0:	4801      	ldr	r0, [pc, #4]	@ (10007da8 <__sfp_lock_release+0x8>)
10007da2:	f000 b8af 	b.w	10007f04 <__retarget_lock_release_recursive>
10007da6:	bf00      	nop
10007da8:	20001dec 	.word	0x20001dec

10007dac <memset>:
10007dac:	0783      	lsls	r3, r0, #30
10007dae:	b530      	push	{r4, r5, lr}
10007db0:	d046      	beq.n	10007e40 <memset+0x94>
10007db2:	1884      	adds	r4, r0, r2
10007db4:	4684      	mov	ip, r0
10007db6:	e004      	b.n	10007dc2 <memset+0x16>
10007db8:	f803 1b01 	strb.w	r1, [r3], #1
10007dbc:	079d      	lsls	r5, r3, #30
10007dbe:	d004      	beq.n	10007dca <memset+0x1e>
10007dc0:	469c      	mov	ip, r3
10007dc2:	45a4      	cmp	ip, r4
10007dc4:	4663      	mov	r3, ip
10007dc6:	d1f7      	bne.n	10007db8 <memset+0xc>
10007dc8:	bd30      	pop	{r4, r5, pc}
10007dca:	3a01      	subs	r2, #1
10007dcc:	4402      	add	r2, r0
10007dce:	eba2 020c 	sub.w	r2, r2, ip
10007dd2:	2a03      	cmp	r2, #3
10007dd4:	d929      	bls.n	10007e2a <memset+0x7e>
10007dd6:	b2cc      	uxtb	r4, r1
10007dd8:	2a0f      	cmp	r2, #15
10007dda:	eb04 2404 	add.w	r4, r4, r4, lsl #8
10007dde:	eb04 4404 	add.w	r4, r4, r4, lsl #16
10007de2:	d92f      	bls.n	10007e44 <memset+0x98>
10007de4:	f1a2 0c10 	sub.w	ip, r2, #16
10007de8:	f103 0510 	add.w	r5, r3, #16
10007dec:	f02c 0c0f 	bic.w	ip, ip, #15
10007df0:	44ac      	add	ip, r5
10007df2:	e9c3 4400 	strd	r4, r4, [r3]
10007df6:	e9c3 4402 	strd	r4, r4, [r3, #8]
10007dfa:	3310      	adds	r3, #16
10007dfc:	4563      	cmp	r3, ip
10007dfe:	d1f8      	bne.n	10007df2 <memset+0x46>
10007e00:	f012 0f0c 	tst.w	r2, #12
10007e04:	f002 0e0f 	and.w	lr, r2, #15
10007e08:	d018      	beq.n	10007e3c <memset+0x90>
10007e0a:	f02e 0c03 	bic.w	ip, lr, #3
10007e0e:	f1ae 0504 	sub.w	r5, lr, #4
10007e12:	461a      	mov	r2, r3
10007e14:	449c      	add	ip, r3
10007e16:	f842 4b04 	str.w	r4, [r2], #4
10007e1a:	4562      	cmp	r2, ip
10007e1c:	d1fb      	bne.n	10007e16 <memset+0x6a>
10007e1e:	f025 0403 	bic.w	r4, r5, #3
10007e22:	3304      	adds	r3, #4
10007e24:	f00e 0203 	and.w	r2, lr, #3
10007e28:	4423      	add	r3, r4
10007e2a:	2a00      	cmp	r2, #0
10007e2c:	d0cc      	beq.n	10007dc8 <memset+0x1c>
10007e2e:	b2c9      	uxtb	r1, r1
10007e30:	441a      	add	r2, r3
10007e32:	f803 1b01 	strb.w	r1, [r3], #1
10007e36:	4293      	cmp	r3, r2
10007e38:	d1fb      	bne.n	10007e32 <memset+0x86>
10007e3a:	bd30      	pop	{r4, r5, pc}
10007e3c:	4672      	mov	r2, lr
10007e3e:	e7f4      	b.n	10007e2a <memset+0x7e>
10007e40:	4603      	mov	r3, r0
10007e42:	e7c6      	b.n	10007dd2 <memset+0x26>
10007e44:	4696      	mov	lr, r2
10007e46:	e7e0      	b.n	10007e0a <memset+0x5e>

10007e48 <time>:
10007e48:	b570      	push	{r4, r5, r6, lr}
10007e4a:	4b0c      	ldr	r3, [pc, #48]	@ (10007e7c <time+0x34>)
10007e4c:	b084      	sub	sp, #16
10007e4e:	f04f 36ff 	mov.w	r6, #4294967295	@ 0xffffffff
10007e52:	4604      	mov	r4, r0
10007e54:	2200      	movs	r2, #0
10007e56:	6818      	ldr	r0, [r3, #0]
10007e58:	4669      	mov	r1, sp
10007e5a:	e9cd 6600 	strd	r6, r6, [sp]
10007e5e:	f000 f80f 	bl	10007e80 <_gettimeofday_r>
10007e62:	2800      	cmp	r0, #0
10007e64:	db06      	blt.n	10007e74 <time+0x2c>
10007e66:	e9dd 0100 	ldrd	r0, r1, [sp]
10007e6a:	b10c      	cbz	r4, 10007e70 <time+0x28>
10007e6c:	e9c4 0100 	strd	r0, r1, [r4]
10007e70:	b004      	add	sp, #16
10007e72:	bd70      	pop	{r4, r5, r6, pc}
10007e74:	4630      	mov	r0, r6
10007e76:	4631      	mov	r1, r6
10007e78:	e7f7      	b.n	10007e6a <time+0x22>
10007e7a:	bf00      	nop
10007e7c:	20001ad4 	.word	0x20001ad4

10007e80 <_gettimeofday_r>:
10007e80:	b570      	push	{r4, r5, r6, lr}
10007e82:	460c      	mov	r4, r1
10007e84:	4603      	mov	r3, r0
10007e86:	4d08      	ldr	r5, [pc, #32]	@ (10007ea8 <_gettimeofday_r+0x28>)
10007e88:	2600      	movs	r6, #0
10007e8a:	4620      	mov	r0, r4
10007e8c:	4611      	mov	r1, r2
10007e8e:	461c      	mov	r4, r3
10007e90:	602e      	str	r6, [r5, #0]
10007e92:	f7fc fc51 	bl	10004738 <_gettimeofday>
10007e96:	1c43      	adds	r3, r0, #1
10007e98:	d000      	beq.n	10007e9c <_gettimeofday_r+0x1c>
10007e9a:	bd70      	pop	{r4, r5, r6, pc}
10007e9c:	682b      	ldr	r3, [r5, #0]
10007e9e:	2b00      	cmp	r3, #0
10007ea0:	d0fb      	beq.n	10007e9a <_gettimeofday_r+0x1a>
10007ea2:	6023      	str	r3, [r4, #0]
10007ea4:	bd70      	pop	{r4, r5, r6, pc}
10007ea6:	bf00      	nop
10007ea8:	20002580 	.word	0x20002580

10007eac <_sbrk_r>:
10007eac:	b538      	push	{r3, r4, r5, lr}
10007eae:	2200      	movs	r2, #0
10007eb0:	4d06      	ldr	r5, [pc, #24]	@ (10007ecc <_sbrk_r+0x20>)
10007eb2:	4604      	mov	r4, r0
10007eb4:	4608      	mov	r0, r1
10007eb6:	602a      	str	r2, [r5, #0]
10007eb8:	f7fc fc28 	bl	1000470c <_sbrk>
10007ebc:	1c43      	adds	r3, r0, #1
10007ebe:	d000      	beq.n	10007ec2 <_sbrk_r+0x16>
10007ec0:	bd38      	pop	{r3, r4, r5, pc}
10007ec2:	682b      	ldr	r3, [r5, #0]
10007ec4:	2b00      	cmp	r3, #0
10007ec6:	d0fb      	beq.n	10007ec0 <_sbrk_r+0x14>
10007ec8:	6023      	str	r3, [r4, #0]
10007eca:	bd38      	pop	{r3, r4, r5, pc}
10007ecc:	20002580 	.word	0x20002580

10007ed0 <__errno>:
10007ed0:	4b01      	ldr	r3, [pc, #4]	@ (10007ed8 <__errno+0x8>)
10007ed2:	6818      	ldr	r0, [r3, #0]
10007ed4:	4770      	bx	lr
10007ed6:	bf00      	nop
10007ed8:	20001ad4 	.word	0x20001ad4

10007edc <sysconf>:
10007edc:	2808      	cmp	r0, #8
10007ede:	d102      	bne.n	10007ee6 <sysconf+0xa>
10007ee0:	f44f 5080 	mov.w	r0, #4096	@ 0x1000
10007ee4:	4770      	bx	lr
10007ee6:	b508      	push	{r3, lr}
10007ee8:	f7ff fff2 	bl	10007ed0 <__errno>
10007eec:	2216      	movs	r2, #22
10007eee:	4603      	mov	r3, r0
10007ef0:	f04f 30ff 	mov.w	r0, #4294967295	@ 0xffffffff
10007ef4:	601a      	str	r2, [r3, #0]
10007ef6:	bd08      	pop	{r3, pc}

10007ef8 <__retarget_lock_init_recursive>:
10007ef8:	4770      	bx	lr
10007efa:	bf00      	nop

10007efc <__retarget_lock_close_recursive>:
10007efc:	4770      	bx	lr
10007efe:	bf00      	nop

10007f00 <__retarget_lock_acquire_recursive>:
10007f00:	4770      	bx	lr
10007f02:	bf00      	nop

10007f04 <__retarget_lock_release_recursive>:
10007f04:	4770      	bx	lr
10007f06:	bf00      	nop

10007f08 <memcpy>:
10007f08:	4684      	mov	ip, r0
10007f0a:	ea41 0300 	orr.w	r3, r1, r0
10007f0e:	f013 0303 	ands.w	r3, r3, #3
10007f12:	d149      	bne.n	10007fa8 <memcpy+0xa0>
10007f14:	3a40      	subs	r2, #64	@ 0x40
10007f16:	d323      	bcc.n	10007f60 <memcpy+0x58>
10007f18:	680b      	ldr	r3, [r1, #0]
10007f1a:	6003      	str	r3, [r0, #0]
10007f1c:	684b      	ldr	r3, [r1, #4]
10007f1e:	6043      	str	r3, [r0, #4]
10007f20:	688b      	ldr	r3, [r1, #8]
10007f22:	6083      	str	r3, [r0, #8]
10007f24:	68cb      	ldr	r3, [r1, #12]
10007f26:	60c3      	str	r3, [r0, #12]
10007f28:	690b      	ldr	r3, [r1, #16]
10007f2a:	6103      	str	r3, [r0, #16]
10007f2c:	694b      	ldr	r3, [r1, #20]
10007f2e:	6143      	str	r3, [r0, #20]
10007f30:	698b      	ldr	r3, [r1, #24]
10007f32:	6183      	str	r3, [r0, #24]
10007f34:	69cb      	ldr	r3, [r1, #28]
10007f36:	61c3      	str	r3, [r0, #28]
10007f38:	6a0b      	ldr	r3, [r1, #32]
10007f3a:	6203      	str	r3, [r0, #32]
10007f3c:	6a4b      	ldr	r3, [r1, #36]	@ 0x24
10007f3e:	6243      	str	r3, [r0, #36]	@ 0x24
10007f40:	6a8b      	ldr	r3, [r1, #40]	@ 0x28
10007f42:	6283      	str	r3, [r0, #40]	@ 0x28
10007f44:	6acb      	ldr	r3, [r1, #44]	@ 0x2c
10007f46:	62c3      	str	r3, [r0, #44]	@ 0x2c
10007f48:	6b0b      	ldr	r3, [r1, #48]	@ 0x30
10007f4a:	6303      	str	r3, [r0, #48]	@ 0x30
10007f4c:	6b4b      	ldr	r3, [r1, #52]	@ 0x34
10007f4e:	6343      	str	r3, [r0, #52]	@ 0x34
10007f50:	6b8b      	ldr	r3, [r1, #56]	@ 0x38
10007f52:	6383      	str	r3, [r0, #56]	@ 0x38
10007f54:	6bcb      	ldr	r3, [r1, #60]	@ 0x3c
10007f56:	63c3      	str	r3, [r0, #60]	@ 0x3c
10007f58:	3040      	adds	r0, #64	@ 0x40
10007f5a:	3140      	adds	r1, #64	@ 0x40
10007f5c:	3a40      	subs	r2, #64	@ 0x40
10007f5e:	d2db      	bcs.n	10007f18 <memcpy+0x10>
10007f60:	3230      	adds	r2, #48	@ 0x30
10007f62:	d30b      	bcc.n	10007f7c <memcpy+0x74>
10007f64:	680b      	ldr	r3, [r1, #0]
10007f66:	6003      	str	r3, [r0, #0]
10007f68:	684b      	ldr	r3, [r1, #4]
10007f6a:	6043      	str	r3, [r0, #4]
10007f6c:	688b      	ldr	r3, [r1, #8]
10007f6e:	6083      	str	r3, [r0, #8]
10007f70:	68cb      	ldr	r3, [r1, #12]
10007f72:	60c3      	str	r3, [r0, #12]
10007f74:	3010      	adds	r0, #16
10007f76:	3110      	adds	r1, #16
10007f78:	3a10      	subs	r2, #16
10007f7a:	d2f3      	bcs.n	10007f64 <memcpy+0x5c>
10007f7c:	320c      	adds	r2, #12
10007f7e:	d305      	bcc.n	10007f8c <memcpy+0x84>
10007f80:	f851 3b04 	ldr.w	r3, [r1], #4
10007f84:	f840 3b04 	str.w	r3, [r0], #4
10007f88:	3a04      	subs	r2, #4
10007f8a:	d2f9      	bcs.n	10007f80 <memcpy+0x78>
10007f8c:	3204      	adds	r2, #4
10007f8e:	d008      	beq.n	10007fa2 <memcpy+0x9a>
10007f90:	07d2      	lsls	r2, r2, #31
10007f92:	bf1c      	itt	ne
10007f94:	f811 3b01 	ldrbne.w	r3, [r1], #1
10007f98:	f800 3b01 	strbne.w	r3, [r0], #1
10007f9c:	d301      	bcc.n	10007fa2 <memcpy+0x9a>
10007f9e:	880b      	ldrh	r3, [r1, #0]
10007fa0:	8003      	strh	r3, [r0, #0]
10007fa2:	4660      	mov	r0, ip
10007fa4:	4770      	bx	lr
10007fa6:	bf00      	nop
10007fa8:	2a08      	cmp	r2, #8
10007faa:	d313      	bcc.n	10007fd4 <memcpy+0xcc>
10007fac:	078b      	lsls	r3, r1, #30
10007fae:	d0b1      	beq.n	10007f14 <memcpy+0xc>
10007fb0:	f010 0303 	ands.w	r3, r0, #3
10007fb4:	d0ae      	beq.n	10007f14 <memcpy+0xc>
10007fb6:	f1c3 0304 	rsb	r3, r3, #4
10007fba:	1ad2      	subs	r2, r2, r3
10007fbc:	07db      	lsls	r3, r3, #31
10007fbe:	bf1c      	itt	ne
10007fc0:	f811 3b01 	ldrbne.w	r3, [r1], #1
10007fc4:	f800 3b01 	strbne.w	r3, [r0], #1
10007fc8:	d3a4      	bcc.n	10007f14 <memcpy+0xc>
10007fca:	f831 3b02 	ldrh.w	r3, [r1], #2
10007fce:	f820 3b02 	strh.w	r3, [r0], #2
10007fd2:	e79f      	b.n	10007f14 <memcpy+0xc>
10007fd4:	3a04      	subs	r2, #4
10007fd6:	d3d9      	bcc.n	10007f8c <memcpy+0x84>
10007fd8:	3a01      	subs	r2, #1
10007fda:	f811 3b01 	ldrb.w	r3, [r1], #1
10007fde:	f800 3b01 	strb.w	r3, [r0], #1
10007fe2:	d2f9      	bcs.n	10007fd8 <memcpy+0xd0>
10007fe4:	780b      	ldrb	r3, [r1, #0]
10007fe6:	7003      	strb	r3, [r0, #0]
10007fe8:	784b      	ldrb	r3, [r1, #1]
10007fea:	7043      	strb	r3, [r0, #1]
10007fec:	788b      	ldrb	r3, [r1, #2]
10007fee:	7083      	strb	r3, [r0, #2]
10007ff0:	4660      	mov	r0, ip
10007ff2:	4770      	bx	lr

10007ff4 <strlen>:
10007ff4:	f020 0103 	bic.w	r1, r0, #3
10007ff8:	f010 0003 	ands.w	r0, r0, #3
10007ffc:	f1c0 0000 	rsb	r0, r0, #0
10008000:	f851 3b04 	ldr.w	r3, [r1], #4
10008004:	f100 0c04 	add.w	ip, r0, #4
10008008:	ea4f 0ccc 	mov.w	ip, ip, lsl #3
1000800c:	f06f 0200 	mvn.w	r2, #0
10008010:	bf1c      	itt	ne
10008012:	fa22 f20c 	lsrne.w	r2, r2, ip
10008016:	4313      	orrne	r3, r2
10008018:	f04f 0c01 	mov.w	ip, #1
1000801c:	ea4c 2c0c 	orr.w	ip, ip, ip, lsl #8
10008020:	ea4c 4c0c 	orr.w	ip, ip, ip, lsl #16
10008024:	eba3 020c 	sub.w	r2, r3, ip
10008028:	ea22 0203 	bic.w	r2, r2, r3
1000802c:	ea12 12cc 	ands.w	r2, r2, ip, lsl #7
10008030:	bf04      	itt	eq
10008032:	f851 3b04 	ldreq.w	r3, [r1], #4
10008036:	3004      	addeq	r0, #4
10008038:	d0f4      	beq.n	10008024 <strlen+0x30>
1000803a:	f1c2 0100 	rsb	r1, r2, #0
1000803e:	ea02 0201 	and.w	r2, r2, r1
10008042:	fab2 f282 	clz	r2, r2
10008046:	f1c2 021f 	rsb	r2, r2, #31
1000804a:	eb00 00d2 	add.w	r0, r0, r2, lsr #3
1000804e:	4770      	bx	lr

10008050 <_malloc_trim_r>:
10008050:	e92d 43f8 	stmdb	sp!, {r3, r4, r5, r6, r7, r8, r9, lr}
10008054:	4606      	mov	r6, r0
10008056:	f8df 80ac 	ldr.w	r8, [pc, #172]	@ 10008104 <_malloc_trim_r+0xb4>
1000805a:	2008      	movs	r0, #8
1000805c:	4689      	mov	r9, r1
1000805e:	f7ff ff3d 	bl	10007edc <sysconf>
10008062:	4605      	mov	r5, r0
10008064:	4630      	mov	r0, r6
10008066:	f7ff fcf5 	bl	10007a54 <__malloc_lock>
1000806a:	f8d8 3008 	ldr.w	r3, [r8, #8]
1000806e:	685f      	ldr	r7, [r3, #4]
10008070:	f027 0703 	bic.w	r7, r7, #3
10008074:	f1a7 0411 	sub.w	r4, r7, #17
10008078:	eba4 0409 	sub.w	r4, r4, r9
1000807c:	442c      	add	r4, r5
1000807e:	fbb4 f4f5 	udiv	r4, r4, r5
10008082:	3c01      	subs	r4, #1
10008084:	fb05 f404 	mul.w	r4, r5, r4
10008088:	42a5      	cmp	r5, r4
1000808a:	dc08      	bgt.n	1000809e <_malloc_trim_r+0x4e>
1000808c:	2100      	movs	r1, #0
1000808e:	4630      	mov	r0, r6
10008090:	f7ff ff0c 	bl	10007eac <_sbrk_r>
10008094:	f8d8 3008 	ldr.w	r3, [r8, #8]
10008098:	443b      	add	r3, r7
1000809a:	4298      	cmp	r0, r3
1000809c:	d005      	beq.n	100080aa <_malloc_trim_r+0x5a>
1000809e:	4630      	mov	r0, r6
100080a0:	f7ff fcde 	bl	10007a60 <__malloc_unlock>
100080a4:	2000      	movs	r0, #0
100080a6:	e8bd 83f8 	ldmia.w	sp!, {r3, r4, r5, r6, r7, r8, r9, pc}
100080aa:	4261      	negs	r1, r4
100080ac:	4630      	mov	r0, r6
100080ae:	f7ff fefd 	bl	10007eac <_sbrk_r>
100080b2:	3001      	adds	r0, #1
100080b4:	d00f      	beq.n	100080d6 <_malloc_trim_r+0x86>
100080b6:	1b3f      	subs	r7, r7, r4
100080b8:	4a10      	ldr	r2, [pc, #64]	@ (100080fc <_malloc_trim_r+0xac>)
100080ba:	f8d8 3008 	ldr.w	r3, [r8, #8]
100080be:	4630      	mov	r0, r6
100080c0:	f047 0701 	orr.w	r7, r7, #1
100080c4:	605f      	str	r7, [r3, #4]
100080c6:	6813      	ldr	r3, [r2, #0]
100080c8:	1b1b      	subs	r3, r3, r4
100080ca:	6013      	str	r3, [r2, #0]
100080cc:	f7ff fcc8 	bl	10007a60 <__malloc_unlock>
100080d0:	2001      	movs	r0, #1
100080d2:	e8bd 83f8 	ldmia.w	sp!, {r3, r4, r5, r6, r7, r8, r9, pc}
100080d6:	2100      	movs	r1, #0
100080d8:	4630      	mov	r0, r6
100080da:	f7ff fee7 	bl	10007eac <_sbrk_r>
100080de:	f8d8 2008 	ldr.w	r2, [r8, #8]
100080e2:	1a83      	subs	r3, r0, r2
100080e4:	2b0f      	cmp	r3, #15
100080e6:	ddda      	ble.n	1000809e <_malloc_trim_r+0x4e>
100080e8:	f043 0301 	orr.w	r3, r3, #1
100080ec:	4903      	ldr	r1, [pc, #12]	@ (100080fc <_malloc_trim_r+0xac>)
100080ee:	6053      	str	r3, [r2, #4]
100080f0:	4b03      	ldr	r3, [pc, #12]	@ (10008100 <_malloc_trim_r+0xb0>)
100080f2:	681b      	ldr	r3, [r3, #0]
100080f4:	1ac0      	subs	r0, r0, r3
100080f6:	6008      	str	r0, [r1, #0]
100080f8:	e7d1      	b.n	1000809e <_malloc_trim_r+0x4e>
100080fa:	bf00      	nop
100080fc:	20001df0 	.word	0x20001df0
10008100:	200016b4 	.word	0x200016b4
10008104:	200016c0 	.word	0x200016c0

10008108 <_free_r>:
10008108:	2900      	cmp	r1, #0
1000810a:	d05a      	beq.n	100081c2 <_free_r+0xba>
1000810c:	b5f8      	push	{r3, r4, r5, r6, r7, lr}
1000810e:	460c      	mov	r4, r1
10008110:	4607      	mov	r7, r0
10008112:	f7ff fc9f 	bl	10007a54 <__malloc_lock>
10008116:	4d73      	ldr	r5, [pc, #460]	@ (100082e4 <_free_r+0x1dc>)
10008118:	f854 cc04 	ldr.w	ip, [r4, #-4]
1000811c:	f1a4 0208 	sub.w	r2, r4, #8
10008120:	68a8      	ldr	r0, [r5, #8]
10008122:	f02c 0301 	bic.w	r3, ip, #1
10008126:	f00c 0e01 	and.w	lr, ip, #1
1000812a:	18d1      	adds	r1, r2, r3
1000812c:	684e      	ldr	r6, [r1, #4]
1000812e:	4288      	cmp	r0, r1
10008130:	f026 0603 	bic.w	r6, r6, #3
10008134:	d07c      	beq.n	10008230 <_free_r+0x128>
10008136:	1988      	adds	r0, r1, r6
10008138:	604e      	str	r6, [r1, #4]
1000813a:	6840      	ldr	r0, [r0, #4]
1000813c:	f000 0001 	and.w	r0, r0, #1
10008140:	f1be 0f00 	cmp.w	lr, #0
10008144:	d12e      	bne.n	100081a4 <_free_r+0x9c>
10008146:	f854 4c08 	ldr.w	r4, [r4, #-8]
1000814a:	f105 0c08 	add.w	ip, r5, #8
1000814e:	1b12      	subs	r2, r2, r4
10008150:	4423      	add	r3, r4
10008152:	6894      	ldr	r4, [r2, #8]
10008154:	4564      	cmp	r4, ip
10008156:	d060      	beq.n	1000821a <_free_r+0x112>
10008158:	f8d2 e00c 	ldr.w	lr, [r2, #12]
1000815c:	f8c4 e00c 	str.w	lr, [r4, #12]
10008160:	f8ce 4008 	str.w	r4, [lr, #8]
10008164:	2800      	cmp	r0, #0
10008166:	d07d      	beq.n	10008264 <_free_r+0x15c>
10008168:	f043 0001 	orr.w	r0, r3, #1
1000816c:	6050      	str	r0, [r2, #4]
1000816e:	600b      	str	r3, [r1, #0]
10008170:	f5b3 7f00 	cmp.w	r3, #512	@ 0x200
10008174:	d22e      	bcs.n	100081d4 <_free_r+0xcc>
10008176:	0958      	lsrs	r0, r3, #5
10008178:	08d9      	lsrs	r1, r3, #3
1000817a:	2301      	movs	r3, #1
1000817c:	4083      	lsls	r3, r0
1000817e:	6868      	ldr	r0, [r5, #4]
10008180:	3101      	adds	r1, #1
10008182:	4303      	orrs	r3, r0
10008184:	f855 0031 	ldr.w	r0, [r5, r1, lsl #3]
10008188:	606b      	str	r3, [r5, #4]
1000818a:	eb05 03c1 	add.w	r3, r5, r1, lsl #3
1000818e:	3b08      	subs	r3, #8
10008190:	e9c2 0302 	strd	r0, r3, [r2, #8]
10008194:	f845 2031 	str.w	r2, [r5, r1, lsl #3]
10008198:	60c2      	str	r2, [r0, #12]
1000819a:	4638      	mov	r0, r7
1000819c:	e8bd 40f8 	ldmia.w	sp!, {r3, r4, r5, r6, r7, lr}
100081a0:	f7ff bc5e 	b.w	10007a60 <__malloc_unlock>
100081a4:	b970      	cbnz	r0, 100081c4 <_free_r+0xbc>
100081a6:	4433      	add	r3, r6
100081a8:	f105 0c08 	add.w	ip, r5, #8
100081ac:	6888      	ldr	r0, [r1, #8]
100081ae:	f043 0401 	orr.w	r4, r3, #1
100081b2:	4560      	cmp	r0, ip
100081b4:	d06e      	beq.n	10008294 <_free_r+0x18c>
100081b6:	68c9      	ldr	r1, [r1, #12]
100081b8:	60c1      	str	r1, [r0, #12]
100081ba:	6088      	str	r0, [r1, #8]
100081bc:	6054      	str	r4, [r2, #4]
100081be:	50d3      	str	r3, [r2, r3]
100081c0:	e7d6      	b.n	10008170 <_free_r+0x68>
100081c2:	4770      	bx	lr
100081c4:	f04c 0101 	orr.w	r1, ip, #1
100081c8:	f5b3 7f00 	cmp.w	r3, #512	@ 0x200
100081cc:	f844 1c04 	str.w	r1, [r4, #-4]
100081d0:	50d3      	str	r3, [r2, r3]
100081d2:	d3d0      	bcc.n	10008176 <_free_r+0x6e>
100081d4:	f5b3 6f20 	cmp.w	r3, #2560	@ 0xa00
100081d8:	ea4f 2153 	mov.w	r1, r3, lsr #9
100081dc:	d244      	bcs.n	10008268 <_free_r+0x160>
100081de:	0999      	lsrs	r1, r3, #6
100081e0:	f101 0039 	add.w	r0, r1, #57	@ 0x39
100081e4:	f101 0438 	add.w	r4, r1, #56	@ 0x38
100081e8:	00c1      	lsls	r1, r0, #3
100081ea:	1868      	adds	r0, r5, r1
100081ec:	5869      	ldr	r1, [r5, r1]
100081ee:	3808      	subs	r0, #8
100081f0:	4288      	cmp	r0, r1
100081f2:	d103      	bne.n	100081fc <_free_r+0xf4>
100081f4:	e055      	b.n	100082a2 <_free_r+0x19a>
100081f6:	6889      	ldr	r1, [r1, #8]
100081f8:	4288      	cmp	r0, r1
100081fa:	d004      	beq.n	10008206 <_free_r+0xfe>
100081fc:	684c      	ldr	r4, [r1, #4]
100081fe:	f024 0403 	bic.w	r4, r4, #3
10008202:	429c      	cmp	r4, r3
10008204:	d8f7      	bhi.n	100081f6 <_free_r+0xee>
10008206:	68c8      	ldr	r0, [r1, #12]
10008208:	e9c2 1002 	strd	r1, r0, [r2, #8]
1000820c:	6082      	str	r2, [r0, #8]
1000820e:	4638      	mov	r0, r7
10008210:	60ca      	str	r2, [r1, #12]
10008212:	e8bd 40f8 	ldmia.w	sp!, {r3, r4, r5, r6, r7, lr}
10008216:	f7ff bc23 	b.w	10007a60 <__malloc_unlock>
1000821a:	bb80      	cbnz	r0, 1000827e <_free_r+0x176>
1000821c:	441e      	add	r6, r3
1000821e:	e9d1 1302 	ldrd	r1, r3, [r1, #8]
10008222:	60cb      	str	r3, [r1, #12]
10008224:	6099      	str	r1, [r3, #8]
10008226:	f046 0301 	orr.w	r3, r6, #1
1000822a:	6053      	str	r3, [r2, #4]
1000822c:	5196      	str	r6, [r2, r6]
1000822e:	e7b4      	b.n	1000819a <_free_r+0x92>
10008230:	441e      	add	r6, r3
10008232:	f1be 0f00 	cmp.w	lr, #0
10008236:	d107      	bne.n	10008248 <_free_r+0x140>
10008238:	f854 3c08 	ldr.w	r3, [r4, #-8]
1000823c:	1ad2      	subs	r2, r2, r3
1000823e:	441e      	add	r6, r3
10008240:	e9d2 1302 	ldrd	r1, r3, [r2, #8]
10008244:	60cb      	str	r3, [r1, #12]
10008246:	6099      	str	r1, [r3, #8]
10008248:	f046 0301 	orr.w	r3, r6, #1
1000824c:	6053      	str	r3, [r2, #4]
1000824e:	4b26      	ldr	r3, [pc, #152]	@ (100082e8 <_free_r+0x1e0>)
10008250:	60aa      	str	r2, [r5, #8]
10008252:	681b      	ldr	r3, [r3, #0]
10008254:	42b3      	cmp	r3, r6
10008256:	d8a0      	bhi.n	1000819a <_free_r+0x92>
10008258:	4b24      	ldr	r3, [pc, #144]	@ (100082ec <_free_r+0x1e4>)
1000825a:	4638      	mov	r0, r7
1000825c:	6819      	ldr	r1, [r3, #0]
1000825e:	f7ff fef7 	bl	10008050 <_malloc_trim_r>
10008262:	e79a      	b.n	1000819a <_free_r+0x92>
10008264:	4433      	add	r3, r6
10008266:	e7a1      	b.n	100081ac <_free_r+0xa4>
10008268:	2914      	cmp	r1, #20
1000826a:	d90d      	bls.n	10008288 <_free_r+0x180>
1000826c:	2954      	cmp	r1, #84	@ 0x54
1000826e:	d81f      	bhi.n	100082b0 <_free_r+0x1a8>
10008270:	0b19      	lsrs	r1, r3, #12
10008272:	f101 006f 	add.w	r0, r1, #111	@ 0x6f
10008276:	f101 046e 	add.w	r4, r1, #110	@ 0x6e
1000827a:	00c1      	lsls	r1, r0, #3
1000827c:	e7b5      	b.n	100081ea <_free_r+0xe2>
1000827e:	f043 0001 	orr.w	r0, r3, #1
10008282:	6050      	str	r0, [r2, #4]
10008284:	600b      	str	r3, [r1, #0]
10008286:	e788      	b.n	1000819a <_free_r+0x92>
10008288:	f101 005c 	add.w	r0, r1, #92	@ 0x5c
1000828c:	f101 045b 	add.w	r4, r1, #91	@ 0x5b
10008290:	00c1      	lsls	r1, r0, #3
10008292:	e7aa      	b.n	100081ea <_free_r+0xe2>
10008294:	e9c5 2204 	strd	r2, r2, [r5, #16]
10008298:	e9c2 cc02 	strd	ip, ip, [r2, #8]
1000829c:	6054      	str	r4, [r2, #4]
1000829e:	50d3      	str	r3, [r2, r3]
100082a0:	e77b      	b.n	1000819a <_free_r+0x92>
100082a2:	10a4      	asrs	r4, r4, #2
100082a4:	2301      	movs	r3, #1
100082a6:	40a3      	lsls	r3, r4
100082a8:	686c      	ldr	r4, [r5, #4]
100082aa:	4323      	orrs	r3, r4
100082ac:	606b      	str	r3, [r5, #4]
100082ae:	e7ab      	b.n	10008208 <_free_r+0x100>
100082b0:	f5b1 7faa 	cmp.w	r1, #340	@ 0x154
100082b4:	d806      	bhi.n	100082c4 <_free_r+0x1bc>
100082b6:	0bd9      	lsrs	r1, r3, #15
100082b8:	f101 0078 	add.w	r0, r1, #120	@ 0x78
100082bc:	f101 0477 	add.w	r4, r1, #119	@ 0x77
100082c0:	00c1      	lsls	r1, r0, #3
100082c2:	e792      	b.n	100081ea <_free_r+0xe2>
100082c4:	f240 5054 	movw	r0, #1364	@ 0x554
100082c8:	4281      	cmp	r1, r0
100082ca:	d806      	bhi.n	100082da <_free_r+0x1d2>
100082cc:	0c99      	lsrs	r1, r3, #18
100082ce:	f101 007d 	add.w	r0, r1, #125	@ 0x7d
100082d2:	f101 047c 	add.w	r4, r1, #124	@ 0x7c
100082d6:	00c1      	lsls	r1, r0, #3
100082d8:	e787      	b.n	100081ea <_free_r+0xe2>
100082da:	f44f 717e 	mov.w	r1, #1016	@ 0x3f8
100082de:	247e      	movs	r4, #126	@ 0x7e
100082e0:	e783      	b.n	100081ea <_free_r+0xe2>
100082e2:	bf00      	nop
100082e4:	200016c0 	.word	0x200016c0
100082e8:	200016b8 	.word	0x200016b8
100082ec:	20001e20 	.word	0x20001e20

100082f0 <_fwalk_sglue>:
100082f0:	e92d 43f8 	stmdb	sp!, {r3, r4, r5, r6, r7, r8, r9, lr}
100082f4:	f04f 0900 	mov.w	r9, #0
100082f8:	4607      	mov	r7, r0
100082fa:	4688      	mov	r8, r1
100082fc:	4616      	mov	r6, r2
100082fe:	e9d6 5401 	ldrd	r5, r4, [r6, #4]
10008302:	3d01      	subs	r5, #1
10008304:	d40f      	bmi.n	10008326 <_fwalk_sglue+0x36>
10008306:	89a3      	ldrh	r3, [r4, #12]
10008308:	2b01      	cmp	r3, #1
1000830a:	d908      	bls.n	1000831e <_fwalk_sglue+0x2e>
1000830c:	f9b4 300e 	ldrsh.w	r3, [r4, #14]
10008310:	4621      	mov	r1, r4
10008312:	4638      	mov	r0, r7
10008314:	3301      	adds	r3, #1
10008316:	d002      	beq.n	1000831e <_fwalk_sglue+0x2e>
10008318:	47c0      	blx	r8
1000831a:	ea49 0900 	orr.w	r9, r9, r0
1000831e:	3d01      	subs	r5, #1
10008320:	3468      	adds	r4, #104	@ 0x68
10008322:	1c6b      	adds	r3, r5, #1
10008324:	d1ef      	bne.n	10008306 <_fwalk_sglue+0x16>
10008326:	6836      	ldr	r6, [r6, #0]
10008328:	2e00      	cmp	r6, #0
1000832a:	d1e8      	bne.n	100082fe <_fwalk_sglue+0xe>
1000832c:	4648      	mov	r0, r9
1000832e:	e8bd 83f8 	ldmia.w	sp!, {r3, r4, r5, r6, r7, r8, r9, pc}
10008332:	bf00      	nop

10008334 <__swhatbuf_r>:
10008334:	b570      	push	{r4, r5, r6, lr}
10008336:	460c      	mov	r4, r1
10008338:	f9b1 100e 	ldrsh.w	r1, [r1, #14]
1000833c:	b096      	sub	sp, #88	@ 0x58
1000833e:	4615      	mov	r5, r2
10008340:	2900      	cmp	r1, #0
10008342:	461e      	mov	r6, r3
10008344:	db14      	blt.n	10008370 <__swhatbuf_r+0x3c>
10008346:	466a      	mov	r2, sp
10008348:	f000 f9a4 	bl	10008694 <_fstat_r>
1000834c:	2800      	cmp	r0, #0
1000834e:	db0f      	blt.n	10008370 <__swhatbuf_r+0x3c>
10008350:	9901      	ldr	r1, [sp, #4]
10008352:	f44f 6380 	mov.w	r3, #1024	@ 0x400
10008356:	f44f 6000 	mov.w	r0, #2048	@ 0x800
1000835a:	f401 4170 	and.w	r1, r1, #61440	@ 0xf000
1000835e:	f5a1 5100 	sub.w	r1, r1, #8192	@ 0x2000
10008362:	fab1 f181 	clz	r1, r1
10008366:	0949      	lsrs	r1, r1, #5
10008368:	6031      	str	r1, [r6, #0]
1000836a:	602b      	str	r3, [r5, #0]
1000836c:	b016      	add	sp, #88	@ 0x58
1000836e:	bd70      	pop	{r4, r5, r6, pc}
10008370:	89a1      	ldrh	r1, [r4, #12]
10008372:	f011 0180 	ands.w	r1, r1, #128	@ 0x80
10008376:	d006      	beq.n	10008386 <__swhatbuf_r+0x52>
10008378:	2100      	movs	r1, #0
1000837a:	2340      	movs	r3, #64	@ 0x40
1000837c:	4608      	mov	r0, r1
1000837e:	6031      	str	r1, [r6, #0]
10008380:	602b      	str	r3, [r5, #0]
10008382:	b016      	add	sp, #88	@ 0x58
10008384:	bd70      	pop	{r4, r5, r6, pc}
10008386:	f44f 6380 	mov.w	r3, #1024	@ 0x400
1000838a:	4608      	mov	r0, r1
1000838c:	6031      	str	r1, [r6, #0]
1000838e:	602b      	str	r3, [r5, #0]
10008390:	b016      	add	sp, #88	@ 0x58
10008392:	bd70      	pop	{r4, r5, r6, pc}

10008394 <_fclose_r>:
10008394:	b570      	push	{r4, r5, r6, lr}
10008396:	2900      	cmp	r1, #0
10008398:	d03f      	beq.n	1000841a <_fclose_r+0x86>
1000839a:	4606      	mov	r6, r0
1000839c:	460c      	mov	r4, r1
1000839e:	b110      	cbz	r0, 100083a6 <_fclose_r+0x12>
100083a0:	6b43      	ldr	r3, [r0, #52]	@ 0x34
100083a2:	2b00      	cmp	r3, #0
100083a4:	d03c      	beq.n	10008420 <_fclose_r+0x8c>
100083a6:	6e63      	ldr	r3, [r4, #100]	@ 0x64
100083a8:	f9b4 200c 	ldrsh.w	r2, [r4, #12]
100083ac:	07dd      	lsls	r5, r3, #31
100083ae:	d432      	bmi.n	10008416 <_fclose_r+0x82>
100083b0:	0590      	lsls	r0, r2, #22
100083b2:	d538      	bpl.n	10008426 <_fclose_r+0x92>
100083b4:	4621      	mov	r1, r4
100083b6:	4630      	mov	r0, r6
100083b8:	f000 f84c 	bl	10008454 <__sflush_r>
100083bc:	6ae3      	ldr	r3, [r4, #44]	@ 0x2c
100083be:	4605      	mov	r5, r0
100083c0:	b133      	cbz	r3, 100083d0 <_fclose_r+0x3c>
100083c2:	69e1      	ldr	r1, [r4, #28]
100083c4:	4630      	mov	r0, r6
100083c6:	4798      	blx	r3
100083c8:	2800      	cmp	r0, #0
100083ca:	bfb8      	it	lt
100083cc:	f04f 35ff 	movlt.w	r5, #4294967295	@ 0xffffffff
100083d0:	89a3      	ldrh	r3, [r4, #12]
100083d2:	061a      	lsls	r2, r3, #24
100083d4:	d439      	bmi.n	1000844a <_fclose_r+0xb6>
100083d6:	6b21      	ldr	r1, [r4, #48]	@ 0x30
100083d8:	b141      	cbz	r1, 100083ec <_fclose_r+0x58>
100083da:	f104 0340 	add.w	r3, r4, #64	@ 0x40
100083de:	4299      	cmp	r1, r3
100083e0:	d002      	beq.n	100083e8 <_fclose_r+0x54>
100083e2:	4630      	mov	r0, r6
100083e4:	f7ff fe90 	bl	10008108 <_free_r>
100083e8:	2300      	movs	r3, #0
100083ea:	6323      	str	r3, [r4, #48]	@ 0x30
100083ec:	6c61      	ldr	r1, [r4, #68]	@ 0x44
100083ee:	b121      	cbz	r1, 100083fa <_fclose_r+0x66>
100083f0:	4630      	mov	r0, r6
100083f2:	f7ff fe89 	bl	10008108 <_free_r>
100083f6:	2300      	movs	r3, #0
100083f8:	6463      	str	r3, [r4, #68]	@ 0x44
100083fa:	f7ff fccb 	bl	10007d94 <__sfp_lock_acquire>
100083fe:	6e63      	ldr	r3, [r4, #100]	@ 0x64
10008400:	2200      	movs	r2, #0
10008402:	07db      	lsls	r3, r3, #31
10008404:	81a2      	strh	r2, [r4, #12]
10008406:	d51c      	bpl.n	10008442 <_fclose_r+0xae>
10008408:	6da0      	ldr	r0, [r4, #88]	@ 0x58
1000840a:	f7ff fd77 	bl	10007efc <__retarget_lock_close_recursive>
1000840e:	f7ff fcc7 	bl	10007da0 <__sfp_lock_release>
10008412:	4628      	mov	r0, r5
10008414:	bd70      	pop	{r4, r5, r6, pc}
10008416:	2a00      	cmp	r2, #0
10008418:	d1cc      	bne.n	100083b4 <_fclose_r+0x20>
1000841a:	2500      	movs	r5, #0
1000841c:	4628      	mov	r0, r5
1000841e:	bd70      	pop	{r4, r5, r6, pc}
10008420:	f7ff fc9a 	bl	10007d58 <__sinit>
10008424:	e7bf      	b.n	100083a6 <_fclose_r+0x12>
10008426:	6da0      	ldr	r0, [r4, #88]	@ 0x58
10008428:	f7ff fd6a 	bl	10007f00 <__retarget_lock_acquire_recursive>
1000842c:	f9b4 300c 	ldrsh.w	r3, [r4, #12]
10008430:	2b00      	cmp	r3, #0
10008432:	d1bf      	bne.n	100083b4 <_fclose_r+0x20>
10008434:	6e63      	ldr	r3, [r4, #100]	@ 0x64
10008436:	07d9      	lsls	r1, r3, #31
10008438:	d4ef      	bmi.n	1000841a <_fclose_r+0x86>
1000843a:	6da0      	ldr	r0, [r4, #88]	@ 0x58
1000843c:	f7ff fd62 	bl	10007f04 <__retarget_lock_release_recursive>
10008440:	e7eb      	b.n	1000841a <_fclose_r+0x86>
10008442:	6da0      	ldr	r0, [r4, #88]	@ 0x58
10008444:	f7ff fd5e 	bl	10007f04 <__retarget_lock_release_recursive>
10008448:	e7de      	b.n	10008408 <_fclose_r+0x74>
1000844a:	6921      	ldr	r1, [r4, #16]
1000844c:	4630      	mov	r0, r6
1000844e:	f7ff fe5b 	bl	10008108 <_free_r>
10008452:	e7c0      	b.n	100083d6 <_fclose_r+0x42>

10008454 <__sflush_r>:
10008454:	f9b1 200c 	ldrsh.w	r2, [r1, #12]
10008458:	e92d 41f0 	stmdb	sp!, {r4, r5, r6, r7, r8, lr}
1000845c:	0715      	lsls	r5, r2, #28
1000845e:	460c      	mov	r4, r1
10008460:	4680      	mov	r8, r0
10008462:	d44e      	bmi.n	10008502 <__sflush_r+0xae>
10008464:	6849      	ldr	r1, [r1, #4]
10008466:	f442 6300 	orr.w	r3, r2, #2048	@ 0x800
1000846a:	2900      	cmp	r1, #0
1000846c:	81a3      	strh	r3, [r4, #12]
1000846e:	dd63      	ble.n	10008538 <__sflush_r+0xe4>
10008470:	6aa6      	ldr	r6, [r4, #40]	@ 0x28
10008472:	2e00      	cmp	r6, #0
10008474:	d042      	beq.n	100084fc <__sflush_r+0xa8>
10008476:	2100      	movs	r1, #0
10008478:	f412 5280 	ands.w	r2, r2, #4096	@ 0x1000
1000847c:	f8d8 5000 	ldr.w	r5, [r8]
10008480:	f8c8 1000 	str.w	r1, [r8]
10008484:	d165      	bne.n	10008552 <__sflush_r+0xfe>
10008486:	2301      	movs	r3, #1
10008488:	69e1      	ldr	r1, [r4, #28]
1000848a:	4640      	mov	r0, r8
1000848c:	47b0      	blx	r6
1000848e:	4602      	mov	r2, r0
10008490:	1c50      	adds	r0, r2, #1
10008492:	d06c      	beq.n	1000856e <__sflush_r+0x11a>
10008494:	f9b4 300c 	ldrsh.w	r3, [r4, #12]
10008498:	6aa6      	ldr	r6, [r4, #40]	@ 0x28
1000849a:	0759      	lsls	r1, r3, #29
1000849c:	d505      	bpl.n	100084aa <__sflush_r+0x56>
1000849e:	6863      	ldr	r3, [r4, #4]
100084a0:	1ad2      	subs	r2, r2, r3
100084a2:	6b23      	ldr	r3, [r4, #48]	@ 0x30
100084a4:	b10b      	cbz	r3, 100084aa <__sflush_r+0x56>
100084a6:	6be3      	ldr	r3, [r4, #60]	@ 0x3c
100084a8:	1ad2      	subs	r2, r2, r3
100084aa:	2300      	movs	r3, #0
100084ac:	69e1      	ldr	r1, [r4, #28]
100084ae:	4640      	mov	r0, r8
100084b0:	47b0      	blx	r6
100084b2:	1c42      	adds	r2, r0, #1
100084b4:	f9b4 300c 	ldrsh.w	r3, [r4, #12]
100084b8:	d14d      	bne.n	10008556 <__sflush_r+0x102>
100084ba:	f8d8 1000 	ldr.w	r1, [r8]
100084be:	291d      	cmp	r1, #29
100084c0:	d840      	bhi.n	10008544 <__sflush_r+0xf0>
100084c2:	4a30      	ldr	r2, [pc, #192]	@ (10008584 <__sflush_r+0x130>)
100084c4:	40ca      	lsrs	r2, r1
100084c6:	07d7      	lsls	r7, r2, #31
100084c8:	d53c      	bpl.n	10008544 <__sflush_r+0xf0>
100084ca:	f423 6200 	bic.w	r2, r3, #2048	@ 0x800
100084ce:	04de      	lsls	r6, r3, #19
100084d0:	81a2      	strh	r2, [r4, #12]
100084d2:	f04f 0200 	mov.w	r2, #0
100084d6:	6062      	str	r2, [r4, #4]
100084d8:	6922      	ldr	r2, [r4, #16]
100084da:	6022      	str	r2, [r4, #0]
100084dc:	d501      	bpl.n	100084e2 <__sflush_r+0x8e>
100084de:	2900      	cmp	r1, #0
100084e0:	d043      	beq.n	1000856a <__sflush_r+0x116>
100084e2:	6b21      	ldr	r1, [r4, #48]	@ 0x30
100084e4:	f8c8 5000 	str.w	r5, [r8]
100084e8:	b141      	cbz	r1, 100084fc <__sflush_r+0xa8>
100084ea:	f104 0340 	add.w	r3, r4, #64	@ 0x40
100084ee:	4299      	cmp	r1, r3
100084f0:	d002      	beq.n	100084f8 <__sflush_r+0xa4>
100084f2:	4640      	mov	r0, r8
100084f4:	f7ff fe08 	bl	10008108 <_free_r>
100084f8:	2300      	movs	r3, #0
100084fa:	6323      	str	r3, [r4, #48]	@ 0x30
100084fc:	2000      	movs	r0, #0
100084fe:	e8bd 81f0 	ldmia.w	sp!, {r4, r5, r6, r7, r8, pc}
10008502:	690e      	ldr	r6, [r1, #16]
10008504:	2e00      	cmp	r6, #0
10008506:	d0f9      	beq.n	100084fc <__sflush_r+0xa8>
10008508:	0792      	lsls	r2, r2, #30
1000850a:	680d      	ldr	r5, [r1, #0]
1000850c:	600e      	str	r6, [r1, #0]
1000850e:	bf0c      	ite	eq
10008510:	694b      	ldreq	r3, [r1, #20]
10008512:	2300      	movne	r3, #0
10008514:	1bad      	subs	r5, r5, r6
10008516:	608b      	str	r3, [r1, #8]
10008518:	e00b      	b.n	10008532 <__sflush_r+0xde>
1000851a:	462b      	mov	r3, r5
1000851c:	4632      	mov	r2, r6
1000851e:	69e1      	ldr	r1, [r4, #28]
10008520:	4640      	mov	r0, r8
10008522:	6a67      	ldr	r7, [r4, #36]	@ 0x24
10008524:	47b8      	blx	r7
10008526:	f1b0 0c00 	subs.w	ip, r0, #0
1000852a:	eba5 050c 	sub.w	r5, r5, ip
1000852e:	4466      	add	r6, ip
10008530:	dd06      	ble.n	10008540 <__sflush_r+0xec>
10008532:	2d00      	cmp	r5, #0
10008534:	dcf1      	bgt.n	1000851a <__sflush_r+0xc6>
10008536:	e7e1      	b.n	100084fc <__sflush_r+0xa8>
10008538:	6be1      	ldr	r1, [r4, #60]	@ 0x3c
1000853a:	2900      	cmp	r1, #0
1000853c:	dc98      	bgt.n	10008470 <__sflush_r+0x1c>
1000853e:	e7dd      	b.n	100084fc <__sflush_r+0xa8>
10008540:	f9b4 300c 	ldrsh.w	r3, [r4, #12]
10008544:	f043 0340 	orr.w	r3, r3, #64	@ 0x40
10008548:	f04f 30ff 	mov.w	r0, #4294967295	@ 0xffffffff
1000854c:	81a3      	strh	r3, [r4, #12]
1000854e:	e8bd 81f0 	ldmia.w	sp!, {r4, r5, r6, r7, r8, pc}
10008552:	6d22      	ldr	r2, [r4, #80]	@ 0x50
10008554:	e7a1      	b.n	1000849a <__sflush_r+0x46>
10008556:	f423 6200 	bic.w	r2, r3, #2048	@ 0x800
1000855a:	04db      	lsls	r3, r3, #19
1000855c:	81a2      	strh	r2, [r4, #12]
1000855e:	f04f 0200 	mov.w	r2, #0
10008562:	6062      	str	r2, [r4, #4]
10008564:	6922      	ldr	r2, [r4, #16]
10008566:	6022      	str	r2, [r4, #0]
10008568:	d5bb      	bpl.n	100084e2 <__sflush_r+0x8e>
1000856a:	6520      	str	r0, [r4, #80]	@ 0x50
1000856c:	e7b9      	b.n	100084e2 <__sflush_r+0x8e>
1000856e:	f8d8 3000 	ldr.w	r3, [r8]
10008572:	2b00      	cmp	r3, #0
10008574:	d08e      	beq.n	10008494 <__sflush_r+0x40>
10008576:	2b1d      	cmp	r3, #29
10008578:	d001      	beq.n	1000857e <__sflush_r+0x12a>
1000857a:	2b16      	cmp	r3, #22
1000857c:	d1e0      	bne.n	10008540 <__sflush_r+0xec>
1000857e:	f8c8 5000 	str.w	r5, [r8]
10008582:	e7bb      	b.n	100084fc <__sflush_r+0xa8>
10008584:	20400001 	.word	0x20400001

10008588 <_fflush_r>:
10008588:	b538      	push	{r3, r4, r5, lr}
1000858a:	4605      	mov	r5, r0
1000858c:	460c      	mov	r4, r1
1000858e:	b108      	cbz	r0, 10008594 <_fflush_r+0xc>
10008590:	6b43      	ldr	r3, [r0, #52]	@ 0x34
10008592:	b303      	cbz	r3, 100085d6 <_fflush_r+0x4e>
10008594:	f9b4 000c 	ldrsh.w	r0, [r4, #12]
10008598:	b188      	cbz	r0, 100085be <_fflush_r+0x36>
1000859a:	6e63      	ldr	r3, [r4, #100]	@ 0x64
1000859c:	07db      	lsls	r3, r3, #31
1000859e:	d401      	bmi.n	100085a4 <_fflush_r+0x1c>
100085a0:	0581      	lsls	r1, r0, #22
100085a2:	d50f      	bpl.n	100085c4 <_fflush_r+0x3c>
100085a4:	4628      	mov	r0, r5
100085a6:	4621      	mov	r1, r4
100085a8:	f7ff ff54 	bl	10008454 <__sflush_r>
100085ac:	6e63      	ldr	r3, [r4, #100]	@ 0x64
100085ae:	4605      	mov	r5, r0
100085b0:	07da      	lsls	r2, r3, #31
100085b2:	d402      	bmi.n	100085ba <_fflush_r+0x32>
100085b4:	89a3      	ldrh	r3, [r4, #12]
100085b6:	059b      	lsls	r3, r3, #22
100085b8:	d508      	bpl.n	100085cc <_fflush_r+0x44>
100085ba:	4628      	mov	r0, r5
100085bc:	bd38      	pop	{r3, r4, r5, pc}
100085be:	4605      	mov	r5, r0
100085c0:	4628      	mov	r0, r5
100085c2:	bd38      	pop	{r3, r4, r5, pc}
100085c4:	6da0      	ldr	r0, [r4, #88]	@ 0x58
100085c6:	f7ff fc9b 	bl	10007f00 <__retarget_lock_acquire_recursive>
100085ca:	e7eb      	b.n	100085a4 <_fflush_r+0x1c>
100085cc:	6da0      	ldr	r0, [r4, #88]	@ 0x58
100085ce:	f7ff fc99 	bl	10007f04 <__retarget_lock_release_recursive>
100085d2:	4628      	mov	r0, r5
100085d4:	bd38      	pop	{r3, r4, r5, pc}
100085d6:	f7ff fbbf 	bl	10007d58 <__sinit>
100085da:	e7db      	b.n	10008594 <_fflush_r+0xc>

100085dc <__sread>:
100085dc:	b510      	push	{r4, lr}
100085de:	460c      	mov	r4, r1
100085e0:	f9b1 100e 	ldrsh.w	r1, [r1, #14]
100085e4:	f000 f882 	bl	100086ec <_read_r>
100085e8:	2800      	cmp	r0, #0
100085ea:	db03      	blt.n	100085f4 <__sread+0x18>
100085ec:	6d23      	ldr	r3, [r4, #80]	@ 0x50
100085ee:	4403      	add	r3, r0
100085f0:	6523      	str	r3, [r4, #80]	@ 0x50
100085f2:	bd10      	pop	{r4, pc}
100085f4:	89a3      	ldrh	r3, [r4, #12]
100085f6:	f423 5380 	bic.w	r3, r3, #4096	@ 0x1000
100085fa:	81a3      	strh	r3, [r4, #12]
100085fc:	bd10      	pop	{r4, pc}
100085fe:	bf00      	nop

10008600 <__swrite>:
10008600:	e92d 41f0 	stmdb	sp!, {r4, r5, r6, r7, r8, lr}
10008604:	460c      	mov	r4, r1
10008606:	f9b1 100c 	ldrsh.w	r1, [r1, #12]
1000860a:	461f      	mov	r7, r3
1000860c:	4605      	mov	r5, r0
1000860e:	05cb      	lsls	r3, r1, #23
10008610:	4616      	mov	r6, r2
10008612:	d40b      	bmi.n	1000862c <__swrite+0x2c>
10008614:	f421 5180 	bic.w	r1, r1, #4096	@ 0x1000
10008618:	463b      	mov	r3, r7
1000861a:	4632      	mov	r2, r6
1000861c:	4628      	mov	r0, r5
1000861e:	81a1      	strh	r1, [r4, #12]
10008620:	f9b4 100e 	ldrsh.w	r1, [r4, #14]
10008624:	e8bd 41f0 	ldmia.w	sp!, {r4, r5, r6, r7, r8, lr}
10008628:	f000 b876 	b.w	10008718 <_write_r>
1000862c:	f9b4 100e 	ldrsh.w	r1, [r4, #14]
10008630:	2302      	movs	r3, #2
10008632:	2200      	movs	r2, #0
10008634:	f000 f844 	bl	100086c0 <_lseek_r>
10008638:	f9b4 100c 	ldrsh.w	r1, [r4, #12]
1000863c:	e7ea      	b.n	10008614 <__swrite+0x14>
1000863e:	bf00      	nop

10008640 <__sseek>:
10008640:	b510      	push	{r4, lr}
10008642:	460c      	mov	r4, r1
10008644:	f9b1 100e 	ldrsh.w	r1, [r1, #14]
10008648:	f000 f83a 	bl	100086c0 <_lseek_r>
1000864c:	1c42      	adds	r2, r0, #1
1000864e:	f9b4 300c 	ldrsh.w	r3, [r4, #12]
10008652:	d004      	beq.n	1000865e <__sseek+0x1e>
10008654:	f443 5380 	orr.w	r3, r3, #4096	@ 0x1000
10008658:	6520      	str	r0, [r4, #80]	@ 0x50
1000865a:	81a3      	strh	r3, [r4, #12]
1000865c:	bd10      	pop	{r4, pc}
1000865e:	f423 5380 	bic.w	r3, r3, #4096	@ 0x1000
10008662:	81a3      	strh	r3, [r4, #12]
10008664:	bd10      	pop	{r4, pc}
10008666:	bf00      	nop

10008668 <__sclose>:
10008668:	f9b1 100e 	ldrsh.w	r1, [r1, #14]
1000866c:	f000 b800 	b.w	10008670 <_close_r>

10008670 <_close_r>:
10008670:	b538      	push	{r3, r4, r5, lr}
10008672:	2200      	movs	r2, #0
10008674:	4d06      	ldr	r5, [pc, #24]	@ (10008690 <_close_r+0x20>)
10008676:	4604      	mov	r4, r0
10008678:	4608      	mov	r0, r1
1000867a:	602a      	str	r2, [r5, #0]
1000867c:	f7fc f894 	bl	100047a8 <_close>
10008680:	1c43      	adds	r3, r0, #1
10008682:	d000      	beq.n	10008686 <_close_r+0x16>
10008684:	bd38      	pop	{r3, r4, r5, pc}
10008686:	682b      	ldr	r3, [r5, #0]
10008688:	2b00      	cmp	r3, #0
1000868a:	d0fb      	beq.n	10008684 <_close_r+0x14>
1000868c:	6023      	str	r3, [r4, #0]
1000868e:	bd38      	pop	{r3, r4, r5, pc}
10008690:	20002580 	.word	0x20002580

10008694 <_fstat_r>:
10008694:	b570      	push	{r4, r5, r6, lr}
10008696:	460c      	mov	r4, r1
10008698:	4603      	mov	r3, r0
1000869a:	4d08      	ldr	r5, [pc, #32]	@ (100086bc <_fstat_r+0x28>)
1000869c:	2600      	movs	r6, #0
1000869e:	4620      	mov	r0, r4
100086a0:	4611      	mov	r1, r2
100086a2:	461c      	mov	r4, r3
100086a4:	602e      	str	r6, [r5, #0]
100086a6:	f7fc f887 	bl	100047b8 <_fstat>
100086aa:	1c43      	adds	r3, r0, #1
100086ac:	d000      	beq.n	100086b0 <_fstat_r+0x1c>
100086ae:	bd70      	pop	{r4, r5, r6, pc}
100086b0:	682b      	ldr	r3, [r5, #0]
100086b2:	2b00      	cmp	r3, #0
100086b4:	d0fb      	beq.n	100086ae <_fstat_r+0x1a>
100086b6:	6023      	str	r3, [r4, #0]
100086b8:	bd70      	pop	{r4, r5, r6, pc}
100086ba:	bf00      	nop
100086bc:	20002580 	.word	0x20002580

100086c0 <_lseek_r>:
100086c0:	b538      	push	{r3, r4, r5, lr}
100086c2:	460c      	mov	r4, r1
100086c4:	4684      	mov	ip, r0
100086c6:	4611      	mov	r1, r2
100086c8:	4d07      	ldr	r5, [pc, #28]	@ (100086e8 <_lseek_r+0x28>)
100086ca:	461a      	mov	r2, r3
100086cc:	2300      	movs	r3, #0
100086ce:	4620      	mov	r0, r4
100086d0:	4664      	mov	r4, ip
100086d2:	602b      	str	r3, [r5, #0]
100086d4:	f7fc f86c 	bl	100047b0 <_lseek>
100086d8:	1c43      	adds	r3, r0, #1
100086da:	d000      	beq.n	100086de <_lseek_r+0x1e>
100086dc:	bd38      	pop	{r3, r4, r5, pc}
100086de:	682b      	ldr	r3, [r5, #0]
100086e0:	2b00      	cmp	r3, #0
100086e2:	d0fb      	beq.n	100086dc <_lseek_r+0x1c>
100086e4:	6023      	str	r3, [r4, #0]
100086e6:	bd38      	pop	{r3, r4, r5, pc}
100086e8:	20002580 	.word	0x20002580

100086ec <_read_r>:
100086ec:	b538      	push	{r3, r4, r5, lr}
100086ee:	460c      	mov	r4, r1
100086f0:	4684      	mov	ip, r0
100086f2:	4611      	mov	r1, r2
100086f4:	4d07      	ldr	r5, [pc, #28]	@ (10008714 <_read_r+0x28>)
100086f6:	461a      	mov	r2, r3
100086f8:	2300      	movs	r3, #0
100086fa:	4620      	mov	r0, r4
100086fc:	4664      	mov	r4, ip
100086fe:	602b      	str	r3, [r5, #0]
10008700:	f7fc f834 	bl	1000476c <_read>
10008704:	1c43      	adds	r3, r0, #1
10008706:	d000      	beq.n	1000870a <_read_r+0x1e>
10008708:	bd38      	pop	{r3, r4, r5, pc}
1000870a:	682b      	ldr	r3, [r5, #0]
1000870c:	2b00      	cmp	r3, #0
1000870e:	d0fb      	beq.n	10008708 <_read_r+0x1c>
10008710:	6023      	str	r3, [r4, #0]
10008712:	bd38      	pop	{r3, r4, r5, pc}
10008714:	20002580 	.word	0x20002580

10008718 <_write_r>:
10008718:	b538      	push	{r3, r4, r5, lr}
1000871a:	460c      	mov	r4, r1
1000871c:	4684      	mov	ip, r0
1000871e:	4611      	mov	r1, r2
10008720:	4d07      	ldr	r5, [pc, #28]	@ (10008740 <_write_r+0x28>)
10008722:	461a      	mov	r2, r3
10008724:	2300      	movs	r3, #0
10008726:	4620      	mov	r0, r4
10008728:	4664      	mov	r4, ip
1000872a:	602b      	str	r3, [r5, #0]
1000872c:	f7fc f82c 	bl	10004788 <_write>
10008730:	1c43      	adds	r3, r0, #1
10008732:	d000      	beq.n	10008736 <_write_r+0x1e>
10008734:	bd38      	pop	{r3, r4, r5, pc}
10008736:	682b      	ldr	r3, [r5, #0]
10008738:	2b00      	cmp	r3, #0
1000873a:	d0fb      	beq.n	10008734 <_write_r+0x1c>
1000873c:	6023      	str	r3, [r4, #0]
1000873e:	bd38      	pop	{r3, r4, r5, pc}
10008740:	20002580 	.word	0x20002580

10008744 <_fini>:
10008744:	b5f8      	push	{r3, r4, r5, r6, r7, lr}
10008746:	bf00      	nop

10008748 <__mutex_enter_timeout_ms_veneer>:
10008748:	f85f f000 	ldr.w	pc, [pc]	@ 1000874c <__mutex_enter_timeout_ms_veneer+0x4>
1000874c:	200002b5 	.word	0x200002b5

10008750 <__hw_endpoint_start_next_buffer_veneer>:
10008750:	f85f f000 	ldr.w	pc, [pc]	@ 10008754 <__hw_endpoint_start_next_buffer_veneer+0x4>
10008754:	20000b8d 	.word	0x20000b8d

10008758 <____aeabi_f2d_veneer>:
10008758:	f85f f000 	ldr.w	pc, [pc]	@ 1000875c <____aeabi_f2d_veneer+0x4>
1000875c:	20001119 	.word	0x20001119

10008760 <____aeabi_uldivmod_veneer>:
10008760:	f85f f000 	ldr.w	pc, [pc]	@ 10008764 <____aeabi_uldivmod_veneer+0x4>
10008764:	20001269 	.word	0x20001269

10008768 <__mutex_exit_veneer>:
10008768:	f85f f000 	ldr.w	pc, [pc]	@ 1000876c <__mutex_exit_veneer+0x4>
1000876c:	200002ed 	.word	0x200002ed

10008770 <____aeabi_ldivmod_veneer>:
10008770:	f85f f000 	ldr.w	pc, [pc]	@ 10008774 <____aeabi_ldivmod_veneer+0x4>
10008774:	200011c9 	.word	0x200011c9

10008778 <__e15_is_critical_frame_period_veneer>:
10008778:	f85f f000 	ldr.w	pc, [pc]	@ 1000877c <__e15_is_critical_frame_period_veneer+0x4>
1000877c:	20000b15 	.word	0x20000b15

10008780 <__mutex_enter_blocking_veneer>:
10008780:	f85f f000 	ldr.w	pc, [pc]	@ 10008784 <__mutex_enter_blocking_veneer+0x4>
10008784:	20000111 	.word	0x20000111

10008788 <___hw_endpoint_buffer_control_update32_veneer>:
10008788:	f85f f000 	ldr.w	pc, [pc]	@ 1000878c <___hw_endpoint_buffer_control_update32_veneer+0x4>
1000878c:	20000b49 	.word	0x20000b49

10008790 <__mutex_try_enter_block_until_veneer>:
10008790:	f85f f000 	ldr.w	pc, [pc]	@ 10008794 <__mutex_try_enter_block_until_veneer+0x4>
10008794:	2000024d 	.word	0x2000024d

10008798 <__reset_non_control_endpoints_veneer>:
10008798:	f85f f000 	ldr.w	pc, [pc]	@ 1000879c <__reset_non_control_endpoints_veneer+0x4>
1000879c:	20000329 	.word	0x20000329

100087a0 <__e15_is_bulkin_ep_veneer>:
100087a0:	f85f f000 	ldr.w	pc, [pc]	@ 100087a4 <__e15_is_bulkin_ep_veneer+0x4>
100087a4:	20000aed 	.word	0x20000aed

100087a8 <__mutex_try_enter_veneer>:
100087a8:	f85f f000 	ldr.w	pc, [pc]	@ 100087ac <__mutex_try_enter_veneer+0x4>
100087ac:	20000191 	.word	0x20000191

100087b0 <__pre_init_runtime_init_bootrom_reset>:
100087b0:	1000196d                                m...

100087b4 <__pre_init_runtime_init_early_resets>:
100087b4:	100018e1                                ....

100087b8 <__pre_init_runtime_init_usb_power_down>:
100087b8:	10001915                                ....

100087bc <__pre_init_runtime_init_clocks>:
100087bc:	100019b9                                ....

100087c0 <__pre_init_runtime_init_post_clock_resets>:
100087c0:	1000194d                                M...

100087c4 <__pre_init_runtime_init_boot_locks_reset>:
100087c4:	10001845                                E...

100087c8 <__pre_init_runtime_init_spin_locks_reset>:
100087c8:	10001995                                ....

100087cc <__pre_init_runtime_init_bootrom_locking_enable>:
100087cc:	10001831                                1...

100087d0 <__pre_init_runtime_init_mutex>:
100087d0:	10000c45                                E...

100087d4 <__pre_init_runtime_init_install_ram_vector_table>:
100087d4:	10001999                                ....

100087d8 <__pre_init_runtime_init_default_alarm_pool>:
100087d8:	10001009                                ....

100087dc <__pre_init_first_per_core_initializer>:
100087dc:	10001891                                ....

100087e0 <__pre_init_runtime_init_per_core_bootrom_reset>:
100087e0:	10001981                                ....

100087e4 <__pre_init_runtime_init_per_core_enable_coprocessors>:
100087e4:	10001931                                1...

100087e8 <__pre_init_spinlock_set_extexclall>:
100087e8:	10000821                                !...

100087ec <__pre_init_runtime_init_per_core_irq_priorities>:
100087ec:	10000849                                I...

100087f0 <__frame_dummy_init_array_entry>:
100087f0:	10000219 10005251                       ....QR..

Disassembly of section .data:

20000110 <mutex_enter_blocking>:
20000110:	f04f 4350 	mov.w	r3, #3489660928	@ 0xd0000000
20000114:	b510      	push	{r4, lr}
20000116:	6802      	ldr	r2, [r0, #0]
20000118:	f993 4000 	ldrsb.w	r4, [r3]
2000011c:	f3ef 8310 	mrs	r3, PRIMASK
20000120:	b672      	cpsid	i
20000122:	e8d2 cfcf 	ldaexb	ip, [r2]
20000126:	2101      	movs	r1, #1
20000128:	f1bc 0f00 	cmp.w	ip, #0
2000012c:	d1f9      	bne.n	20000122 <mutex_enter_blocking+0x12>
2000012e:	e8c2 1f4c 	strexb	ip, r1, [r2]
20000132:	f1bc 0f00 	cmp.w	ip, #0
20000136:	d1f4      	bne.n	20000122 <mutex_enter_blocking+0x12>
20000138:	f3bf 8f5f 	dmb	sy
2000013c:	f990 2004 	ldrsb.w	r2, [r0, #4]
20000140:	2a00      	cmp	r2, #0
20000142:	db1c      	blt.n	2000017e <mutex_enter_blocking+0x6e>
20000144:	2100      	movs	r1, #0
20000146:	6802      	ldr	r2, [r0, #0]
20000148:	e8c2 1f8f 	stlb	r1, [r2]
2000014c:	f383 8810 	msr	PRIMASK, r3
20000150:	bf20      	wfe
20000152:	6802      	ldr	r2, [r0, #0]
20000154:	f3ef 8310 	mrs	r3, PRIMASK
20000158:	b672      	cpsid	i
2000015a:	e8d2 efcf 	ldaexb	lr, [r2]
2000015e:	f05f 0c01 	movs.w	ip, #1
20000162:	f1be 0f00 	cmp.w	lr, #0
20000166:	d1f8      	bne.n	2000015a <mutex_enter_blocking+0x4a>
20000168:	e8c2 cf4e 	strexb	lr, ip, [r2]
2000016c:	f1be 0f00 	cmp.w	lr, #0
20000170:	d1f3      	bne.n	2000015a <mutex_enter_blocking+0x4a>
20000172:	f3bf 8f5f 	dmb	sy
20000176:	f990 2004 	ldrsb.w	r2, [r0, #4]
2000017a:	2a00      	cmp	r2, #0
2000017c:	dae3      	bge.n	20000146 <mutex_enter_blocking+0x36>
2000017e:	2200      	movs	r2, #0
20000180:	6801      	ldr	r1, [r0, #0]
20000182:	7104      	strb	r4, [r0, #4]
20000184:	e8c1 2f8f 	stlb	r2, [r1]
20000188:	f383 8810 	msr	PRIMASK, r3
2000018c:	bd10      	pop	{r4, pc}
2000018e:	bf00      	nop

20000190 <mutex_try_enter>:
20000190:	4603      	mov	r3, r0
20000192:	b500      	push	{lr}
20000194:	6802      	ldr	r2, [r0, #0]
20000196:	f3ef 8c10 	mrs	ip, PRIMASK
2000019a:	b672      	cpsid	i
2000019c:	e8d2 efcf 	ldaexb	lr, [r2]
200001a0:	2001      	movs	r0, #1
200001a2:	f1be 0f00 	cmp.w	lr, #0
200001a6:	d1f9      	bne.n	2000019c <mutex_try_enter+0xc>
200001a8:	e8c2 0f4e 	strexb	lr, r0, [r2]
200001ac:	f1be 0f00 	cmp.w	lr, #0
200001b0:	d1f4      	bne.n	2000019c <mutex_try_enter+0xc>
200001b2:	f3bf 8f5f 	dmb	sy
200001b6:	f993 2004 	ldrsb.w	r2, [r3, #4]
200001ba:	2a00      	cmp	r2, #0
200001bc:	db0a      	blt.n	200001d4 <mutex_try_enter+0x44>
200001be:	b101      	cbz	r1, 200001c2 <mutex_try_enter+0x32>
200001c0:	600a      	str	r2, [r1, #0]
200001c2:	2000      	movs	r0, #0
200001c4:	2200      	movs	r2, #0
200001c6:	681b      	ldr	r3, [r3, #0]
200001c8:	e8c3 2f8f 	stlb	r2, [r3]
200001cc:	f38c 8810 	msr	PRIMASK, ip
200001d0:	f85d fb04 	ldr.w	pc, [sp], #4
200001d4:	f04f 4250 	mov.w	r2, #3489660928	@ 0xd0000000
200001d8:	6812      	ldr	r2, [r2, #0]
200001da:	2001      	movs	r0, #1
200001dc:	711a      	strb	r2, [r3, #4]
200001de:	e7f1      	b.n	200001c4 <mutex_try_enter+0x34>

200001e0 <mutex_enter_block_until>:
200001e0:	f04f 4150 	mov.w	r1, #3489660928	@ 0xd0000000
200001e4:	e92d 41f0 	stmdb	sp!, {r4, r5, r6, r7, r8, lr}
200001e8:	2700      	movs	r7, #0
200001ea:	4604      	mov	r4, r0
200001ec:	4616      	mov	r6, r2
200001ee:	461d      	mov	r5, r3
200001f0:	f8d1 8000 	ldr.w	r8, [r1]
200001f4:	e008      	b.n	20000208 <mutex_enter_block_until+0x28>
200001f6:	e8c1 7f8f 	stlb	r7, [r1]
200001fa:	f38c 8810 	msr	PRIMASK, ip
200001fe:	4630      	mov	r0, r6
20000200:	4629      	mov	r1, r5
20000202:	f001 fa05 	bl	20001610 <__best_effort_wfe_or_timeout_veneer>
20000206:	b9e8      	cbnz	r0, 20000244 <mutex_enter_block_until+0x64>
20000208:	6821      	ldr	r1, [r4, #0]
2000020a:	f3ef 8c10 	mrs	ip, PRIMASK
2000020e:	b672      	cpsid	i
20000210:	e8d1 2fcf 	ldaexb	r2, [r1]
20000214:	2301      	movs	r3, #1
20000216:	2a00      	cmp	r2, #0
20000218:	d1fa      	bne.n	20000210 <mutex_enter_block_until+0x30>
2000021a:	e8c1 3f42 	strexb	r2, r3, [r1]
2000021e:	2a00      	cmp	r2, #0
20000220:	d1f6      	bne.n	20000210 <mutex_enter_block_until+0x30>
20000222:	f3bf 8f5f 	dmb	sy
20000226:	f994 3004 	ldrsb.w	r3, [r4, #4]
2000022a:	6821      	ldr	r1, [r4, #0]
2000022c:	2b00      	cmp	r3, #0
2000022e:	dae2      	bge.n	200001f6 <mutex_enter_block_until+0x16>
20000230:	2300      	movs	r3, #0
20000232:	f884 8004 	strb.w	r8, [r4, #4]
20000236:	e8c1 3f8f 	stlb	r3, [r1]
2000023a:	f38c 8810 	msr	PRIMASK, ip
2000023e:	2001      	movs	r0, #1
20000240:	e8bd 81f0 	ldmia.w	sp!, {r4, r5, r6, r7, r8, pc}
20000244:	2000      	movs	r0, #0
20000246:	e8bd 81f0 	ldmia.w	sp!, {r4, r5, r6, r7, r8, pc}
2000024a:	bf00      	nop

2000024c <mutex_try_enter_block_until>:
2000024c:	b530      	push	{r4, r5, lr}
2000024e:	6804      	ldr	r4, [r0, #0]
20000250:	f3ef 8c10 	mrs	ip, PRIMASK
20000254:	b672      	cpsid	i
20000256:	e8d4 efcf 	ldaexb	lr, [r4]
2000025a:	2501      	movs	r5, #1
2000025c:	f1be 0f00 	cmp.w	lr, #0
20000260:	d1f9      	bne.n	20000256 <mutex_try_enter_block_until+0xa>
20000262:	e8c4 5f4e 	strexb	lr, r5, [r4]
20000266:	f1be 0f00 	cmp.w	lr, #0
2000026a:	d1f4      	bne.n	20000256 <mutex_try_enter_block_until+0xa>
2000026c:	f3bf 8f5f 	dmb	sy
20000270:	f990 4004 	ldrsb.w	r4, [r0, #4]
20000274:	6805      	ldr	r5, [r0, #0]
20000276:	2c00      	cmp	r4, #0
20000278:	db10      	blt.n	2000029c <mutex_try_enter_block_until+0x50>
2000027a:	2100      	movs	r1, #0
2000027c:	e8c5 1f8f 	stlb	r1, [r5]
20000280:	f38c 8810 	msr	PRIMASK, ip
20000284:	f04f 4550 	mov.w	r5, #3489660928	@ 0xd0000000
20000288:	f995 5000 	ldrsb.w	r5, [r5]
2000028c:	42a5      	cmp	r5, r4
2000028e:	d101      	bne.n	20000294 <mutex_try_enter_block_until+0x48>
20000290:	4608      	mov	r0, r1
20000292:	bd30      	pop	{r4, r5, pc}
20000294:	e8bd 4030 	ldmia.w	sp!, {r4, r5, lr}
20000298:	f7ff bfa2 	b.w	200001e0 <mutex_enter_block_until>
2000029c:	f04f 4250 	mov.w	r2, #3489660928	@ 0xd0000000
200002a0:	6812      	ldr	r2, [r2, #0]
200002a2:	2300      	movs	r3, #0
200002a4:	7102      	strb	r2, [r0, #4]
200002a6:	e8c5 3f8f 	stlb	r3, [r5]
200002aa:	f38c 8810 	msr	PRIMASK, ip
200002ae:	2001      	movs	r0, #1
200002b0:	bd30      	pop	{r4, r5, pc}
200002b2:	bf00      	nop

200002b4 <mutex_enter_timeout_ms>:
200002b4:	b570      	push	{r4, r5, r6, lr}
200002b6:	4605      	mov	r5, r0
200002b8:	460c      	mov	r4, r1
200002ba:	f001 f99d 	bl	200015f8 <__time_us_64_veneer>
200002be:	4602      	mov	r2, r0
200002c0:	460b      	mov	r3, r1
200002c2:	f44f 707a 	mov.w	r0, #1000	@ 0x3e8
200002c6:	f04f 3eff 	mov.w	lr, #4294967295	@ 0xffffffff
200002ca:	f06f 4c00 	mvn.w	ip, #2147483648	@ 0x80000000
200002ce:	fbe4 2300 	umlal	r2, r3, r4, r0
200002d2:	4596      	cmp	lr, r2
200002d4:	eb7c 0103 	sbcs.w	r1, ip, r3
200002d8:	bf38      	it	cc
200002da:	4672      	movcc	r2, lr
200002dc:	4628      	mov	r0, r5
200002de:	e8bd 4070 	ldmia.w	sp!, {r4, r5, r6, lr}
200002e2:	bf38      	it	cc
200002e4:	4663      	movcc	r3, ip
200002e6:	f7ff bf7b 	b.w	200001e0 <mutex_enter_block_until>
200002ea:	bf00      	nop

200002ec <mutex_exit>:
200002ec:	6803      	ldr	r3, [r0, #0]
200002ee:	f3ef 8210 	mrs	r2, PRIMASK
200002f2:	b672      	cpsid	i
200002f4:	e8d3 cfcf 	ldaexb	ip, [r3]
200002f8:	2101      	movs	r1, #1
200002fa:	f1bc 0f00 	cmp.w	ip, #0
200002fe:	d1f9      	bne.n	200002f4 <mutex_exit+0x8>
20000300:	e8c3 1f4c 	strexb	ip, r1, [r3]
20000304:	f1bc 0f00 	cmp.w	ip, #0
20000308:	d1f4      	bne.n	200002f4 <mutex_exit+0x8>
2000030a:	f3bf 8f5f 	dmb	sy
2000030e:	f04f 0cff 	mov.w	ip, #255	@ 0xff
20000312:	2300      	movs	r3, #0
20000314:	6801      	ldr	r1, [r0, #0]
20000316:	f880 c004 	strb.w	ip, [r0, #4]
2000031a:	e8c1 3f8f 	stlb	r3, [r1]
2000031e:	f382 8810 	msr	PRIMASK, r2
20000322:	bf40      	sev
20000324:	4770      	bx	lr
20000326:	bf00      	nop

20000328 <reset_non_control_endpoints>:
20000328:	2100      	movs	r1, #0
2000032a:	b508      	push	{r3, lr}
2000032c:	4b13      	ldr	r3, [pc, #76]	@ (2000037c <reset_non_control_endpoints+0x54>)
2000032e:	f44f 7270 	mov.w	r2, #960	@ 0x3c0
20000332:	6099      	str	r1, [r3, #8]
20000334:	4812      	ldr	r0, [pc, #72]	@ (20000380 <reset_non_control_endpoints+0x58>)
20000336:	60d9      	str	r1, [r3, #12]
20000338:	6119      	str	r1, [r3, #16]
2000033a:	6159      	str	r1, [r3, #20]
2000033c:	6199      	str	r1, [r3, #24]
2000033e:	61d9      	str	r1, [r3, #28]
20000340:	6219      	str	r1, [r3, #32]
20000342:	6259      	str	r1, [r3, #36]	@ 0x24
20000344:	6299      	str	r1, [r3, #40]	@ 0x28
20000346:	62d9      	str	r1, [r3, #44]	@ 0x2c
20000348:	6319      	str	r1, [r3, #48]	@ 0x30
2000034a:	6359      	str	r1, [r3, #52]	@ 0x34
2000034c:	6399      	str	r1, [r3, #56]	@ 0x38
2000034e:	63d9      	str	r1, [r3, #60]	@ 0x3c
20000350:	6419      	str	r1, [r3, #64]	@ 0x40
20000352:	6459      	str	r1, [r3, #68]	@ 0x44
20000354:	6499      	str	r1, [r3, #72]	@ 0x48
20000356:	64d9      	str	r1, [r3, #76]	@ 0x4c
20000358:	6519      	str	r1, [r3, #80]	@ 0x50
2000035a:	6559      	str	r1, [r3, #84]	@ 0x54
2000035c:	6599      	str	r1, [r3, #88]	@ 0x58
2000035e:	65d9      	str	r1, [r3, #92]	@ 0x5c
20000360:	6619      	str	r1, [r3, #96]	@ 0x60
20000362:	6659      	str	r1, [r3, #100]	@ 0x64
20000364:	6699      	str	r1, [r3, #104]	@ 0x68
20000366:	66d9      	str	r1, [r3, #108]	@ 0x6c
20000368:	6719      	str	r1, [r3, #112]	@ 0x70
2000036a:	6759      	str	r1, [r3, #116]	@ 0x74
2000036c:	6799      	str	r1, [r3, #120]	@ 0x78
2000036e:	67d9      	str	r1, [r3, #124]	@ 0x7c
20000370:	f001 f94a 	bl	20001608 <__memset_veneer>
20000374:	4b03      	ldr	r3, [pc, #12]	@ (20000384 <reset_non_control_endpoints+0x5c>)
20000376:	4a04      	ldr	r2, [pc, #16]	@ (20000388 <reset_non_control_endpoints+0x60>)
20000378:	601a      	str	r2, [r3, #0]
2000037a:	bd08      	pop	{r3, pc}
2000037c:	50100000 	.word	0x50100000
20000380:	200025cc 	.word	0x200025cc
20000384:	20002994 	.word	0x20002994
20000388:	50100180 	.word	0x50100180

2000038c <hw_handle_buff_status>:
2000038c:	e92d 4ff0 	stmdb	sp!, {r4, r5, r6, r7, r8, r9, sl, fp, lr}
20000390:	4b1f      	ldr	r3, [pc, #124]	@ (20000410 <hw_handle_buff_status+0x84>)
20000392:	b085      	sub	sp, #20
20000394:	f8d3 a058 	ldr.w	sl, [r3, #88]	@ 0x58
20000398:	f1ba 0f00 	cmp.w	sl, #0
2000039c:	d022      	beq.n	200003e4 <hw_handle_buff_status+0x58>
2000039e:	2400      	movs	r4, #0
200003a0:	2501      	movs	r5, #1
200003a2:	f44f 69e0 	mov.w	r9, #1792	@ 0x700
200003a6:	f8df 8070 	ldr.w	r8, [pc, #112]	@ 20000418 <hw_handle_buff_status+0x8c>
200003aa:	4f1a      	ldr	r7, [pc, #104]	@ (20000414 <hw_handle_buff_status+0x88>)
200003ac:	e001      	b.n	200003b2 <hw_handle_buff_status+0x26>
200003ae:	2c20      	cmp	r4, #32
200003b0:	d018      	beq.n	200003e4 <hw_handle_buff_status+0x58>
200003b2:	ea0a 0205 	and.w	r2, sl, r5
200003b6:	1c61      	adds	r1, r4, #1
200003b8:	4623      	mov	r3, r4
200003ba:	46ab      	mov	fp, r5
200003bc:	b2cc      	uxtb	r4, r1
200003be:	006d      	lsls	r5, r5, #1
200003c0:	2a00      	cmp	r2, #0
200003c2:	d0f4      	beq.n	200003ae <hw_handle_buff_status+0x22>
200003c4:	f004 0201 	and.w	r2, r4, #1
200003c8:	f003 06fe 	and.w	r6, r3, #254	@ 0xfe
200003cc:	4416      	add	r6, r2
200003ce:	eb07 1646 	add.w	r6, r7, r6, lsl #5
200003d2:	4630      	mov	r0, r6
200003d4:	f8c8 b058 	str.w	fp, [r8, #88]	@ 0x58
200003d8:	f000 fc0a 	bl	20000bf0 <hw_endpoint_xfer_continue>
200003dc:	b928      	cbnz	r0, 200003ea <hw_handle_buff_status+0x5e>
200003de:	ea3a 0a0b 	bics.w	sl, sl, fp
200003e2:	d1e4      	bne.n	200003ae <hw_handle_buff_status+0x22>
200003e4:	b005      	add	sp, #20
200003e6:	e8bd 8ff0 	ldmia.w	sp!, {r4, r5, r6, r7, r8, r9, sl, fp, pc}
200003ea:	2300      	movs	r3, #0
200003ec:	f88d 3009 	strb.w	r3, [sp, #9]
200003f0:	78b3      	ldrb	r3, [r6, #2]
200003f2:	a801      	add	r0, sp, #4
200003f4:	f88d 3008 	strb.w	r3, [sp, #8]
200003f8:	8af3      	ldrh	r3, [r6, #22]
200003fa:	2101      	movs	r1, #1
200003fc:	f8ad 9004 	strh.w	r9, [sp, #4]
20000400:	9303      	str	r3, [sp, #12]
20000402:	f000 fc13 	bl	20000c2c <dcd_event_handler>
20000406:	4630      	mov	r0, r6
20000408:	f000 fb98 	bl	20000b3c <hw_endpoint_reset_transfer>
2000040c:	e7e7      	b.n	200003de <hw_handle_buff_status+0x52>
2000040e:	bf00      	nop
20000410:	50110000 	.word	0x50110000
20000414:	2000258c 	.word	0x2000258c
20000418:	50113000 	.word	0x50113000

2000041c <dcd_rp2040_irq>:
2000041c:	b5f0      	push	{r4, r5, r6, r7, lr}
2000041e:	4bbb      	ldr	r3, [pc, #748]	@ (2000070c <dcd_rp2040_irq+0x2f0>)
20000420:	b085      	sub	sp, #20
20000422:	f8d3 5098 	ldr.w	r5, [r3, #152]	@ 0x98
20000426:	f415 3600 	ands.w	r6, r5, #131072	@ 0x20000
2000042a:	d074      	beq.n	20000516 <dcd_rp2040_irq+0xfa>
2000042c:	4bb8      	ldr	r3, [pc, #736]	@ (20000710 <dcd_rp2040_irq+0x2f4>)
2000042e:	4cb9      	ldr	r4, [pc, #740]	@ (20000714 <dcd_rp2040_irq+0x2f8>)
20000430:	6a99      	ldr	r1, [r3, #40]	@ 0x28
20000432:	f894 303b 	ldrb.w	r3, [r4, #59]	@ 0x3b
20000436:	4ab8      	ldr	r2, [pc, #736]	@ (20000718 <dcd_rp2040_irq+0x2fc>)
20000438:	2b02      	cmp	r3, #2
2000043a:	6011      	str	r1, [r2, #0]
2000043c:	f000 80d4 	beq.w	200005e8 <dcd_rp2040_irq+0x1cc>
20000440:	2600      	movs	r6, #0
20000442:	f894 307b 	ldrb.w	r3, [r4, #123]	@ 0x7b
20000446:	2b02      	cmp	r3, #2
20000448:	f000 813b 	beq.w	200006c2 <dcd_rp2040_irq+0x2a6>
2000044c:	f894 30bb 	ldrb.w	r3, [r4, #187]	@ 0xbb
20000450:	2b02      	cmp	r3, #2
20000452:	f000 817d 	beq.w	20000750 <dcd_rp2040_irq+0x334>
20000456:	f894 30fb 	ldrb.w	r3, [r4, #251]	@ 0xfb
2000045a:	2b02      	cmp	r3, #2
2000045c:	f000 816c 	beq.w	20000738 <dcd_rp2040_irq+0x31c>
20000460:	f894 313b 	ldrb.w	r3, [r4, #315]	@ 0x13b
20000464:	2b02      	cmp	r3, #2
20000466:	f000 8144 	beq.w	200006f2 <dcd_rp2040_irq+0x2d6>
2000046a:	f894 317b 	ldrb.w	r3, [r4, #379]	@ 0x17b
2000046e:	2b02      	cmp	r3, #2
20000470:	f000 8133 	beq.w	200006da <dcd_rp2040_irq+0x2be>
20000474:	f894 31bb 	ldrb.w	r3, [r4, #443]	@ 0x1bb
20000478:	2b02      	cmp	r3, #2
2000047a:	f000 81b6 	beq.w	200007ea <dcd_rp2040_irq+0x3ce>
2000047e:	f894 31fb 	ldrb.w	r3, [r4, #507]	@ 0x1fb
20000482:	2b02      	cmp	r3, #2
20000484:	f000 81a6 	beq.w	200007d4 <dcd_rp2040_irq+0x3b8>
20000488:	f894 323b 	ldrb.w	r3, [r4, #571]	@ 0x23b
2000048c:	2b02      	cmp	r3, #2
2000048e:	f000 8196 	beq.w	200007be <dcd_rp2040_irq+0x3a2>
20000492:	f894 327b 	ldrb.w	r3, [r4, #635]	@ 0x27b
20000496:	2b02      	cmp	r3, #2
20000498:	f000 8186 	beq.w	200007a8 <dcd_rp2040_irq+0x38c>
2000049c:	f894 32bb 	ldrb.w	r3, [r4, #699]	@ 0x2bb
200004a0:	2b02      	cmp	r3, #2
200004a2:	f000 8176 	beq.w	20000792 <dcd_rp2040_irq+0x376>
200004a6:	f894 32fb 	ldrb.w	r3, [r4, #763]	@ 0x2fb
200004aa:	2b02      	cmp	r3, #2
200004ac:	f000 8166 	beq.w	2000077c <dcd_rp2040_irq+0x360>
200004b0:	f894 333b 	ldrb.w	r3, [r4, #827]	@ 0x33b
200004b4:	2b02      	cmp	r3, #2
200004b6:	f000 8156 	beq.w	20000766 <dcd_rp2040_irq+0x34a>
200004ba:	f894 337b 	ldrb.w	r3, [r4, #891]	@ 0x37b
200004be:	2b02      	cmp	r3, #2
200004c0:	f000 80a4 	beq.w	2000060c <dcd_rp2040_irq+0x1f0>
200004c4:	f894 33bb 	ldrb.w	r3, [r4, #955]	@ 0x3bb
200004c8:	2b02      	cmp	r3, #2
200004ca:	f000 8199 	beq.w	20000800 <dcd_rp2040_irq+0x3e4>
200004ce:	f894 33fb 	ldrb.w	r3, [r4, #1019]	@ 0x3fb
200004d2:	2b02      	cmp	r3, #2
200004d4:	f000 80b4 	beq.w	20000640 <dcd_rp2040_irq+0x224>
200004d8:	b93e      	cbnz	r6, 200004ea <dcd_rp2040_irq+0xce>
200004da:	4b90      	ldr	r3, [pc, #576]	@ (2000071c <dcd_rp2040_irq+0x300>)
200004dc:	781b      	ldrb	r3, [r3, #0]
200004de:	b923      	cbnz	r3, 200004ea <dcd_rp2040_irq+0xce>
200004e0:	f44f 3200 	mov.w	r2, #131072	@ 0x20000
200004e4:	4b8e      	ldr	r3, [pc, #568]	@ (20000720 <dcd_rp2040_irq+0x304>)
200004e6:	f8c3 2090 	str.w	r2, [r3, #144]	@ 0x90
200004ea:	f44f 7240 	mov.w	r2, #768	@ 0x300
200004ee:	4b87      	ldr	r3, [pc, #540]	@ (2000070c <dcd_rp2040_irq+0x2f0>)
200004f0:	2101      	movs	r1, #1
200004f2:	6c9b      	ldr	r3, [r3, #72]	@ 0x48
200004f4:	a801      	add	r0, sp, #4
200004f6:	f3c3 030a 	ubfx	r3, r3, #0, #11
200004fa:	f8ad 2004 	strh.w	r2, [sp, #4]
200004fe:	9302      	str	r3, [sp, #8]
20000500:	f000 fb94 	bl	20000c2c <dcd_event_handler>
20000504:	06ea      	lsls	r2, r5, #27
20000506:	f44f 3600 	mov.w	r6, #131072	@ 0x20000
2000050a:	4c86      	ldr	r4, [pc, #536]	@ (20000724 <dcd_rp2040_irq+0x308>)
2000050c:	d507      	bpl.n	2000051e <dcd_rp2040_irq+0x102>
2000050e:	f7ff ff3d 	bl	2000038c <hw_handle_buff_status>
20000512:	4626      	mov	r6, r4
20000514:	e003      	b.n	2000051e <dcd_rp2040_irq+0x102>
20000516:	06ea      	lsls	r2, r5, #27
20000518:	f04f 0410 	mov.w	r4, #16
2000051c:	d4f7      	bmi.n	2000050e <dcd_rp2040_irq+0xf2>
2000051e:	03eb      	lsls	r3, r5, #15
20000520:	d522      	bpl.n	20000568 <dcd_rp2040_irq+0x14c>
20000522:	4c7c      	ldr	r4, [pc, #496]	@ (20000714 <dcd_rp2040_irq+0x2f8>)
20000524:	f446 3680 	orr.w	r6, r6, #65536	@ 0x10000
20000528:	7ea3      	ldrb	r3, [r4, #26]
2000052a:	2b00      	cmp	r3, #0
2000052c:	f040 8099 	bne.w	20000662 <dcd_rp2040_irq+0x246>
20000530:	2301      	movs	r3, #1
20000532:	f894 203a 	ldrb.w	r2, [r4, #58]	@ 0x3a
20000536:	70e3      	strb	r3, [r4, #3]
20000538:	2a00      	cmp	r2, #0
2000053a:	f040 80ad 	bne.w	20000698 <dcd_rp2040_irq+0x27c>
2000053e:	2301      	movs	r3, #1
20000540:	f44f 61c0 	mov.w	r1, #1536	@ 0x600
20000544:	4a78      	ldr	r2, [pc, #480]	@ (20000728 <dcd_rp2040_irq+0x30c>)
20000546:	f884 3023 	strb.w	r3, [r4, #35]	@ 0x23
2000054a:	f8ad 1004 	strh.w	r1, [sp, #4]
2000054e:	e892 0003 	ldmia.w	r2, {r0, r1}
20000552:	aa04      	add	r2, sp, #16
20000554:	e902 0003 	stmdb	r2, {r0, r1}
20000558:	4619      	mov	r1, r3
2000055a:	a801      	add	r0, sp, #4
2000055c:	f000 fb66 	bl	20000c2c <dcd_event_handler>
20000560:	f44f 3200 	mov.w	r2, #131072	@ 0x20000
20000564:	4b6e      	ldr	r3, [pc, #440]	@ (20000720 <dcd_rp2040_irq+0x304>)
20000566:	651a      	str	r2, [r3, #80]	@ 0x50
20000568:	04e9      	lsls	r1, r5, #19
2000056a:	d408      	bmi.n	2000057e <dcd_rp2040_irq+0x162>
2000056c:	046a      	lsls	r2, r5, #17
2000056e:	d41d      	bmi.n	200005ac <dcd_rp2040_irq+0x190>
20000570:	042b      	lsls	r3, r5, #16
20000572:	d42a      	bmi.n	200005ca <dcd_rp2040_irq+0x1ae>
20000574:	42ae      	cmp	r6, r5
20000576:	f040 81c5 	bne.w	20000904 <dcd_rp2040_irq+0x4e8>
2000057a:	b005      	add	sp, #20
2000057c:	bdf0      	pop	{r4, r5, r6, r7, pc}
2000057e:	2400      	movs	r4, #0
20000580:	4b62      	ldr	r3, [pc, #392]	@ (2000070c <dcd_rp2040_irq+0x2f0>)
20000582:	f446 5680 	orr.w	r6, r6, #4096	@ 0x1000
20000586:	601c      	str	r4, [r3, #0]
20000588:	f7ff fece 	bl	20000328 <reset_non_control_endpoints>
2000058c:	f44f 7380 	mov.w	r3, #256	@ 0x100
20000590:	2101      	movs	r1, #1
20000592:	a801      	add	r0, sp, #4
20000594:	f8ad 3004 	strh.w	r3, [sp, #4]
20000598:	f88d 4008 	strb.w	r4, [sp, #8]
2000059c:	f000 fb46 	bl	20000c2c <dcd_event_handler>
200005a0:	f44f 2200 	mov.w	r2, #524288	@ 0x80000
200005a4:	4b5e      	ldr	r3, [pc, #376]	@ (20000720 <dcd_rp2040_irq+0x304>)
200005a6:	651a      	str	r2, [r3, #80]	@ 0x50
200005a8:	046a      	lsls	r2, r5, #17
200005aa:	d5e1      	bpl.n	20000570 <dcd_rp2040_irq+0x154>
200005ac:	f44f 6380 	mov.w	r3, #1024	@ 0x400
200005b0:	2101      	movs	r1, #1
200005b2:	a801      	add	r0, sp, #4
200005b4:	f8ad 3004 	strh.w	r3, [sp, #4]
200005b8:	f000 fb38 	bl	20000c2c <dcd_event_handler>
200005bc:	2210      	movs	r2, #16
200005be:	4b58      	ldr	r3, [pc, #352]	@ (20000720 <dcd_rp2040_irq+0x304>)
200005c0:	f446 4680 	orr.w	r6, r6, #16384	@ 0x4000
200005c4:	651a      	str	r2, [r3, #80]	@ 0x50
200005c6:	042b      	lsls	r3, r5, #16
200005c8:	d5d4      	bpl.n	20000574 <dcd_rp2040_irq+0x158>
200005ca:	f44f 63a0 	mov.w	r3, #1280	@ 0x500
200005ce:	2101      	movs	r1, #1
200005d0:	a801      	add	r0, sp, #4
200005d2:	f8ad 3004 	strh.w	r3, [sp, #4]
200005d6:	f000 fb29 	bl	20000c2c <dcd_event_handler>
200005da:	f44f 6200 	mov.w	r2, #2048	@ 0x800
200005de:	4b50      	ldr	r3, [pc, #320]	@ (20000720 <dcd_rp2040_irq+0x304>)
200005e0:	f446 4600 	orr.w	r6, r6, #32768	@ 0x8000
200005e4:	651a      	str	r2, [r3, #80]	@ 0x50
200005e6:	e7c5      	b.n	20000574 <dcd_rp2040_irq+0x158>
200005e8:	f894 603a 	ldrb.w	r6, [r4, #58]	@ 0x3a
200005ec:	2e00      	cmp	r6, #0
200005ee:	f43f af28 	beq.w	20000442 <dcd_rp2040_irq+0x26>
200005f2:	f894 303c 	ldrb.w	r3, [r4, #60]	@ 0x3c
200005f6:	2b00      	cmp	r3, #0
200005f8:	f43f af23 	beq.w	20000442 <dcd_rp2040_irq+0x26>
200005fc:	2300      	movs	r3, #0
200005fe:	f104 0020 	add.w	r0, r4, #32
20000602:	f884 303c 	strb.w	r3, [r4, #60]	@ 0x3c
20000606:	f000 fac1 	bl	20000b8c <hw_endpoint_start_next_buffer>
2000060a:	e71a      	b.n	20000442 <dcd_rp2040_irq+0x26>
2000060c:	f894 737a 	ldrb.w	r7, [r4, #890]	@ 0x37a
20000610:	2f00      	cmp	r7, #0
20000612:	f43f af57 	beq.w	200004c4 <dcd_rp2040_irq+0xa8>
20000616:	f894 337c 	ldrb.w	r3, [r4, #892]	@ 0x37c
2000061a:	2b00      	cmp	r3, #0
2000061c:	f040 8164 	bne.w	200008e8 <dcd_rp2040_irq+0x4cc>
20000620:	f894 33bb 	ldrb.w	r3, [r4, #955]	@ 0x3bb
20000624:	2b02      	cmp	r3, #2
20000626:	f040 80f4 	bne.w	20000812 <dcd_rp2040_irq+0x3f6>
2000062a:	f894 33ba 	ldrb.w	r3, [r4, #954]	@ 0x3ba
2000062e:	2b00      	cmp	r3, #0
20000630:	f040 80eb 	bne.w	2000080a <dcd_rp2040_irq+0x3ee>
20000634:	f894 33fb 	ldrb.w	r3, [r4, #1019]	@ 0x3fb
20000638:	2b02      	cmp	r3, #2
2000063a:	f47f af56 	bne.w	200004ea <dcd_rp2040_irq+0xce>
2000063e:	463e      	mov	r6, r7
20000640:	f894 33fa 	ldrb.w	r3, [r4, #1018]	@ 0x3fa
20000644:	2b00      	cmp	r3, #0
20000646:	f43f af47 	beq.w	200004d8 <dcd_rp2040_irq+0xbc>
2000064a:	f894 33fc 	ldrb.w	r3, [r4, #1020]	@ 0x3fc
2000064e:	2b00      	cmp	r3, #0
20000650:	f43f af4b 	beq.w	200004ea <dcd_rp2040_irq+0xce>
20000654:	2300      	movs	r3, #0
20000656:	4835      	ldr	r0, [pc, #212]	@ (2000072c <dcd_rp2040_irq+0x310>)
20000658:	f884 33fc 	strb.w	r3, [r4, #1020]	@ 0x3fc
2000065c:	f000 fa96 	bl	20000b8c <hw_endpoint_start_next_buffer>
20000660:	e743      	b.n	200004ea <dcd_rp2040_irq+0xce>
20000662:	2102      	movs	r1, #2
20000664:	4b32      	ldr	r3, [pc, #200]	@ (20000730 <dcd_rp2040_irq+0x314>)
20000666:	4a29      	ldr	r2, [pc, #164]	@ (2000070c <dcd_rp2040_irq+0x2f0>)
20000668:	6619      	str	r1, [r3, #96]	@ 0x60
2000066a:	6e53      	ldr	r3, [r2, #100]	@ 0x64
2000066c:	079f      	lsls	r7, r3, #30
2000066e:	d5fc      	bpl.n	2000066a <dcd_rp2040_irq+0x24e>
20000670:	f44f 5240 	mov.w	r2, #12288	@ 0x3000
20000674:	2100      	movs	r1, #0
20000676:	4827      	ldr	r0, [pc, #156]	@ (20000714 <dcd_rp2040_irq+0x2f8>)
20000678:	f000 fa66 	bl	20000b48 <_hw_endpoint_buffer_control_update32>
2000067c:	4825      	ldr	r0, [pc, #148]	@ (20000714 <dcd_rp2040_irq+0x2f8>)
2000067e:	f000 fa5d 	bl	20000b3c <hw_endpoint_reset_transfer>
20000682:	2202      	movs	r2, #2
20000684:	4b26      	ldr	r3, [pc, #152]	@ (20000720 <dcd_rp2040_irq+0x304>)
20000686:	665a      	str	r2, [r3, #100]	@ 0x64
20000688:	661a      	str	r2, [r3, #96]	@ 0x60
2000068a:	2301      	movs	r3, #1
2000068c:	f894 203a 	ldrb.w	r2, [r4, #58]	@ 0x3a
20000690:	70e3      	strb	r3, [r4, #3]
20000692:	2a00      	cmp	r2, #0
20000694:	f43f af53 	beq.w	2000053e <dcd_rp2040_irq+0x122>
20000698:	4a25      	ldr	r2, [pc, #148]	@ (20000730 <dcd_rp2040_irq+0x314>)
2000069a:	6613      	str	r3, [r2, #96]	@ 0x60
2000069c:	f5a2 5200 	sub.w	r2, r2, #8192	@ 0x2000
200006a0:	6e53      	ldr	r3, [r2, #100]	@ 0x64
200006a2:	07d8      	lsls	r0, r3, #31
200006a4:	d5fc      	bpl.n	200006a0 <dcd_rp2040_irq+0x284>
200006a6:	f44f 5240 	mov.w	r2, #12288	@ 0x3000
200006aa:	2100      	movs	r1, #0
200006ac:	4821      	ldr	r0, [pc, #132]	@ (20000734 <dcd_rp2040_irq+0x318>)
200006ae:	f000 fa4b 	bl	20000b48 <_hw_endpoint_buffer_control_update32>
200006b2:	4820      	ldr	r0, [pc, #128]	@ (20000734 <dcd_rp2040_irq+0x318>)
200006b4:	f000 fa42 	bl	20000b3c <hw_endpoint_reset_transfer>
200006b8:	2201      	movs	r2, #1
200006ba:	4b19      	ldr	r3, [pc, #100]	@ (20000720 <dcd_rp2040_irq+0x304>)
200006bc:	665a      	str	r2, [r3, #100]	@ 0x64
200006be:	661a      	str	r2, [r3, #96]	@ 0x60
200006c0:	e73d      	b.n	2000053e <dcd_rp2040_irq+0x122>
200006c2:	f894 707a 	ldrb.w	r7, [r4, #122]	@ 0x7a
200006c6:	2f00      	cmp	r7, #0
200006c8:	f43f aec0 	beq.w	2000044c <dcd_rp2040_irq+0x30>
200006cc:	f894 307c 	ldrb.w	r3, [r4, #124]	@ 0x7c
200006d0:	2b00      	cmp	r3, #0
200006d2:	f040 8101 	bne.w	200008d8 <dcd_rp2040_irq+0x4bc>
200006d6:	463e      	mov	r6, r7
200006d8:	e6b8      	b.n	2000044c <dcd_rp2040_irq+0x30>
200006da:	f894 717a 	ldrb.w	r7, [r4, #378]	@ 0x17a
200006de:	2f00      	cmp	r7, #0
200006e0:	f43f aec8 	beq.w	20000474 <dcd_rp2040_irq+0x58>
200006e4:	f894 317c 	ldrb.w	r3, [r4, #380]	@ 0x17c
200006e8:	2b00      	cmp	r3, #0
200006ea:	f040 80ed 	bne.w	200008c8 <dcd_rp2040_irq+0x4ac>
200006ee:	463e      	mov	r6, r7
200006f0:	e6c0      	b.n	20000474 <dcd_rp2040_irq+0x58>
200006f2:	f894 713a 	ldrb.w	r7, [r4, #314]	@ 0x13a
200006f6:	2f00      	cmp	r7, #0
200006f8:	f43f aeb7 	beq.w	2000046a <dcd_rp2040_irq+0x4e>
200006fc:	f894 313c 	ldrb.w	r3, [r4, #316]	@ 0x13c
20000700:	2b00      	cmp	r3, #0
20000702:	f040 80d9 	bne.w	200008b8 <dcd_rp2040_irq+0x49c>
20000706:	463e      	mov	r6, r7
20000708:	e6af      	b.n	2000046a <dcd_rp2040_irq+0x4e>
2000070a:	bf00      	nop
2000070c:	50110000 	.word	0x50110000
20000710:	400b0000 	.word	0x400b0000
20000714:	2000258c 	.word	0x2000258c
20000718:	2000257c 	.word	0x2000257c
2000071c:	200029fe 	.word	0x200029fe
20000720:	50113000 	.word	0x50113000
20000724:	00020010 	.word	0x00020010
20000728:	50100000 	.word	0x50100000
2000072c:	2000296c 	.word	0x2000296c
20000730:	50112000 	.word	0x50112000
20000734:	200025ac 	.word	0x200025ac
20000738:	f894 70fa 	ldrb.w	r7, [r4, #250]	@ 0xfa
2000073c:	2f00      	cmp	r7, #0
2000073e:	f43f ae8f 	beq.w	20000460 <dcd_rp2040_irq+0x44>
20000742:	f894 30fc 	ldrb.w	r3, [r4, #252]	@ 0xfc
20000746:	2b00      	cmp	r3, #0
20000748:	f040 808e 	bne.w	20000868 <dcd_rp2040_irq+0x44c>
2000074c:	463e      	mov	r6, r7
2000074e:	e687      	b.n	20000460 <dcd_rp2040_irq+0x44>
20000750:	f894 70ba 	ldrb.w	r7, [r4, #186]	@ 0xba
20000754:	2f00      	cmp	r7, #0
20000756:	f43f ae7e 	beq.w	20000456 <dcd_rp2040_irq+0x3a>
2000075a:	f894 30bc 	ldrb.w	r3, [r4, #188]	@ 0xbc
2000075e:	2b00      	cmp	r3, #0
20000760:	d17a      	bne.n	20000858 <dcd_rp2040_irq+0x43c>
20000762:	463e      	mov	r6, r7
20000764:	e677      	b.n	20000456 <dcd_rp2040_irq+0x3a>
20000766:	f894 733a 	ldrb.w	r7, [r4, #826]	@ 0x33a
2000076a:	2f00      	cmp	r7, #0
2000076c:	f43f aea5 	beq.w	200004ba <dcd_rp2040_irq+0x9e>
20000770:	f894 333c 	ldrb.w	r3, [r4, #828]	@ 0x33c
20000774:	2b00      	cmp	r3, #0
20000776:	d157      	bne.n	20000828 <dcd_rp2040_irq+0x40c>
20000778:	463e      	mov	r6, r7
2000077a:	e69e      	b.n	200004ba <dcd_rp2040_irq+0x9e>
2000077c:	f894 72fa 	ldrb.w	r7, [r4, #762]	@ 0x2fa
20000780:	2f00      	cmp	r7, #0
20000782:	f43f ae95 	beq.w	200004b0 <dcd_rp2040_irq+0x94>
20000786:	f894 32fc 	ldrb.w	r3, [r4, #764]	@ 0x2fc
2000078a:	2b00      	cmp	r3, #0
2000078c:	d15c      	bne.n	20000848 <dcd_rp2040_irq+0x42c>
2000078e:	463e      	mov	r6, r7
20000790:	e68e      	b.n	200004b0 <dcd_rp2040_irq+0x94>
20000792:	f894 72ba 	ldrb.w	r7, [r4, #698]	@ 0x2ba
20000796:	2f00      	cmp	r7, #0
20000798:	f43f ae85 	beq.w	200004a6 <dcd_rp2040_irq+0x8a>
2000079c:	f894 32bc 	ldrb.w	r3, [r4, #700]	@ 0x2bc
200007a0:	2b00      	cmp	r3, #0
200007a2:	d149      	bne.n	20000838 <dcd_rp2040_irq+0x41c>
200007a4:	463e      	mov	r6, r7
200007a6:	e67e      	b.n	200004a6 <dcd_rp2040_irq+0x8a>
200007a8:	f894 727a 	ldrb.w	r7, [r4, #634]	@ 0x27a
200007ac:	2f00      	cmp	r7, #0
200007ae:	f43f ae75 	beq.w	2000049c <dcd_rp2040_irq+0x80>
200007b2:	f894 327c 	ldrb.w	r3, [r4, #636]	@ 0x27c
200007b6:	2b00      	cmp	r3, #0
200007b8:	d176      	bne.n	200008a8 <dcd_rp2040_irq+0x48c>
200007ba:	463e      	mov	r6, r7
200007bc:	e66e      	b.n	2000049c <dcd_rp2040_irq+0x80>
200007be:	f894 723a 	ldrb.w	r7, [r4, #570]	@ 0x23a
200007c2:	2f00      	cmp	r7, #0
200007c4:	f43f ae65 	beq.w	20000492 <dcd_rp2040_irq+0x76>
200007c8:	f894 323c 	ldrb.w	r3, [r4, #572]	@ 0x23c
200007cc:	2b00      	cmp	r3, #0
200007ce:	d163      	bne.n	20000898 <dcd_rp2040_irq+0x47c>
200007d0:	463e      	mov	r6, r7
200007d2:	e65e      	b.n	20000492 <dcd_rp2040_irq+0x76>
200007d4:	f894 71fa 	ldrb.w	r7, [r4, #506]	@ 0x1fa
200007d8:	2f00      	cmp	r7, #0
200007da:	f43f ae55 	beq.w	20000488 <dcd_rp2040_irq+0x6c>
200007de:	f894 31fc 	ldrb.w	r3, [r4, #508]	@ 0x1fc
200007e2:	2b00      	cmp	r3, #0
200007e4:	d150      	bne.n	20000888 <dcd_rp2040_irq+0x46c>
200007e6:	463e      	mov	r6, r7
200007e8:	e64e      	b.n	20000488 <dcd_rp2040_irq+0x6c>
200007ea:	f894 71ba 	ldrb.w	r7, [r4, #442]	@ 0x1ba
200007ee:	2f00      	cmp	r7, #0
200007f0:	f43f ae45 	beq.w	2000047e <dcd_rp2040_irq+0x62>
200007f4:	f894 31bc 	ldrb.w	r3, [r4, #444]	@ 0x1bc
200007f8:	2b00      	cmp	r3, #0
200007fa:	d13d      	bne.n	20000878 <dcd_rp2040_irq+0x45c>
200007fc:	463e      	mov	r6, r7
200007fe:	e63e      	b.n	2000047e <dcd_rp2040_irq+0x62>
20000800:	f894 33ba 	ldrb.w	r3, [r4, #954]	@ 0x3ba
20000804:	2b00      	cmp	r3, #0
20000806:	f43f ae62 	beq.w	200004ce <dcd_rp2040_irq+0xb2>
2000080a:	f894 33bc 	ldrb.w	r3, [r4, #956]	@ 0x3bc
2000080e:	2b00      	cmp	r3, #0
20000810:	d171      	bne.n	200008f6 <dcd_rp2040_irq+0x4da>
20000812:	f894 33fb 	ldrb.w	r3, [r4, #1019]	@ 0x3fb
20000816:	2b02      	cmp	r3, #2
20000818:	f47f ae67 	bne.w	200004ea <dcd_rp2040_irq+0xce>
2000081c:	f894 33fa 	ldrb.w	r3, [r4, #1018]	@ 0x3fa
20000820:	2b00      	cmp	r3, #0
20000822:	f43f ae62 	beq.w	200004ea <dcd_rp2040_irq+0xce>
20000826:	e710      	b.n	2000064a <dcd_rp2040_irq+0x22e>
20000828:	2300      	movs	r3, #0
2000082a:	4839      	ldr	r0, [pc, #228]	@ (20000910 <dcd_rp2040_irq+0x4f4>)
2000082c:	f884 333c 	strb.w	r3, [r4, #828]	@ 0x33c
20000830:	463e      	mov	r6, r7
20000832:	f000 f9ab 	bl	20000b8c <hw_endpoint_start_next_buffer>
20000836:	e640      	b.n	200004ba <dcd_rp2040_irq+0x9e>
20000838:	2300      	movs	r3, #0
2000083a:	4836      	ldr	r0, [pc, #216]	@ (20000914 <dcd_rp2040_irq+0x4f8>)
2000083c:	f884 32bc 	strb.w	r3, [r4, #700]	@ 0x2bc
20000840:	463e      	mov	r6, r7
20000842:	f000 f9a3 	bl	20000b8c <hw_endpoint_start_next_buffer>
20000846:	e62e      	b.n	200004a6 <dcd_rp2040_irq+0x8a>
20000848:	2300      	movs	r3, #0
2000084a:	4833      	ldr	r0, [pc, #204]	@ (20000918 <dcd_rp2040_irq+0x4fc>)
2000084c:	f884 32fc 	strb.w	r3, [r4, #764]	@ 0x2fc
20000850:	463e      	mov	r6, r7
20000852:	f000 f99b 	bl	20000b8c <hw_endpoint_start_next_buffer>
20000856:	e62b      	b.n	200004b0 <dcd_rp2040_irq+0x94>
20000858:	2300      	movs	r3, #0
2000085a:	4830      	ldr	r0, [pc, #192]	@ (2000091c <dcd_rp2040_irq+0x500>)
2000085c:	f884 30bc 	strb.w	r3, [r4, #188]	@ 0xbc
20000860:	463e      	mov	r6, r7
20000862:	f000 f993 	bl	20000b8c <hw_endpoint_start_next_buffer>
20000866:	e5f6      	b.n	20000456 <dcd_rp2040_irq+0x3a>
20000868:	2300      	movs	r3, #0
2000086a:	482d      	ldr	r0, [pc, #180]	@ (20000920 <dcd_rp2040_irq+0x504>)
2000086c:	f884 30fc 	strb.w	r3, [r4, #252]	@ 0xfc
20000870:	463e      	mov	r6, r7
20000872:	f000 f98b 	bl	20000b8c <hw_endpoint_start_next_buffer>
20000876:	e5f3      	b.n	20000460 <dcd_rp2040_irq+0x44>
20000878:	2300      	movs	r3, #0
2000087a:	482a      	ldr	r0, [pc, #168]	@ (20000924 <dcd_rp2040_irq+0x508>)
2000087c:	f884 31bc 	strb.w	r3, [r4, #444]	@ 0x1bc
20000880:	463e      	mov	r6, r7
20000882:	f000 f983 	bl	20000b8c <hw_endpoint_start_next_buffer>
20000886:	e5fa      	b.n	2000047e <dcd_rp2040_irq+0x62>
20000888:	2300      	movs	r3, #0
2000088a:	4827      	ldr	r0, [pc, #156]	@ (20000928 <dcd_rp2040_irq+0x50c>)
2000088c:	f884 31fc 	strb.w	r3, [r4, #508]	@ 0x1fc
20000890:	463e      	mov	r6, r7
20000892:	f000 f97b 	bl	20000b8c <hw_endpoint_start_next_buffer>
20000896:	e5f7      	b.n	20000488 <dcd_rp2040_irq+0x6c>
20000898:	2300      	movs	r3, #0
2000089a:	4824      	ldr	r0, [pc, #144]	@ (2000092c <dcd_rp2040_irq+0x510>)
2000089c:	f884 323c 	strb.w	r3, [r4, #572]	@ 0x23c
200008a0:	463e      	mov	r6, r7
200008a2:	f000 f973 	bl	20000b8c <hw_endpoint_start_next_buffer>
200008a6:	e5f4      	b.n	20000492 <dcd_rp2040_irq+0x76>
200008a8:	2300      	movs	r3, #0
200008aa:	4821      	ldr	r0, [pc, #132]	@ (20000930 <dcd_rp2040_irq+0x514>)
200008ac:	f884 327c 	strb.w	r3, [r4, #636]	@ 0x27c
200008b0:	463e      	mov	r6, r7
200008b2:	f000 f96b 	bl	20000b8c <hw_endpoint_start_next_buffer>
200008b6:	e5f1      	b.n	2000049c <dcd_rp2040_irq+0x80>
200008b8:	2300      	movs	r3, #0
200008ba:	481e      	ldr	r0, [pc, #120]	@ (20000934 <dcd_rp2040_irq+0x518>)
200008bc:	f884 313c 	strb.w	r3, [r4, #316]	@ 0x13c
200008c0:	463e      	mov	r6, r7
200008c2:	f000 f963 	bl	20000b8c <hw_endpoint_start_next_buffer>
200008c6:	e5d0      	b.n	2000046a <dcd_rp2040_irq+0x4e>
200008c8:	2300      	movs	r3, #0
200008ca:	481b      	ldr	r0, [pc, #108]	@ (20000938 <dcd_rp2040_irq+0x51c>)
200008cc:	f884 317c 	strb.w	r3, [r4, #380]	@ 0x17c
200008d0:	463e      	mov	r6, r7
200008d2:	f000 f95b 	bl	20000b8c <hw_endpoint_start_next_buffer>
200008d6:	e5cd      	b.n	20000474 <dcd_rp2040_irq+0x58>
200008d8:	2300      	movs	r3, #0
200008da:	4818      	ldr	r0, [pc, #96]	@ (2000093c <dcd_rp2040_irq+0x520>)
200008dc:	f884 307c 	strb.w	r3, [r4, #124]	@ 0x7c
200008e0:	463e      	mov	r6, r7
200008e2:	f000 f953 	bl	20000b8c <hw_endpoint_start_next_buffer>
200008e6:	e5b1      	b.n	2000044c <dcd_rp2040_irq+0x30>
200008e8:	2300      	movs	r3, #0
200008ea:	4815      	ldr	r0, [pc, #84]	@ (20000940 <dcd_rp2040_irq+0x524>)
200008ec:	f884 337c 	strb.w	r3, [r4, #892]	@ 0x37c
200008f0:	f000 f94c 	bl	20000b8c <hw_endpoint_start_next_buffer>
200008f4:	e694      	b.n	20000620 <dcd_rp2040_irq+0x204>
200008f6:	2300      	movs	r3, #0
200008f8:	4812      	ldr	r0, [pc, #72]	@ (20000944 <dcd_rp2040_irq+0x528>)
200008fa:	f884 33bc 	strb.w	r3, [r4, #956]	@ 0x3bc
200008fe:	f000 f945 	bl	20000b8c <hw_endpoint_start_next_buffer>
20000902:	e786      	b.n	20000812 <dcd_rp2040_irq+0x3f6>
20000904:	4810      	ldr	r0, [pc, #64]	@ (20000948 <dcd_rp2040_irq+0x52c>)
20000906:	ea86 0105 	eor.w	r1, r6, r5
2000090a:	f000 fe71 	bl	200015f0 <__panic_veneer>
2000090e:	bf00      	nop
20000910:	200028ac 	.word	0x200028ac
20000914:	2000282c 	.word	0x2000282c
20000918:	2000286c 	.word	0x2000286c
2000091c:	2000262c 	.word	0x2000262c
20000920:	2000266c 	.word	0x2000266c
20000924:	2000272c 	.word	0x2000272c
20000928:	2000276c 	.word	0x2000276c
2000092c:	200027ac 	.word	0x200027ac
20000930:	200027ec 	.word	0x200027ec
20000934:	200026ac 	.word	0x200026ac
20000938:	200026ec 	.word	0x200026ec
2000093c:	200025ec 	.word	0x200025ec
20000940:	200028ec 	.word	0x200028ec
20000944:	2000292c 	.word	0x2000292c
20000948:	100089bc 	.word	0x100089bc

2000094c <prepare_ep_buffer>:
2000094c:	e92d 47f0 	stmdb	sp!, {r4, r5, r6, r7, r8, r9, sl, lr}
20000950:	8a84      	ldrh	r4, [r0, #20]
20000952:	8b05      	ldrh	r5, [r0, #24]
20000954:	78c2      	ldrb	r2, [r0, #3]
20000956:	42a5      	cmp	r5, r4
20000958:	bf28      	it	cs
2000095a:	4625      	movcs	r5, r4
2000095c:	1e17      	subs	r7, r2, #0
2000095e:	bf18      	it	ne
20000960:	2701      	movne	r7, #1
20000962:	1b64      	subs	r4, r4, r5
20000964:	7846      	ldrb	r6, [r0, #1]
20000966:	f082 0201 	eor.w	r2, r2, #1
2000096a:	b2a4      	uxth	r4, r4
2000096c:	4603      	mov	r3, r0
2000096e:	70c2      	strb	r2, [r0, #3]
20000970:	8284      	strh	r4, [r0, #20]
20000972:	f445 6080 	orr.w	r0, r5, #1024	@ 0x400
20000976:	ea40 3047 	orr.w	r0, r0, r7, lsl #13
2000097a:	bba6      	cbnz	r6, 200009e6 <prepare_ep_buffer+0x9a>
2000097c:	e9d3 2603 	ldrd	r2, r6, [r3, #12]
20000980:	1e6f      	subs	r7, r5, #1
20000982:	eb02 1e81 	add.w	lr, r2, r1, lsl #6
20000986:	b355      	cbz	r5, 200009de <prepare_ep_buffer+0x92>
20000988:	2f05      	cmp	r7, #5
2000098a:	bf98      	it	ls
2000098c:	1c72      	addls	r2, r6, #1
2000098e:	d931      	bls.n	200009f4 <prepare_ep_buffer+0xa8>
20000990:	eb02 1c81 	add.w	ip, r2, r1, lsl #6
20000994:	1c72      	adds	r2, r6, #1
20000996:	ebac 0402 	sub.w	r4, ip, r2
2000099a:	2c02      	cmp	r4, #2
2000099c:	d92a      	bls.n	200009f4 <prepare_ep_buffer+0xa8>
2000099e:	4632      	mov	r2, r6
200009a0:	ea4f 0995 	mov.w	r9, r5, lsr #2
200009a4:	ea4f 0a89 	mov.w	sl, r9, lsl #2
200009a8:	eb06 0889 	add.w	r8, r6, r9, lsl #2
200009ac:	f852 4b04 	ldr.w	r4, [r2], #4
200009b0:	4542      	cmp	r2, r8
200009b2:	f84c 4b04 	str.w	r4, [ip], #4
200009b6:	d1f9      	bne.n	200009ac <prepare_ep_buffer+0x60>
200009b8:	4555      	cmp	r5, sl
200009ba:	eba7 070a 	sub.w	r7, r7, sl
200009be:	eb0e 040a 	add.w	r4, lr, sl
200009c2:	d00a      	beq.n	200009da <prepare_ep_buffer+0x8e>
200009c4:	f816 6029 	ldrb.w	r6, [r6, r9, lsl #2]
200009c8:	f80e 6029 	strb.w	r6, [lr, r9, lsl #2]
200009cc:	b12f      	cbz	r7, 200009da <prepare_ep_buffer+0x8e>
200009ce:	7856      	ldrb	r6, [r2, #1]
200009d0:	2f01      	cmp	r7, #1
200009d2:	7066      	strb	r6, [r4, #1]
200009d4:	d001      	beq.n	200009da <prepare_ep_buffer+0x8e>
200009d6:	7892      	ldrb	r2, [r2, #2]
200009d8:	70a2      	strb	r2, [r4, #2]
200009da:	691e      	ldr	r6, [r3, #16]
200009dc:	8a9c      	ldrh	r4, [r3, #20]
200009de:	442e      	add	r6, r5
200009e0:	611e      	str	r6, [r3, #16]
200009e2:	f440 4000 	orr.w	r0, r0, #32768	@ 0x8000
200009e6:	b90c      	cbnz	r4, 200009ec <prepare_ep_buffer+0xa0>
200009e8:	f440 4080 	orr.w	r0, r0, #16384	@ 0x4000
200009ec:	b101      	cbz	r1, 200009f0 <prepare_ep_buffer+0xa4>
200009ee:	0400      	lsls	r0, r0, #16
200009f0:	e8bd 87f0 	ldmia.w	sp!, {r4, r5, r6, r7, r8, r9, sl, pc}
200009f4:	f10e 3eff 	add.w	lr, lr, #4294967295	@ 0xffffffff
200009f8:	442e      	add	r6, r5
200009fa:	e000      	b.n	200009fe <prepare_ep_buffer+0xb2>
200009fc:	3201      	adds	r2, #1
200009fe:	f812 4c01 	ldrb.w	r4, [r2, #-1]
20000a02:	42b2      	cmp	r2, r6
20000a04:	f80e 4f01 	strb.w	r4, [lr, #1]!
20000a08:	d1f8      	bne.n	200009fc <prepare_ep_buffer+0xb0>
20000a0a:	e7e6      	b.n	200009da <prepare_ep_buffer+0x8e>

20000a0c <sync_ep_buffer>:
20000a0c:	6883      	ldr	r3, [r0, #8]
20000a0e:	4602      	mov	r2, r0
20000a10:	6818      	ldr	r0, [r3, #0]
20000a12:	b101      	cbz	r1, 20000a16 <sync_ep_buffer+0xa>
20000a14:	0c00      	lsrs	r0, r0, #16
20000a16:	7853      	ldrb	r3, [r2, #1]
20000a18:	f3c0 0009 	ubfx	r0, r0, #0, #10
20000a1c:	2b00      	cmp	r3, #0
20000a1e:	d03c      	beq.n	20000a9a <sync_ep_buffer+0x8e>
20000a20:	e92d 41f0 	stmdb	sp!, {r4, r5, r6, r7, r8, lr}
20000a24:	e9d2 3403 	ldrd	r3, r4, [r2, #12]
20000a28:	1e46      	subs	r6, r0, #1
20000a2a:	eb03 1e81 	add.w	lr, r3, r1, lsl #6
20000a2e:	b340      	cbz	r0, 20000a82 <sync_ep_buffer+0x76>
20000a30:	2e05      	cmp	r6, #5
20000a32:	d93b      	bls.n	20000aac <sync_ep_buffer+0xa0>
20000a34:	0189      	lsls	r1, r1, #6
20000a36:	1c4d      	adds	r5, r1, #1
20000a38:	441d      	add	r5, r3
20000a3a:	1b65      	subs	r5, r4, r5
20000a3c:	2d02      	cmp	r5, #2
20000a3e:	d935      	bls.n	20000aac <sync_ep_buffer+0xa0>
20000a40:	4673      	mov	r3, lr
20000a42:	4621      	mov	r1, r4
20000a44:	f400 777f 	and.w	r7, r0, #1020	@ 0x3fc
20000a48:	ea4f 0890 	mov.w	r8, r0, lsr #2
20000a4c:	18fd      	adds	r5, r7, r3
20000a4e:	f853 cb04 	ldr.w	ip, [r3], #4
20000a52:	42ab      	cmp	r3, r5
20000a54:	f841 cb04 	str.w	ip, [r1], #4
20000a58:	d1f9      	bne.n	20000a4e <sync_ep_buffer+0x42>
20000a5a:	42b8      	cmp	r0, r7
20000a5c:	eba6 0607 	sub.w	r6, r6, r7
20000a60:	eb04 0307 	add.w	r3, r4, r7
20000a64:	eb0e 0107 	add.w	r1, lr, r7
20000a68:	d00a      	beq.n	20000a80 <sync_ep_buffer+0x74>
20000a6a:	f81e 5028 	ldrb.w	r5, [lr, r8, lsl #2]
20000a6e:	f804 5028 	strb.w	r5, [r4, r8, lsl #2]
20000a72:	b12e      	cbz	r6, 20000a80 <sync_ep_buffer+0x74>
20000a74:	784c      	ldrb	r4, [r1, #1]
20000a76:	2e01      	cmp	r6, #1
20000a78:	705c      	strb	r4, [r3, #1]
20000a7a:	d001      	beq.n	20000a80 <sync_ep_buffer+0x74>
20000a7c:	7889      	ldrb	r1, [r1, #2]
20000a7e:	7099      	strb	r1, [r3, #2]
20000a80:	6914      	ldr	r4, [r2, #16]
20000a82:	8ad3      	ldrh	r3, [r2, #22]
20000a84:	4404      	add	r4, r0
20000a86:	4403      	add	r3, r0
20000a88:	82d3      	strh	r3, [r2, #22]
20000a8a:	8b13      	ldrh	r3, [r2, #24]
20000a8c:	6114      	str	r4, [r2, #16]
20000a8e:	4283      	cmp	r3, r0
20000a90:	bf84      	itt	hi
20000a92:	2300      	movhi	r3, #0
20000a94:	8293      	strhhi	r3, [r2, #20]
20000a96:	e8bd 81f0 	ldmia.w	sp!, {r4, r5, r6, r7, r8, pc}
20000a9a:	8ad3      	ldrh	r3, [r2, #22]
20000a9c:	4403      	add	r3, r0
20000a9e:	82d3      	strh	r3, [r2, #22]
20000aa0:	8b13      	ldrh	r3, [r2, #24]
20000aa2:	4283      	cmp	r3, r0
20000aa4:	bf84      	itt	hi
20000aa6:	2300      	movhi	r3, #0
20000aa8:	8293      	strhhi	r3, [r2, #20]
20000aaa:	4770      	bx	lr
20000aac:	3c01      	subs	r4, #1
20000aae:	eb0e 0100 	add.w	r1, lr, r0
20000ab2:	f81e 3b01 	ldrb.w	r3, [lr], #1
20000ab6:	4571      	cmp	r1, lr
20000ab8:	f804 3f01 	strb.w	r3, [r4, #1]!
20000abc:	d1f9      	bne.n	20000ab2 <sync_ep_buffer+0xa6>
20000abe:	e7df      	b.n	20000a80 <sync_ep_buffer+0x74>

20000ac0 <_hw_endpoint_xfer_sync>:
20000ac0:	b510      	push	{r4, lr}
20000ac2:	4604      	mov	r4, r0
20000ac4:	6883      	ldr	r3, [r0, #8]
20000ac6:	2100      	movs	r1, #0
20000ac8:	681b      	ldr	r3, [r3, #0]
20000aca:	f7ff ff9f 	bl	20000a0c <sync_ep_buffer>
20000ace:	6863      	ldr	r3, [r4, #4]
20000ad0:	681b      	ldr	r3, [r3, #0]
20000ad2:	005b      	lsls	r3, r3, #1
20000ad4:	d502      	bpl.n	20000adc <_hw_endpoint_xfer_sync+0x1c>
20000ad6:	8b23      	ldrh	r3, [r4, #24]
20000ad8:	4283      	cmp	r3, r0
20000ada:	d000      	beq.n	20000ade <_hw_endpoint_xfer_sync+0x1e>
20000adc:	bd10      	pop	{r4, pc}
20000ade:	4620      	mov	r0, r4
20000ae0:	e8bd 4010 	ldmia.w	sp!, {r4, lr}
20000ae4:	2101      	movs	r1, #1
20000ae6:	f7ff bf91 	b.w	20000a0c <sync_ep_buffer>
20000aea:	bf00      	nop

20000aec <e15_is_bulkin_ep>:
20000aec:	4b08      	ldr	r3, [pc, #32]	@ (20000b10 <e15_is_bulkin_ep+0x24>)
20000aee:	6c1b      	ldr	r3, [r3, #64]	@ 0x40
20000af0:	f013 0302 	ands.w	r3, r3, #2
20000af4:	d102      	bne.n	20000afc <e15_is_bulkin_ep+0x10>
20000af6:	7882      	ldrb	r2, [r0, #2]
20000af8:	09d2      	lsrs	r2, r2, #7
20000afa:	d101      	bne.n	20000b00 <e15_is_bulkin_ep+0x14>
20000afc:	2000      	movs	r0, #0
20000afe:	4770      	bx	lr
20000b00:	7ec0      	ldrb	r0, [r0, #27]
20000b02:	f1a0 0002 	sub.w	r0, r0, #2
20000b06:	fab0 f080 	clz	r0, r0
20000b0a:	0940      	lsrs	r0, r0, #5
20000b0c:	4770      	bx	lr
20000b0e:	bf00      	nop
20000b10:	50110000 	.word	0x50110000

20000b14 <e15_is_critical_frame_period>:
20000b14:	b508      	push	{r3, lr}
20000b16:	f7ff ffe9 	bl	20000aec <e15_is_bulkin_ep>
20000b1a:	b150      	cbz	r0, 20000b32 <e15_is_critical_frame_period+0x1e>
20000b1c:	4a05      	ldr	r2, [pc, #20]	@ (20000b34 <e15_is_critical_frame_period+0x20>)
20000b1e:	4b06      	ldr	r3, [pc, #24]	@ (20000b38 <e15_is_critical_frame_period+0x24>)
20000b20:	6a90      	ldr	r0, [r2, #40]	@ 0x28
20000b22:	681b      	ldr	r3, [r3, #0]
20000b24:	f5a0 7048 	sub.w	r0, r0, #800	@ 0x320
20000b28:	1ac0      	subs	r0, r0, r3
20000b2a:	28c6      	cmp	r0, #198	@ 0xc6
20000b2c:	bf8c      	ite	hi
20000b2e:	2000      	movhi	r0, #0
20000b30:	2001      	movls	r0, #1
20000b32:	bd08      	pop	{r3, pc}
20000b34:	400b0000 	.word	0x400b0000
20000b38:	2000257c 	.word	0x2000257c

20000b3c <hw_endpoint_reset_transfer>:
20000b3c:	2300      	movs	r3, #0
20000b3e:	e9c0 3304 	strd	r3, r3, [r0, #16]
20000b42:	7683      	strb	r3, [r0, #26]
20000b44:	4770      	bx	lr
20000b46:	bf00      	nop

20000b48 <_hw_endpoint_buffer_control_update32>:
20000b48:	b510      	push	{r4, lr}
20000b4a:	6883      	ldr	r3, [r0, #8]
20000b4c:	b109      	cbz	r1, 20000b52 <_hw_endpoint_buffer_control_update32+0xa>
20000b4e:	681c      	ldr	r4, [r3, #0]
20000b50:	4021      	ands	r1, r4
20000b52:	b182      	cbz	r2, 20000b76 <_hw_endpoint_buffer_control_update32+0x2e>
20000b54:	4311      	orrs	r1, r2
20000b56:	0552      	lsls	r2, r2, #21
20000b58:	d50d      	bpl.n	20000b76 <_hw_endpoint_buffer_control_update32+0x2e>
20000b5a:	681a      	ldr	r2, [r3, #0]
20000b5c:	0554      	lsls	r4, r2, #21
20000b5e:	d40c      	bmi.n	20000b7a <_hw_endpoint_buffer_control_update32+0x32>
20000b60:	4a08      	ldr	r2, [pc, #32]	@ (20000b84 <_hw_endpoint_buffer_control_update32+0x3c>)
20000b62:	f421 6480 	bic.w	r4, r1, #1024	@ 0x400
20000b66:	601c      	str	r4, [r3, #0]
20000b68:	6c12      	ldr	r2, [r2, #64]	@ 0x40
20000b6a:	0792      	lsls	r2, r2, #30
20000b6c:	d403      	bmi.n	20000b76 <_hw_endpoint_buffer_control_update32+0x2e>
20000b6e:	230c      	movs	r3, #12
20000b70:	3b03      	subs	r3, #3
20000b72:	d2fd      	bcs.n	20000b70 <_hw_endpoint_buffer_control_update32+0x28>
20000b74:	6883      	ldr	r3, [r0, #8]
20000b76:	6019      	str	r1, [r3, #0]
20000b78:	bd10      	pop	{r4, pc}
20000b7a:	7881      	ldrb	r1, [r0, #2]
20000b7c:	4802      	ldr	r0, [pc, #8]	@ (20000b88 <_hw_endpoint_buffer_control_update32+0x40>)
20000b7e:	f000 fd37 	bl	200015f0 <__panic_veneer>
20000b82:	bf00      	nop
20000b84:	50110000 	.word	0x50110000
20000b88:	100089d0 	.word	0x100089d0

20000b8c <hw_endpoint_start_next_buffer>:
20000b8c:	b530      	push	{r4, r5, lr}
20000b8e:	6843      	ldr	r3, [r0, #4]
20000b90:	2100      	movs	r1, #0
20000b92:	b083      	sub	sp, #12
20000b94:	4604      	mov	r4, r0
20000b96:	681d      	ldr	r5, [r3, #0]
20000b98:	f7ff fed8 	bl	2000094c <prepare_ep_buffer>
20000b9c:	4b13      	ldr	r3, [pc, #76]	@ (20000bec <hw_endpoint_start_next_buffer+0x60>)
20000b9e:	f440 5280 	orr.w	r2, r0, #4096	@ 0x1000
20000ba2:	6c19      	ldr	r1, [r3, #64]	@ 0x40
20000ba4:	78a3      	ldrb	r3, [r4, #2]
20000ba6:	0789      	lsls	r1, r1, #30
20000ba8:	d50e      	bpl.n	20000bc8 <hw_endpoint_start_next_buffer+0x3c>
20000baa:	065b      	lsls	r3, r3, #25
20000bac:	d00e      	beq.n	20000bcc <hw_endpoint_start_next_buffer+0x40>
20000bae:	f025 45a0 	bic.w	r5, r5, #1342177280	@ 0x50000000
20000bb2:	f045 5500 	orr.w	r5, r5, #536870912	@ 0x20000000
20000bb6:	2100      	movs	r1, #0
20000bb8:	4620      	mov	r0, r4
20000bba:	6863      	ldr	r3, [r4, #4]
20000bbc:	601d      	str	r5, [r3, #0]
20000bbe:	b003      	add	sp, #12
20000bc0:	e8bd 4030 	ldmia.w	sp!, {r4, r5, lr}
20000bc4:	f7ff bfc0 	b.w	20000b48 <_hw_endpoint_buffer_control_update32>
20000bc8:	09db      	lsrs	r3, r3, #7
20000bca:	d0f0      	beq.n	20000bae <hw_endpoint_start_next_buffer+0x22>
20000bcc:	8aa3      	ldrh	r3, [r4, #20]
20000bce:	2b00      	cmp	r3, #0
20000bd0:	d0ed      	beq.n	20000bae <hw_endpoint_start_next_buffer+0x22>
20000bd2:	2101      	movs	r1, #1
20000bd4:	4620      	mov	r0, r4
20000bd6:	9201      	str	r2, [sp, #4]
20000bd8:	f7ff feb8 	bl	2000094c <prepare_ep_buffer>
20000bdc:	9a01      	ldr	r2, [sp, #4]
20000bde:	f025 5500 	bic.w	r5, r5, #536870912	@ 0x20000000
20000be2:	4302      	orrs	r2, r0
20000be4:	f045 45a0 	orr.w	r5, r5, #1342177280	@ 0x50000000
20000be8:	e7e5      	b.n	20000bb6 <hw_endpoint_start_next_buffer+0x2a>
20000bea:	bf00      	nop
20000bec:	50110000 	.word	0x50110000

20000bf0 <hw_endpoint_xfer_continue>:
20000bf0:	b538      	push	{r3, r4, r5, lr}
20000bf2:	7e85      	ldrb	r5, [r0, #26]
20000bf4:	4604      	mov	r4, r0
20000bf6:	b195      	cbz	r5, 20000c1e <hw_endpoint_xfer_continue+0x2e>
20000bf8:	f7ff ff62 	bl	20000ac0 <_hw_endpoint_xfer_sync>
20000bfc:	8aa3      	ldrh	r3, [r4, #20]
20000bfe:	b90b      	cbnz	r3, 20000c04 <hw_endpoint_xfer_continue+0x14>
20000c00:	4628      	mov	r0, r5
20000c02:	bd38      	pop	{r3, r4, r5, pc}
20000c04:	4620      	mov	r0, r4
20000c06:	f7ff ff85 	bl	20000b14 <e15_is_critical_frame_period>
20000c0a:	b120      	cbz	r0, 20000c16 <hw_endpoint_xfer_continue+0x26>
20000c0c:	2301      	movs	r3, #1
20000c0e:	7723      	strb	r3, [r4, #28]
20000c10:	2500      	movs	r5, #0
20000c12:	4628      	mov	r0, r5
20000c14:	bd38      	pop	{r3, r4, r5, pc}
20000c16:	4620      	mov	r0, r4
20000c18:	f7ff ffb8 	bl	20000b8c <hw_endpoint_start_next_buffer>
20000c1c:	e7f8      	b.n	20000c10 <hw_endpoint_xfer_continue+0x20>
20000c1e:	7881      	ldrb	r1, [r0, #2]
20000c20:	4801      	ldr	r0, [pc, #4]	@ (20000c28 <hw_endpoint_xfer_continue+0x38>)
20000c22:	f000 fce5 	bl	200015f0 <__panic_veneer>
20000c26:	bf00      	nop
20000c28:	100089f0 	.word	0x100089f0

20000c2c <dcd_event_handler>:
20000c2c:	e92d 43f0 	stmdb	sp!, {r4, r5, r6, r7, r8, r9, lr}
20000c30:	7843      	ldrb	r3, [r0, #1]
20000c32:	4681      	mov	r9, r0
20000c34:	3b02      	subs	r3, #2
20000c36:	460d      	mov	r5, r1
20000c38:	b085      	sub	sp, #20
20000c3a:	2b04      	cmp	r3, #4
20000c3c:	d813      	bhi.n	20000c66 <dcd_event_handler+0x3a>
20000c3e:	e8df f003 	tbb	[pc, r3]
20000c42:	4a03      	.short	0x4a03
20000c44:	736a      	.short	0x736a
20000c46:	44          	.byte	0x44
20000c47:	00          	.byte	0x00
20000c48:	2100      	movs	r1, #0
20000c4a:	4b7b      	ldr	r3, [pc, #492]	@ (20000e38 <dcd_event_handler+0x20c>)
20000c4c:	781a      	ldrb	r2, [r3, #0]
20000c4e:	f022 0201 	bic.w	r2, r2, #1
20000c52:	701a      	strb	r2, [r3, #0]
20000c54:	781a      	ldrb	r2, [r3, #0]
20000c56:	f022 0202 	bic.w	r2, r2, #2
20000c5a:	701a      	strb	r2, [r3, #0]
20000c5c:	7059      	strb	r1, [r3, #1]
20000c5e:	781a      	ldrb	r2, [r3, #0]
20000c60:	f361 0282 	bfi	r2, r1, #2, #1
20000c64:	701a      	strb	r2, [r3, #0]
20000c66:	4b75      	ldr	r3, [pc, #468]	@ (20000e3c <dcd_event_handler+0x210>)
20000c68:	681c      	ldr	r4, [r3, #0]
20000c6a:	6963      	ldr	r3, [r4, #20]
20000c6c:	f3ef 8210 	mrs	r2, PRIMASK
20000c70:	b672      	cpsid	i
20000c72:	e8d3 0fcf 	ldaexb	r0, [r3]
20000c76:	2101      	movs	r1, #1
20000c78:	2800      	cmp	r0, #0
20000c7a:	d1fa      	bne.n	20000c72 <dcd_event_handler+0x46>
20000c7c:	e8c3 1f40 	strexb	r0, r1, [r3]
20000c80:	2800      	cmp	r0, #0
20000c82:	d1f6      	bne.n	20000c72 <dcd_event_handler+0x46>
20000c84:	f3bf 8f5f 	dmb	sy
20000c88:	61a2      	str	r2, [r4, #24]
20000c8a:	4649      	mov	r1, r9
20000c8c:	4620      	mov	r0, r4
20000c8e:	f000 fcb7 	bl	20001600 <__tu_fifo_write_veneer>
20000c92:	2300      	movs	r3, #0
20000c94:	6962      	ldr	r2, [r4, #20]
20000c96:	e8c2 3f8f 	stlb	r3, [r2]
20000c9a:	69a3      	ldr	r3, [r4, #24]
20000c9c:	f383 8810 	msr	PRIMASK, r3
20000ca0:	b948      	cbnz	r0, 20000cb6 <dcd_event_handler+0x8a>
20000ca2:	f04f 23e0 	mov.w	r3, #3758153728	@ 0xe000e000
20000ca6:	f8d3 3df0 	ldr.w	r3, [r3, #3568]	@ 0xdf0
20000caa:	07db      	lsls	r3, r3, #31
20000cac:	d50a      	bpl.n	20000cc4 <dcd_event_handler+0x98>
20000cae:	be00      	bkpt	0x0000
20000cb0:	b005      	add	sp, #20
20000cb2:	e8bd 83f0 	ldmia.w	sp!, {r4, r5, r6, r7, r8, r9, pc}
20000cb6:	462a      	mov	r2, r5
20000cb8:	f899 1001 	ldrb.w	r1, [r9, #1]
20000cbc:	f899 0000 	ldrb.w	r0, [r9]
20000cc0:	f000 fc92 	bl	200015e8 <__tud_event_hook_cb_veneer>
20000cc4:	b005      	add	sp, #20
20000cc6:	e8bd 83f0 	ldmia.w	sp!, {r4, r5, r6, r7, r8, r9, pc}
20000cca:	4a5d      	ldr	r2, [pc, #372]	@ (20000e40 <dcd_event_handler+0x214>)
20000ccc:	7813      	ldrb	r3, [r2, #0]
20000cce:	3301      	adds	r3, #1
20000cd0:	b2db      	uxtb	r3, r3
20000cd2:	7013      	strb	r3, [r2, #0]
20000cd4:	e7c7      	b.n	20000c66 <dcd_event_handler+0x3a>
20000cd6:	2400      	movs	r4, #0
20000cd8:	4e5a      	ldr	r6, [pc, #360]	@ (20000e44 <dcd_event_handler+0x218>)
20000cda:	4623      	mov	r3, r4
20000cdc:	7831      	ldrb	r1, [r6, #0]
20000cde:	f8df 816c 	ldr.w	r8, [pc, #364]	@ 20000e4c <dcd_event_handler+0x220>
20000ce2:	4f59      	ldr	r7, [pc, #356]	@ (20000e48 <dcd_event_handler+0x21c>)
20000ce4:	e011      	b.n	20000d0a <dcd_event_handler+0xde>
20000ce6:	683b      	ldr	r3, [r7, #0]
20000ce8:	eb13 1344 	adds.w	r3, r3, r4, lsl #5
20000cec:	d007      	beq.n	20000cfe <dcd_event_handler+0xd2>
20000cee:	69db      	ldr	r3, [r3, #28]
20000cf0:	b12b      	cbz	r3, 20000cfe <dcd_event_handler+0xd2>
20000cf2:	f8d9 1004 	ldr.w	r1, [r9, #4]
20000cf6:	f899 0000 	ldrb.w	r0, [r9]
20000cfa:	4798      	blx	r3
20000cfc:	7831      	ldrb	r1, [r6, #0]
20000cfe:	3401      	adds	r4, #1
20000d00:	b2e4      	uxtb	r4, r4
20000d02:	1c4a      	adds	r2, r1, #1
20000d04:	42a2      	cmp	r2, r4
20000d06:	4623      	mov	r3, r4
20000d08:	db17      	blt.n	20000d3a <dcd_event_handler+0x10e>
20000d0a:	42a1      	cmp	r1, r4
20000d0c:	d8eb      	bhi.n	20000ce6 <dcd_event_handler+0xba>
20000d0e:	1a5b      	subs	r3, r3, r1
20000d10:	eb08 1343 	add.w	r3, r8, r3, lsl #5
20000d14:	e7eb      	b.n	20000cee <dcd_event_handler+0xc2>
20000d16:	4b48      	ldr	r3, [pc, #288]	@ (20000e38 <dcd_event_handler+0x20c>)
20000d18:	781a      	ldrb	r2, [r3, #0]
20000d1a:	07d6      	lsls	r6, r2, #31
20000d1c:	d5d2      	bpl.n	20000cc4 <dcd_event_handler+0x98>
20000d1e:	781a      	ldrb	r2, [r3, #0]
20000d20:	f042 0204 	orr.w	r2, r2, #4
20000d24:	701a      	strb	r2, [r3, #0]
20000d26:	e79e      	b.n	20000c66 <dcd_event_handler+0x3a>
20000d28:	4b43      	ldr	r3, [pc, #268]	@ (20000e38 <dcd_event_handler+0x20c>)
20000d2a:	781a      	ldrb	r2, [r3, #0]
20000d2c:	07d4      	lsls	r4, r2, #31
20000d2e:	d5c9      	bpl.n	20000cc4 <dcd_event_handler+0x98>
20000d30:	781a      	ldrb	r2, [r3, #0]
20000d32:	f022 0204 	bic.w	r2, r2, #4
20000d36:	701a      	strb	r2, [r3, #0]
20000d38:	e795      	b.n	20000c66 <dcd_event_handler+0x3a>
20000d3a:	4c3f      	ldr	r4, [pc, #252]	@ (20000e38 <dcd_event_handler+0x20c>)
20000d3c:	7823      	ldrb	r3, [r4, #0]
20000d3e:	0758      	lsls	r0, r3, #29
20000d40:	d43a      	bmi.n	20000db8 <dcd_event_handler+0x18c>
20000d42:	78e3      	ldrb	r3, [r4, #3]
20000d44:	07da      	lsls	r2, r3, #31
20000d46:	d5bd      	bpl.n	20000cc4 <dcd_event_handler+0x98>
20000d48:	2303      	movs	r3, #3
20000d4a:	2600      	movs	r6, #0
20000d4c:	4a3b      	ldr	r2, [pc, #236]	@ (20000e3c <dcd_event_handler+0x210>)
20000d4e:	f899 1000 	ldrb.w	r1, [r9]
20000d52:	6814      	ldr	r4, [r2, #0]
20000d54:	f8d9 2004 	ldr.w	r2, [r9, #4]
20000d58:	f88d 1004 	strb.w	r1, [sp, #4]
20000d5c:	f88d 3005 	strb.w	r3, [sp, #5]
20000d60:	6963      	ldr	r3, [r4, #20]
20000d62:	f8cd 6006 	str.w	r6, [sp, #6]
20000d66:	f8cd 600a 	str.w	r6, [sp, #10]
20000d6a:	f8ad 600e 	strh.w	r6, [sp, #14]
20000d6e:	9202      	str	r2, [sp, #8]
20000d70:	f3ef 8210 	mrs	r2, PRIMASK
20000d74:	b672      	cpsid	i
20000d76:	e8d3 0fcf 	ldaexb	r0, [r3]
20000d7a:	2101      	movs	r1, #1
20000d7c:	2800      	cmp	r0, #0
20000d7e:	d1fa      	bne.n	20000d76 <dcd_event_handler+0x14a>
20000d80:	e8c3 1f40 	strexb	r0, r1, [r3]
20000d84:	2800      	cmp	r0, #0
20000d86:	d1f6      	bne.n	20000d76 <dcd_event_handler+0x14a>
20000d88:	f3bf 8f5f 	dmb	sy
20000d8c:	4620      	mov	r0, r4
20000d8e:	61a2      	str	r2, [r4, #24]
20000d90:	a901      	add	r1, sp, #4
20000d92:	f000 fc35 	bl	20001600 <__tu_fifo_write_veneer>
20000d96:	6963      	ldr	r3, [r4, #20]
20000d98:	e8c3 6f8f 	stlb	r6, [r3]
20000d9c:	69a3      	ldr	r3, [r4, #24]
20000d9e:	f383 8810 	msr	PRIMASK, r3
20000da2:	2800      	cmp	r0, #0
20000da4:	f43f af7d 	beq.w	20000ca2 <dcd_event_handler+0x76>
20000da8:	462a      	mov	r2, r5
20000daa:	f89d 1005 	ldrb.w	r1, [sp, #5]
20000dae:	f89d 0004 	ldrb.w	r0, [sp, #4]
20000db2:	f000 fc19 	bl	200015e8 <__tud_event_hook_cb_veneer>
20000db6:	e785      	b.n	20000cc4 <dcd_event_handler+0x98>
20000db8:	7823      	ldrb	r3, [r4, #0]
20000dba:	2700      	movs	r7, #0
20000dbc:	f023 0304 	bic.w	r3, r3, #4
20000dc0:	7023      	strb	r3, [r4, #0]
20000dc2:	2305      	movs	r3, #5
20000dc4:	4a1d      	ldr	r2, [pc, #116]	@ (20000e3c <dcd_event_handler+0x210>)
20000dc6:	f88d 3005 	strb.w	r3, [sp, #5]
20000dca:	6816      	ldr	r6, [r2, #0]
20000dcc:	f899 2000 	ldrb.w	r2, [r9]
20000dd0:	f8ad 700e 	strh.w	r7, [sp, #14]
20000dd4:	f88d 2004 	strb.w	r2, [sp, #4]
20000dd8:	6973      	ldr	r3, [r6, #20]
20000dda:	f8cd 7006 	str.w	r7, [sp, #6]
20000dde:	f8cd 700a 	str.w	r7, [sp, #10]
20000de2:	f3ef 8210 	mrs	r2, PRIMASK
20000de6:	b672      	cpsid	i
20000de8:	e8d3 0fcf 	ldaexb	r0, [r3]
20000dec:	2101      	movs	r1, #1
20000dee:	2800      	cmp	r0, #0
20000df0:	d1fa      	bne.n	20000de8 <dcd_event_handler+0x1bc>
20000df2:	e8c3 1f40 	strexb	r0, r1, [r3]
20000df6:	2800      	cmp	r0, #0
20000df8:	d1f6      	bne.n	20000de8 <dcd_event_handler+0x1bc>
20000dfa:	f3bf 8f5f 	dmb	sy
20000dfe:	4630      	mov	r0, r6
20000e00:	61b2      	str	r2, [r6, #24]
20000e02:	a901      	add	r1, sp, #4
20000e04:	f000 fbfc 	bl	20001600 <__tu_fifo_write_veneer>
20000e08:	6973      	ldr	r3, [r6, #20]
20000e0a:	e8c3 7f8f 	stlb	r7, [r3]
20000e0e:	69b3      	ldr	r3, [r6, #24]
20000e10:	f383 8810 	msr	PRIMASK, r3
20000e14:	b938      	cbnz	r0, 20000e26 <dcd_event_handler+0x1fa>
20000e16:	f04f 23e0 	mov.w	r3, #3758153728	@ 0xe000e000
20000e1a:	f8d3 3df0 	ldr.w	r3, [r3, #3568]	@ 0xdf0
20000e1e:	07d9      	lsls	r1, r3, #31
20000e20:	d58f      	bpl.n	20000d42 <dcd_event_handler+0x116>
20000e22:	be00      	bkpt	0x0000
20000e24:	e78d      	b.n	20000d42 <dcd_event_handler+0x116>
20000e26:	462a      	mov	r2, r5
20000e28:	f89d 1005 	ldrb.w	r1, [sp, #5]
20000e2c:	f89d 0004 	ldrb.w	r0, [sp, #4]
20000e30:	f000 fbda 	bl	200015e8 <__tud_event_hook_cb_veneer>
20000e34:	e785      	b.n	20000d42 <dcd_event_handler+0x116>
20000e36:	bf00      	nop
20000e38:	20002130 	.word	0x20002130
20000e3c:	20002188 	.word	0x20002188
20000e40:	200029ff 	.word	0x200029ff
20000e44:	200029fd 	.word	0x200029fd
20000e48:	20001f60 	.word	0x20001f60
20000e4c:	10008c44 	.word	0x10008c44

20000e50 <__aeabi_drsub>:
20000e50:	f081 4100 	eor.w	r1, r1, #2147483648	@ 0x80000000
20000e54:	e002      	b.n	20000e5c <__adddf3>
20000e56:	bf00      	nop

20000e58 <__aeabi_dsub>:
20000e58:	f083 4300 	eor.w	r3, r3, #2147483648	@ 0x80000000

20000e5c <__adddf3>:
20000e5c:	b530      	push	{r4, r5, lr}
20000e5e:	ea4f 0441 	mov.w	r4, r1, lsl #1
20000e62:	ea4f 0543 	mov.w	r5, r3, lsl #1
20000e66:	ea94 0f05 	teq	r4, r5
20000e6a:	bf08      	it	eq
20000e6c:	ea90 0f02 	teqeq	r0, r2
20000e70:	bf1f      	itttt	ne
20000e72:	ea54 0c00 	orrsne.w	ip, r4, r0
20000e76:	ea55 0c02 	orrsne.w	ip, r5, r2
20000e7a:	ea7f 5c64 	mvnsne.w	ip, r4, asr #21
20000e7e:	ea7f 5c65 	mvnsne.w	ip, r5, asr #21
20000e82:	f000 80e2 	beq.w	2000104a <__adddf3+0x1ee>
20000e86:	ea4f 5454 	mov.w	r4, r4, lsr #21
20000e8a:	ebd4 5555 	rsbs	r5, r4, r5, lsr #21
20000e8e:	bfb8      	it	lt
20000e90:	426d      	neglt	r5, r5
20000e92:	dd0c      	ble.n	20000eae <__adddf3+0x52>
20000e94:	442c      	add	r4, r5
20000e96:	ea80 0202 	eor.w	r2, r0, r2
20000e9a:	ea81 0303 	eor.w	r3, r1, r3
20000e9e:	ea82 0000 	eor.w	r0, r2, r0
20000ea2:	ea83 0101 	eor.w	r1, r3, r1
20000ea6:	ea80 0202 	eor.w	r2, r0, r2
20000eaa:	ea81 0303 	eor.w	r3, r1, r3
20000eae:	2d36      	cmp	r5, #54	@ 0x36
20000eb0:	bf88      	it	hi
20000eb2:	bd30      	pophi	{r4, r5, pc}
20000eb4:	f011 4f00 	tst.w	r1, #2147483648	@ 0x80000000
20000eb8:	ea4f 3101 	mov.w	r1, r1, lsl #12
20000ebc:	f44f 1c80 	mov.w	ip, #1048576	@ 0x100000
20000ec0:	ea4c 3111 	orr.w	r1, ip, r1, lsr #12
20000ec4:	d002      	beq.n	20000ecc <__adddf3+0x70>
20000ec6:	4240      	negs	r0, r0
20000ec8:	eb61 0141 	sbc.w	r1, r1, r1, lsl #1
20000ecc:	f013 4f00 	tst.w	r3, #2147483648	@ 0x80000000
20000ed0:	ea4f 3303 	mov.w	r3, r3, lsl #12
20000ed4:	ea4c 3313 	orr.w	r3, ip, r3, lsr #12
20000ed8:	d002      	beq.n	20000ee0 <__adddf3+0x84>
20000eda:	4252      	negs	r2, r2
20000edc:	eb63 0343 	sbc.w	r3, r3, r3, lsl #1
20000ee0:	ea94 0f05 	teq	r4, r5
20000ee4:	f000 80a7 	beq.w	20001036 <__adddf3+0x1da>
20000ee8:	f1a4 0401 	sub.w	r4, r4, #1
20000eec:	f1d5 0e20 	rsbs	lr, r5, #32
20000ef0:	db0d      	blt.n	20000f0e <__adddf3+0xb2>
20000ef2:	fa02 fc0e 	lsl.w	ip, r2, lr
20000ef6:	fa22 f205 	lsr.w	r2, r2, r5
20000efa:	1880      	adds	r0, r0, r2
20000efc:	f141 0100 	adc.w	r1, r1, #0
20000f00:	fa03 f20e 	lsl.w	r2, r3, lr
20000f04:	1880      	adds	r0, r0, r2
20000f06:	fa43 f305 	asr.w	r3, r3, r5
20000f0a:	4159      	adcs	r1, r3
20000f0c:	e00e      	b.n	20000f2c <__adddf3+0xd0>
20000f0e:	f1a5 0520 	sub.w	r5, r5, #32
20000f12:	f10e 0e20 	add.w	lr, lr, #32
20000f16:	2a01      	cmp	r2, #1
20000f18:	fa03 fc0e 	lsl.w	ip, r3, lr
20000f1c:	bf28      	it	cs
20000f1e:	f04c 0c02 	orrcs.w	ip, ip, #2
20000f22:	fa43 f305 	asr.w	r3, r3, r5
20000f26:	18c0      	adds	r0, r0, r3
20000f28:	eb51 71e3 	adcs.w	r1, r1, r3, asr #31
20000f2c:	f001 4500 	and.w	r5, r1, #2147483648	@ 0x80000000
20000f30:	d507      	bpl.n	20000f42 <__adddf3+0xe6>
20000f32:	f04f 0e00 	mov.w	lr, #0
20000f36:	f1dc 0c00 	rsbs	ip, ip, #0
20000f3a:	eb7e 0000 	sbcs.w	r0, lr, r0
20000f3e:	eb6e 0101 	sbc.w	r1, lr, r1
20000f42:	f5b1 1f80 	cmp.w	r1, #1048576	@ 0x100000
20000f46:	d31b      	bcc.n	20000f80 <__adddf3+0x124>
20000f48:	f5b1 1f00 	cmp.w	r1, #2097152	@ 0x200000
20000f4c:	d30c      	bcc.n	20000f68 <__adddf3+0x10c>
20000f4e:	0849      	lsrs	r1, r1, #1
20000f50:	ea5f 0030 	movs.w	r0, r0, rrx
20000f54:	ea4f 0c3c 	mov.w	ip, ip, rrx
20000f58:	f104 0401 	add.w	r4, r4, #1
20000f5c:	ea4f 5244 	mov.w	r2, r4, lsl #21
20000f60:	f512 0f80 	cmn.w	r2, #4194304	@ 0x400000
20000f64:	f080 809a 	bcs.w	2000109c <__adddf3+0x240>
20000f68:	f1bc 4f00 	cmp.w	ip, #2147483648	@ 0x80000000
20000f6c:	bf08      	it	eq
20000f6e:	ea5f 0c50 	movseq.w	ip, r0, lsr #1
20000f72:	f150 0000 	adcs.w	r0, r0, #0
20000f76:	eb41 5104 	adc.w	r1, r1, r4, lsl #20
20000f7a:	ea41 0105 	orr.w	r1, r1, r5
20000f7e:	bd30      	pop	{r4, r5, pc}
20000f80:	ea5f 0c4c 	movs.w	ip, ip, lsl #1
20000f84:	4140      	adcs	r0, r0
20000f86:	eb41 0101 	adc.w	r1, r1, r1
20000f8a:	3c01      	subs	r4, #1
20000f8c:	bf28      	it	cs
20000f8e:	f5b1 1f80 	cmpcs.w	r1, #1048576	@ 0x100000
20000f92:	d2e9      	bcs.n	20000f68 <__adddf3+0x10c>
20000f94:	f091 0f00 	teq	r1, #0
20000f98:	bf04      	itt	eq
20000f9a:	4601      	moveq	r1, r0
20000f9c:	2000      	moveq	r0, #0
20000f9e:	fab1 f381 	clz	r3, r1
20000fa2:	bf08      	it	eq
20000fa4:	3320      	addeq	r3, #32
20000fa6:	f1a3 030b 	sub.w	r3, r3, #11
20000faa:	f1b3 0220 	subs.w	r2, r3, #32
20000fae:	da0c      	bge.n	20000fca <__adddf3+0x16e>
20000fb0:	320c      	adds	r2, #12
20000fb2:	dd08      	ble.n	20000fc6 <__adddf3+0x16a>
20000fb4:	f102 0c14 	add.w	ip, r2, #20
20000fb8:	f1c2 020c 	rsb	r2, r2, #12
20000fbc:	fa01 f00c 	lsl.w	r0, r1, ip
20000fc0:	fa21 f102 	lsr.w	r1, r1, r2
20000fc4:	e00c      	b.n	20000fe0 <__adddf3+0x184>
20000fc6:	f102 0214 	add.w	r2, r2, #20
20000fca:	bfd8      	it	le
20000fcc:	f1c2 0c20 	rsble	ip, r2, #32
20000fd0:	fa01 f102 	lsl.w	r1, r1, r2
20000fd4:	fa20 fc0c 	lsr.w	ip, r0, ip
20000fd8:	bfdc      	itt	le
20000fda:	ea41 010c 	orrle.w	r1, r1, ip
20000fde:	4090      	lslle	r0, r2
20000fe0:	1ae4      	subs	r4, r4, r3
20000fe2:	bfa2      	ittt	ge
20000fe4:	eb01 5104 	addge.w	r1, r1, r4, lsl #20
20000fe8:	4329      	orrge	r1, r5
20000fea:	bd30      	popge	{r4, r5, pc}
20000fec:	ea6f 0404 	mvn.w	r4, r4
20000ff0:	3c1f      	subs	r4, #31
20000ff2:	da1c      	bge.n	2000102e <__adddf3+0x1d2>
20000ff4:	340c      	adds	r4, #12
20000ff6:	dc0e      	bgt.n	20001016 <__adddf3+0x1ba>
20000ff8:	f104 0414 	add.w	r4, r4, #20
20000ffc:	f1c4 0220 	rsb	r2, r4, #32
20001000:	fa20 f004 	lsr.w	r0, r0, r4
20001004:	fa01 f302 	lsl.w	r3, r1, r2
20001008:	ea40 0003 	orr.w	r0, r0, r3
2000100c:	fa21 f304 	lsr.w	r3, r1, r4
20001010:	ea45 0103 	orr.w	r1, r5, r3
20001014:	bd30      	pop	{r4, r5, pc}
20001016:	f1c4 040c 	rsb	r4, r4, #12
2000101a:	f1c4 0220 	rsb	r2, r4, #32
2000101e:	fa20 f002 	lsr.w	r0, r0, r2
20001022:	fa01 f304 	lsl.w	r3, r1, r4
20001026:	ea40 0003 	orr.w	r0, r0, r3
2000102a:	4629      	mov	r1, r5
2000102c:	bd30      	pop	{r4, r5, pc}
2000102e:	fa21 f004 	lsr.w	r0, r1, r4
20001032:	4629      	mov	r1, r5
20001034:	bd30      	pop	{r4, r5, pc}
20001036:	f094 0f00 	teq	r4, #0
2000103a:	f483 1380 	eor.w	r3, r3, #1048576	@ 0x100000
2000103e:	bf06      	itte	eq
20001040:	f481 1180 	eoreq.w	r1, r1, #1048576	@ 0x100000
20001044:	3401      	addeq	r4, #1
20001046:	3d01      	subne	r5, #1
20001048:	e74e      	b.n	20000ee8 <__adddf3+0x8c>
2000104a:	ea7f 5c64 	mvns.w	ip, r4, asr #21
2000104e:	bf18      	it	ne
20001050:	ea7f 5c65 	mvnsne.w	ip, r5, asr #21
20001054:	d029      	beq.n	200010aa <__adddf3+0x24e>
20001056:	ea94 0f05 	teq	r4, r5
2000105a:	bf08      	it	eq
2000105c:	ea90 0f02 	teqeq	r0, r2
20001060:	d005      	beq.n	2000106e <__adddf3+0x212>
20001062:	ea54 0c00 	orrs.w	ip, r4, r0
20001066:	bf04      	itt	eq
20001068:	4619      	moveq	r1, r3
2000106a:	4610      	moveq	r0, r2
2000106c:	bd30      	pop	{r4, r5, pc}
2000106e:	ea91 0f03 	teq	r1, r3
20001072:	bf1e      	ittt	ne
20001074:	2100      	movne	r1, #0
20001076:	2000      	movne	r0, #0
20001078:	bd30      	popne	{r4, r5, pc}
2000107a:	ea5f 5c54 	movs.w	ip, r4, lsr #21
2000107e:	d105      	bne.n	2000108c <__adddf3+0x230>
20001080:	0040      	lsls	r0, r0, #1
20001082:	4149      	adcs	r1, r1
20001084:	bf28      	it	cs
20001086:	f041 4100 	orrcs.w	r1, r1, #2147483648	@ 0x80000000
2000108a:	bd30      	pop	{r4, r5, pc}
2000108c:	f514 0480 	adds.w	r4, r4, #4194304	@ 0x400000
20001090:	bf3c      	itt	cc
20001092:	f501 1180 	addcc.w	r1, r1, #1048576	@ 0x100000
20001096:	bd30      	popcc	{r4, r5, pc}
20001098:	f001 4500 	and.w	r5, r1, #2147483648	@ 0x80000000
2000109c:	f045 41fe 	orr.w	r1, r5, #2130706432	@ 0x7f000000
200010a0:	f441 0170 	orr.w	r1, r1, #15728640	@ 0xf00000
200010a4:	f04f 0000 	mov.w	r0, #0
200010a8:	bd30      	pop	{r4, r5, pc}
200010aa:	ea7f 5c64 	mvns.w	ip, r4, asr #21
200010ae:	bf1a      	itte	ne
200010b0:	4619      	movne	r1, r3
200010b2:	4610      	movne	r0, r2
200010b4:	ea7f 5c65 	mvnseq.w	ip, r5, asr #21
200010b8:	bf1c      	itt	ne
200010ba:	460b      	movne	r3, r1
200010bc:	4602      	movne	r2, r0
200010be:	ea50 3401 	orrs.w	r4, r0, r1, lsl #12
200010c2:	bf06      	itte	eq
200010c4:	ea52 3503 	orrseq.w	r5, r2, r3, lsl #12
200010c8:	ea91 0f03 	teqeq	r1, r3
200010cc:	f441 2100 	orrne.w	r1, r1, #524288	@ 0x80000
200010d0:	bd30      	pop	{r4, r5, pc}
200010d2:	bf00      	nop

200010d4 <__aeabi_ui2d>:
200010d4:	f090 0f00 	teq	r0, #0
200010d8:	bf04      	itt	eq
200010da:	2100      	moveq	r1, #0
200010dc:	4770      	bxeq	lr
200010de:	b530      	push	{r4, r5, lr}
200010e0:	f44f 6480 	mov.w	r4, #1024	@ 0x400
200010e4:	f104 0432 	add.w	r4, r4, #50	@ 0x32
200010e8:	f04f 0500 	mov.w	r5, #0
200010ec:	f04f 0100 	mov.w	r1, #0
200010f0:	e750      	b.n	20000f94 <__adddf3+0x138>
200010f2:	bf00      	nop

200010f4 <__aeabi_i2d>:
200010f4:	f090 0f00 	teq	r0, #0
200010f8:	bf04      	itt	eq
200010fa:	2100      	moveq	r1, #0
200010fc:	4770      	bxeq	lr
200010fe:	b530      	push	{r4, r5, lr}
20001100:	f44f 6480 	mov.w	r4, #1024	@ 0x400
20001104:	f104 0432 	add.w	r4, r4, #50	@ 0x32
20001108:	f010 4500 	ands.w	r5, r0, #2147483648	@ 0x80000000
2000110c:	bf48      	it	mi
2000110e:	4240      	negmi	r0, r0
20001110:	f04f 0100 	mov.w	r1, #0
20001114:	e73e      	b.n	20000f94 <__adddf3+0x138>
20001116:	bf00      	nop

20001118 <__aeabi_f2d>:
20001118:	0042      	lsls	r2, r0, #1
2000111a:	ea4f 01e2 	mov.w	r1, r2, asr #3
2000111e:	ea4f 0131 	mov.w	r1, r1, rrx
20001122:	ea4f 7002 	mov.w	r0, r2, lsl #28
20001126:	bf1f      	itttt	ne
20001128:	f012 437f 	andsne.w	r3, r2, #4278190080	@ 0xff000000
2000112c:	f093 4f7f 	teqne	r3, #4278190080	@ 0xff000000
20001130:	f081 5160 	eorne.w	r1, r1, #939524096	@ 0x38000000
20001134:	4770      	bxne	lr
20001136:	f032 427f 	bics.w	r2, r2, #4278190080	@ 0xff000000
2000113a:	bf08      	it	eq
2000113c:	4770      	bxeq	lr
2000113e:	f093 4f7f 	teq	r3, #4278190080	@ 0xff000000
20001142:	bf04      	itt	eq
20001144:	f441 2100 	orreq.w	r1, r1, #524288	@ 0x80000
20001148:	4770      	bxeq	lr
2000114a:	b530      	push	{r4, r5, lr}
2000114c:	f44f 7460 	mov.w	r4, #896	@ 0x380
20001150:	f001 4500 	and.w	r5, r1, #2147483648	@ 0x80000000
20001154:	f021 4100 	bic.w	r1, r1, #2147483648	@ 0x80000000
20001158:	e71c      	b.n	20000f94 <__adddf3+0x138>
2000115a:	bf00      	nop

2000115c <__aeabi_ul2d>:
2000115c:	ea50 0201 	orrs.w	r2, r0, r1
20001160:	bf08      	it	eq
20001162:	4770      	bxeq	lr
20001164:	b530      	push	{r4, r5, lr}
20001166:	f04f 0500 	mov.w	r5, #0
2000116a:	e00a      	b.n	20001182 <__aeabi_l2d+0x16>

2000116c <__aeabi_l2d>:
2000116c:	ea50 0201 	orrs.w	r2, r0, r1
20001170:	bf08      	it	eq
20001172:	4770      	bxeq	lr
20001174:	b530      	push	{r4, r5, lr}
20001176:	f011 4500 	ands.w	r5, r1, #2147483648	@ 0x80000000
2000117a:	d502      	bpl.n	20001182 <__aeabi_l2d+0x16>
2000117c:	4240      	negs	r0, r0
2000117e:	eb61 0141 	sbc.w	r1, r1, r1, lsl #1
20001182:	f44f 6480 	mov.w	r4, #1024	@ 0x400
20001186:	f104 0432 	add.w	r4, r4, #50	@ 0x32
2000118a:	ea5f 5c91 	movs.w	ip, r1, lsr #22
2000118e:	f43f aed8 	beq.w	20000f42 <__adddf3+0xe6>
20001192:	f04f 0203 	mov.w	r2, #3
20001196:	ea5f 0cdc 	movs.w	ip, ip, lsr #3
2000119a:	bf18      	it	ne
2000119c:	3203      	addne	r2, #3
2000119e:	ea5f 0cdc 	movs.w	ip, ip, lsr #3
200011a2:	bf18      	it	ne
200011a4:	3203      	addne	r2, #3
200011a6:	eb02 02dc 	add.w	r2, r2, ip, lsr #3
200011aa:	f1c2 0320 	rsb	r3, r2, #32
200011ae:	fa00 fc03 	lsl.w	ip, r0, r3
200011b2:	fa20 f002 	lsr.w	r0, r0, r2
200011b6:	fa01 fe03 	lsl.w	lr, r1, r3
200011ba:	ea40 000e 	orr.w	r0, r0, lr
200011be:	fa21 f102 	lsr.w	r1, r1, r2
200011c2:	4414      	add	r4, r2
200011c4:	e6bd      	b.n	20000f42 <__adddf3+0xe6>
200011c6:	bf00      	nop

200011c8 <__aeabi_ldivmod>:
200011c8:	b97b      	cbnz	r3, 200011ea <__aeabi_ldivmod+0x22>
200011ca:	b972      	cbnz	r2, 200011ea <__aeabi_ldivmod+0x22>
200011cc:	2900      	cmp	r1, #0
200011ce:	bfbe      	ittt	lt
200011d0:	2000      	movlt	r0, #0
200011d2:	f04f 4100 	movlt.w	r1, #2147483648	@ 0x80000000
200011d6:	e006      	blt.n	200011e6 <__aeabi_ldivmod+0x1e>
200011d8:	bf08      	it	eq
200011da:	2800      	cmpeq	r0, #0
200011dc:	bf1c      	itt	ne
200011de:	f06f 4100 	mvnne.w	r1, #2147483648	@ 0x80000000
200011e2:	f04f 30ff 	movne.w	r0, #4294967295	@ 0xffffffff
200011e6:	f000 b9fd 	b.w	200015e4 <__aeabi_idiv0>
200011ea:	f1ad 0c08 	sub.w	ip, sp, #8
200011ee:	e96d ce04 	strd	ip, lr, [sp, #-16]!
200011f2:	2900      	cmp	r1, #0
200011f4:	db09      	blt.n	2000120a <__aeabi_ldivmod+0x42>
200011f6:	2b00      	cmp	r3, #0
200011f8:	db1a      	blt.n	20001230 <__aeabi_ldivmod+0x68>
200011fa:	f000 f84d 	bl	20001298 <__udivmoddi4>
200011fe:	f8dd e004 	ldr.w	lr, [sp, #4]
20001202:	e9dd 2302 	ldrd	r2, r3, [sp, #8]
20001206:	b004      	add	sp, #16
20001208:	4770      	bx	lr
2000120a:	4240      	negs	r0, r0
2000120c:	eb61 0141 	sbc.w	r1, r1, r1, lsl #1
20001210:	2b00      	cmp	r3, #0
20001212:	db1b      	blt.n	2000124c <__aeabi_ldivmod+0x84>
20001214:	f000 f840 	bl	20001298 <__udivmoddi4>
20001218:	f8dd e004 	ldr.w	lr, [sp, #4]
2000121c:	e9dd 2302 	ldrd	r2, r3, [sp, #8]
20001220:	b004      	add	sp, #16
20001222:	4240      	negs	r0, r0
20001224:	eb61 0141 	sbc.w	r1, r1, r1, lsl #1
20001228:	4252      	negs	r2, r2
2000122a:	eb63 0343 	sbc.w	r3, r3, r3, lsl #1
2000122e:	4770      	bx	lr
20001230:	4252      	negs	r2, r2
20001232:	eb63 0343 	sbc.w	r3, r3, r3, lsl #1
20001236:	f000 f82f 	bl	20001298 <__udivmoddi4>
2000123a:	f8dd e004 	ldr.w	lr, [sp, #4]
2000123e:	e9dd 2302 	ldrd	r2, r3, [sp, #8]
20001242:	b004      	add	sp, #16
20001244:	4240      	negs	r0, r0
20001246:	eb61 0141 	sbc.w	r1, r1, r1, lsl #1
2000124a:	4770      	bx	lr
2000124c:	4252      	negs	r2, r2
2000124e:	eb63 0343 	sbc.w	r3, r3, r3, lsl #1
20001252:	f000 f821 	bl	20001298 <__udivmoddi4>
20001256:	f8dd e004 	ldr.w	lr, [sp, #4]
2000125a:	e9dd 2302 	ldrd	r2, r3, [sp, #8]
2000125e:	b004      	add	sp, #16
20001260:	4252      	negs	r2, r2
20001262:	eb63 0343 	sbc.w	r3, r3, r3, lsl #1
20001266:	4770      	bx	lr

20001268 <__aeabi_uldivmod>:
20001268:	b953      	cbnz	r3, 20001280 <__aeabi_uldivmod+0x18>
2000126a:	b94a      	cbnz	r2, 20001280 <__aeabi_uldivmod+0x18>
2000126c:	2900      	cmp	r1, #0
2000126e:	bf08      	it	eq
20001270:	2800      	cmpeq	r0, #0
20001272:	bf1c      	itt	ne
20001274:	f04f 31ff 	movne.w	r1, #4294967295	@ 0xffffffff
20001278:	f04f 30ff 	movne.w	r0, #4294967295	@ 0xffffffff
2000127c:	f000 b9b2 	b.w	200015e4 <__aeabi_idiv0>
20001280:	f1ad 0c08 	sub.w	ip, sp, #8
20001284:	e96d ce04 	strd	ip, lr, [sp, #-16]!
20001288:	f000 f806 	bl	20001298 <__udivmoddi4>
2000128c:	f8dd e004 	ldr.w	lr, [sp, #4]
20001290:	e9dd 2302 	ldrd	r2, r3, [sp, #8]
20001294:	b004      	add	sp, #16
20001296:	4770      	bx	lr

20001298 <__udivmoddi4>:
20001298:	e92d 4ff0 	stmdb	sp!, {r4, r5, r6, r7, r8, r9, sl, fp, lr}
2000129c:	468c      	mov	ip, r1
2000129e:	9e09      	ldr	r6, [sp, #36]	@ 0x24
200012a0:	4604      	mov	r4, r0
200012a2:	460f      	mov	r7, r1
200012a4:	2b00      	cmp	r3, #0
200012a6:	d148      	bne.n	2000133a <__udivmoddi4+0xa2>
200012a8:	428a      	cmp	r2, r1
200012aa:	4615      	mov	r5, r2
200012ac:	d95e      	bls.n	2000136c <__udivmoddi4+0xd4>
200012ae:	fab2 f382 	clz	r3, r2
200012b2:	b13b      	cbz	r3, 200012c4 <__udivmoddi4+0x2c>
200012b4:	f1c3 0220 	rsb	r2, r3, #32
200012b8:	409f      	lsls	r7, r3
200012ba:	409d      	lsls	r5, r3
200012bc:	409c      	lsls	r4, r3
200012be:	fa20 f202 	lsr.w	r2, r0, r2
200012c2:	4317      	orrs	r7, r2
200012c4:	ea4f 4e15 	mov.w	lr, r5, lsr #16
200012c8:	fa1f fc85 	uxth.w	ip, r5
200012cc:	0c22      	lsrs	r2, r4, #16
200012ce:	fbb7 f1fe 	udiv	r1, r7, lr
200012d2:	fb0e 7711 	mls	r7, lr, r1, r7
200012d6:	fb01 f00c 	mul.w	r0, r1, ip
200012da:	ea42 4207 	orr.w	r2, r2, r7, lsl #16
200012de:	4290      	cmp	r0, r2
200012e0:	d907      	bls.n	200012f2 <__udivmoddi4+0x5a>
200012e2:	18aa      	adds	r2, r5, r2
200012e4:	f101 37ff 	add.w	r7, r1, #4294967295	@ 0xffffffff
200012e8:	d202      	bcs.n	200012f0 <__udivmoddi4+0x58>
200012ea:	4290      	cmp	r0, r2
200012ec:	f200 8158 	bhi.w	200015a0 <__udivmoddi4+0x308>
200012f0:	4639      	mov	r1, r7
200012f2:	1a12      	subs	r2, r2, r0
200012f4:	b2a4      	uxth	r4, r4
200012f6:	fbb2 f0fe 	udiv	r0, r2, lr
200012fa:	fb0e 2210 	mls	r2, lr, r0, r2
200012fe:	fb00 fc0c 	mul.w	ip, r0, ip
20001302:	ea44 4402 	orr.w	r4, r4, r2, lsl #16
20001306:	45a4      	cmp	ip, r4
20001308:	d90b      	bls.n	20001322 <__udivmoddi4+0x8a>
2000130a:	192c      	adds	r4, r5, r4
2000130c:	f100 32ff 	add.w	r2, r0, #4294967295	@ 0xffffffff
20001310:	bf2c      	ite	cs
20001312:	2701      	movcs	r7, #1
20001314:	2700      	movcc	r7, #0
20001316:	45a4      	cmp	ip, r4
20001318:	d902      	bls.n	20001320 <__udivmoddi4+0x88>
2000131a:	2f00      	cmp	r7, #0
2000131c:	f000 8143 	beq.w	200015a6 <__udivmoddi4+0x30e>
20001320:	4610      	mov	r0, r2
20001322:	ea40 4001 	orr.w	r0, r0, r1, lsl #16
20001326:	eba4 040c 	sub.w	r4, r4, ip
2000132a:	2100      	movs	r1, #0
2000132c:	b11e      	cbz	r6, 20001336 <__udivmoddi4+0x9e>
2000132e:	40dc      	lsrs	r4, r3
20001330:	2300      	movs	r3, #0
20001332:	e9c6 4300 	strd	r4, r3, [r6]
20001336:	e8bd 8ff0 	ldmia.w	sp!, {r4, r5, r6, r7, r8, r9, sl, fp, pc}
2000133a:	428b      	cmp	r3, r1
2000133c:	d906      	bls.n	2000134c <__udivmoddi4+0xb4>
2000133e:	b10e      	cbz	r6, 20001344 <__udivmoddi4+0xac>
20001340:	e9c6 0100 	strd	r0, r1, [r6]
20001344:	2100      	movs	r1, #0
20001346:	4608      	mov	r0, r1
20001348:	e8bd 8ff0 	ldmia.w	sp!, {r4, r5, r6, r7, r8, r9, sl, fp, pc}
2000134c:	fab3 f183 	clz	r1, r3
20001350:	2900      	cmp	r1, #0
20001352:	d151      	bne.n	200013f8 <__udivmoddi4+0x160>
20001354:	4563      	cmp	r3, ip
20001356:	f0c0 8116 	bcc.w	20001586 <__udivmoddi4+0x2ee>
2000135a:	4282      	cmp	r2, r0
2000135c:	f240 8113 	bls.w	20001586 <__udivmoddi4+0x2ee>
20001360:	4608      	mov	r0, r1
20001362:	2e00      	cmp	r6, #0
20001364:	d0e7      	beq.n	20001336 <__udivmoddi4+0x9e>
20001366:	e9c6 4700 	strd	r4, r7, [r6]
2000136a:	e7e4      	b.n	20001336 <__udivmoddi4+0x9e>
2000136c:	2a00      	cmp	r2, #0
2000136e:	f000 80af 	beq.w	200014d0 <__udivmoddi4+0x238>
20001372:	fab2 f382 	clz	r3, r2
20001376:	2b00      	cmp	r3, #0
20001378:	f040 80c2 	bne.w	20001500 <__udivmoddi4+0x268>
2000137c:	1a8a      	subs	r2, r1, r2
2000137e:	ea4f 4e15 	mov.w	lr, r5, lsr #16
20001382:	b2af      	uxth	r7, r5
20001384:	2101      	movs	r1, #1
20001386:	0c20      	lsrs	r0, r4, #16
20001388:	fbb2 fcfe 	udiv	ip, r2, lr
2000138c:	fb0e 221c 	mls	r2, lr, ip, r2
20001390:	ea40 4202 	orr.w	r2, r0, r2, lsl #16
20001394:	fb07 f00c 	mul.w	r0, r7, ip
20001398:	4290      	cmp	r0, r2
2000139a:	d90e      	bls.n	200013ba <__udivmoddi4+0x122>
2000139c:	18aa      	adds	r2, r5, r2
2000139e:	f10c 38ff 	add.w	r8, ip, #4294967295	@ 0xffffffff
200013a2:	bf2c      	ite	cs
200013a4:	f04f 0901 	movcs.w	r9, #1
200013a8:	f04f 0900 	movcc.w	r9, #0
200013ac:	4290      	cmp	r0, r2
200013ae:	d903      	bls.n	200013b8 <__udivmoddi4+0x120>
200013b0:	f1b9 0f00 	cmp.w	r9, #0
200013b4:	f000 80f0 	beq.w	20001598 <__udivmoddi4+0x300>
200013b8:	46c4      	mov	ip, r8
200013ba:	1a12      	subs	r2, r2, r0
200013bc:	b2a4      	uxth	r4, r4
200013be:	fbb2 f0fe 	udiv	r0, r2, lr
200013c2:	fb0e 2210 	mls	r2, lr, r0, r2
200013c6:	fb00 f707 	mul.w	r7, r0, r7
200013ca:	ea44 4402 	orr.w	r4, r4, r2, lsl #16
200013ce:	42a7      	cmp	r7, r4
200013d0:	d90e      	bls.n	200013f0 <__udivmoddi4+0x158>
200013d2:	192c      	adds	r4, r5, r4
200013d4:	f100 32ff 	add.w	r2, r0, #4294967295	@ 0xffffffff
200013d8:	bf2c      	ite	cs
200013da:	f04f 0e01 	movcs.w	lr, #1
200013de:	f04f 0e00 	movcc.w	lr, #0
200013e2:	42a7      	cmp	r7, r4
200013e4:	d903      	bls.n	200013ee <__udivmoddi4+0x156>
200013e6:	f1be 0f00 	cmp.w	lr, #0
200013ea:	f000 80d2 	beq.w	20001592 <__udivmoddi4+0x2fa>
200013ee:	4610      	mov	r0, r2
200013f0:	1be4      	subs	r4, r4, r7
200013f2:	ea40 400c 	orr.w	r0, r0, ip, lsl #16
200013f6:	e799      	b.n	2000132c <__udivmoddi4+0x94>
200013f8:	f1c1 0520 	rsb	r5, r1, #32
200013fc:	408b      	lsls	r3, r1
200013fe:	fa0c f401 	lsl.w	r4, ip, r1
20001402:	fa00 f901 	lsl.w	r9, r0, r1
20001406:	fa22 f705 	lsr.w	r7, r2, r5
2000140a:	fa2c fc05 	lsr.w	ip, ip, r5
2000140e:	408a      	lsls	r2, r1
20001410:	431f      	orrs	r7, r3
20001412:	fa20 f305 	lsr.w	r3, r0, r5
20001416:	0c38      	lsrs	r0, r7, #16
20001418:	4323      	orrs	r3, r4
2000141a:	fa1f fe87 	uxth.w	lr, r7
2000141e:	0c1c      	lsrs	r4, r3, #16
20001420:	fbbc f8f0 	udiv	r8, ip, r0
20001424:	fb00 cc18 	mls	ip, r0, r8, ip
20001428:	ea44 440c 	orr.w	r4, r4, ip, lsl #16
2000142c:	fb08 fc0e 	mul.w	ip, r8, lr
20001430:	45a4      	cmp	ip, r4
20001432:	d90e      	bls.n	20001452 <__udivmoddi4+0x1ba>
20001434:	193c      	adds	r4, r7, r4
20001436:	f108 3aff 	add.w	sl, r8, #4294967295	@ 0xffffffff
2000143a:	bf2c      	ite	cs
2000143c:	f04f 0b01 	movcs.w	fp, #1
20001440:	f04f 0b00 	movcc.w	fp, #0
20001444:	45a4      	cmp	ip, r4
20001446:	d903      	bls.n	20001450 <__udivmoddi4+0x1b8>
20001448:	f1bb 0f00 	cmp.w	fp, #0
2000144c:	f000 80b8 	beq.w	200015c0 <__udivmoddi4+0x328>
20001450:	46d0      	mov	r8, sl
20001452:	eba4 040c 	sub.w	r4, r4, ip
20001456:	fa1f fc83 	uxth.w	ip, r3
2000145a:	fbb4 f3f0 	udiv	r3, r4, r0
2000145e:	fb00 4413 	mls	r4, r0, r3, r4
20001462:	fb03 fe0e 	mul.w	lr, r3, lr
20001466:	ea4c 4404 	orr.w	r4, ip, r4, lsl #16
2000146a:	45a6      	cmp	lr, r4
2000146c:	d90e      	bls.n	2000148c <__udivmoddi4+0x1f4>
2000146e:	193c      	adds	r4, r7, r4
20001470:	f103 30ff 	add.w	r0, r3, #4294967295	@ 0xffffffff
20001474:	bf2c      	ite	cs
20001476:	f04f 0c01 	movcs.w	ip, #1
2000147a:	f04f 0c00 	movcc.w	ip, #0
2000147e:	45a6      	cmp	lr, r4
20001480:	d903      	bls.n	2000148a <__udivmoddi4+0x1f2>
20001482:	f1bc 0f00 	cmp.w	ip, #0
20001486:	f000 809f 	beq.w	200015c8 <__udivmoddi4+0x330>
2000148a:	4603      	mov	r3, r0
2000148c:	ea43 4008 	orr.w	r0, r3, r8, lsl #16
20001490:	eba4 040e 	sub.w	r4, r4, lr
20001494:	fba0 ec02 	umull	lr, ip, r0, r2
20001498:	4564      	cmp	r4, ip
2000149a:	4673      	mov	r3, lr
2000149c:	46e0      	mov	r8, ip
2000149e:	d302      	bcc.n	200014a6 <__udivmoddi4+0x20e>
200014a0:	d107      	bne.n	200014b2 <__udivmoddi4+0x21a>
200014a2:	45f1      	cmp	r9, lr
200014a4:	d205      	bcs.n	200014b2 <__udivmoddi4+0x21a>
200014a6:	ebbe 0302 	subs.w	r3, lr, r2
200014aa:	eb6c 0c07 	sbc.w	ip, ip, r7
200014ae:	3801      	subs	r0, #1
200014b0:	46e0      	mov	r8, ip
200014b2:	b15e      	cbz	r6, 200014cc <__udivmoddi4+0x234>
200014b4:	ebb9 0203 	subs.w	r2, r9, r3
200014b8:	eb64 0408 	sbc.w	r4, r4, r8
200014bc:	fa04 f505 	lsl.w	r5, r4, r5
200014c0:	fa22 f301 	lsr.w	r3, r2, r1
200014c4:	40cc      	lsrs	r4, r1
200014c6:	431d      	orrs	r5, r3
200014c8:	e9c6 5400 	strd	r5, r4, [r6]
200014cc:	2100      	movs	r1, #0
200014ce:	e732      	b.n	20001336 <__udivmoddi4+0x9e>
200014d0:	0842      	lsrs	r2, r0, #1
200014d2:	462f      	mov	r7, r5
200014d4:	084b      	lsrs	r3, r1, #1
200014d6:	46ac      	mov	ip, r5
200014d8:	ea42 72c1 	orr.w	r2, r2, r1, lsl #31
200014dc:	46ae      	mov	lr, r5
200014de:	07c4      	lsls	r4, r0, #31
200014e0:	0c11      	lsrs	r1, r2, #16
200014e2:	b292      	uxth	r2, r2
200014e4:	ea41 4103 	orr.w	r1, r1, r3, lsl #16
200014e8:	ea42 4201 	orr.w	r2, r2, r1, lsl #16
200014ec:	fbb1 f1f5 	udiv	r1, r1, r5
200014f0:	fbb3 f0f5 	udiv	r0, r3, r5
200014f4:	231f      	movs	r3, #31
200014f6:	eba2 020c 	sub.w	r2, r2, ip
200014fa:	ea41 4100 	orr.w	r1, r1, r0, lsl #16
200014fe:	e742      	b.n	20001386 <__udivmoddi4+0xee>
20001500:	409d      	lsls	r5, r3
20001502:	f1c3 0220 	rsb	r2, r3, #32
20001506:	4099      	lsls	r1, r3
20001508:	409c      	lsls	r4, r3
2000150a:	fa2c fc02 	lsr.w	ip, ip, r2
2000150e:	ea4f 4e15 	mov.w	lr, r5, lsr #16
20001512:	fa20 f202 	lsr.w	r2, r0, r2
20001516:	b2af      	uxth	r7, r5
20001518:	fbbc f8fe 	udiv	r8, ip, lr
2000151c:	430a      	orrs	r2, r1
2000151e:	fb0e cc18 	mls	ip, lr, r8, ip
20001522:	0c11      	lsrs	r1, r2, #16
20001524:	ea41 410c 	orr.w	r1, r1, ip, lsl #16
20001528:	fb08 fc07 	mul.w	ip, r8, r7
2000152c:	458c      	cmp	ip, r1
2000152e:	d950      	bls.n	200015d2 <__udivmoddi4+0x33a>
20001530:	1869      	adds	r1, r5, r1
20001532:	f108 30ff 	add.w	r0, r8, #4294967295	@ 0xffffffff
20001536:	bf2c      	ite	cs
20001538:	f04f 0901 	movcs.w	r9, #1
2000153c:	f04f 0900 	movcc.w	r9, #0
20001540:	458c      	cmp	ip, r1
20001542:	d902      	bls.n	2000154a <__udivmoddi4+0x2b2>
20001544:	f1b9 0f00 	cmp.w	r9, #0
20001548:	d030      	beq.n	200015ac <__udivmoddi4+0x314>
2000154a:	eba1 010c 	sub.w	r1, r1, ip
2000154e:	fbb1 f8fe 	udiv	r8, r1, lr
20001552:	fb08 fc07 	mul.w	ip, r8, r7
20001556:	fb0e 1118 	mls	r1, lr, r8, r1
2000155a:	b292      	uxth	r2, r2
2000155c:	ea42 4201 	orr.w	r2, r2, r1, lsl #16
20001560:	4562      	cmp	r2, ip
20001562:	d234      	bcs.n	200015ce <__udivmoddi4+0x336>
20001564:	18aa      	adds	r2, r5, r2
20001566:	f108 31ff 	add.w	r1, r8, #4294967295	@ 0xffffffff
2000156a:	bf2c      	ite	cs
2000156c:	f04f 0901 	movcs.w	r9, #1
20001570:	f04f 0900 	movcc.w	r9, #0
20001574:	4562      	cmp	r2, ip
20001576:	d2be      	bcs.n	200014f6 <__udivmoddi4+0x25e>
20001578:	f1b9 0f00 	cmp.w	r9, #0
2000157c:	d1bb      	bne.n	200014f6 <__udivmoddi4+0x25e>
2000157e:	f1a8 0102 	sub.w	r1, r8, #2
20001582:	442a      	add	r2, r5
20001584:	e7b7      	b.n	200014f6 <__udivmoddi4+0x25e>
20001586:	1a84      	subs	r4, r0, r2
20001588:	eb6c 0203 	sbc.w	r2, ip, r3
2000158c:	2001      	movs	r0, #1
2000158e:	4617      	mov	r7, r2
20001590:	e6e7      	b.n	20001362 <__udivmoddi4+0xca>
20001592:	442c      	add	r4, r5
20001594:	3802      	subs	r0, #2
20001596:	e72b      	b.n	200013f0 <__udivmoddi4+0x158>
20001598:	f1ac 0c02 	sub.w	ip, ip, #2
2000159c:	442a      	add	r2, r5
2000159e:	e70c      	b.n	200013ba <__udivmoddi4+0x122>
200015a0:	3902      	subs	r1, #2
200015a2:	442a      	add	r2, r5
200015a4:	e6a5      	b.n	200012f2 <__udivmoddi4+0x5a>
200015a6:	442c      	add	r4, r5
200015a8:	3802      	subs	r0, #2
200015aa:	e6ba      	b.n	20001322 <__udivmoddi4+0x8a>
200015ac:	eba5 0c0c 	sub.w	ip, r5, ip
200015b0:	f1a8 0002 	sub.w	r0, r8, #2
200015b4:	4461      	add	r1, ip
200015b6:	fbb1 f8fe 	udiv	r8, r1, lr
200015ba:	fb08 fc07 	mul.w	ip, r8, r7
200015be:	e7ca      	b.n	20001556 <__udivmoddi4+0x2be>
200015c0:	f1a8 0802 	sub.w	r8, r8, #2
200015c4:	443c      	add	r4, r7
200015c6:	e744      	b.n	20001452 <__udivmoddi4+0x1ba>
200015c8:	3b02      	subs	r3, #2
200015ca:	443c      	add	r4, r7
200015cc:	e75e      	b.n	2000148c <__udivmoddi4+0x1f4>
200015ce:	4641      	mov	r1, r8
200015d0:	e791      	b.n	200014f6 <__udivmoddi4+0x25e>
200015d2:	eba1 010c 	sub.w	r1, r1, ip
200015d6:	4640      	mov	r0, r8
200015d8:	fbb1 f8fe 	udiv	r8, r1, lr
200015dc:	fb08 fc07 	mul.w	ip, r8, r7
200015e0:	e7b9      	b.n	20001556 <__udivmoddi4+0x2be>
200015e2:	bf00      	nop

200015e4 <__aeabi_idiv0>:
200015e4:	4770      	bx	lr
200015e6:	bf00      	nop

200015e8 <__tud_event_hook_cb_veneer>:
200015e8:	f85f f000 	ldr.w	pc, [pc]	@ 200015ec <__tud_event_hook_cb_veneer+0x4>
200015ec:	10005771 	.word	0x10005771

200015f0 <__panic_veneer>:
200015f0:	f85f f000 	ldr.w	pc, [pc]	@ 200015f4 <__panic_veneer+0x4>
200015f4:	100006e1 	.word	0x100006e1

200015f8 <__time_us_64_veneer>:
200015f8:	f85f f000 	ldr.w	pc, [pc]	@ 200015fc <__time_us_64_veneer+0x4>
200015fc:	1000151d 	.word	0x1000151d

20001600 <__tu_fifo_write_veneer>:
20001600:	f85f f000 	ldr.w	pc, [pc]	@ 20001604 <__tu_fifo_write_veneer+0x4>
20001604:	10007149 	.word	0x10007149

20001608 <__memset_veneer>:
20001608:	f85f f000 	ldr.w	pc, [pc]	@ 2000160c <__memset_veneer+0x4>
2000160c:	10007dad 	.word	0x10007dad

20001610 <__best_effort_wfe_or_timeout_veneer>:
20001610:	f85f f000 	ldr.w	pc, [pc]	@ 20001614 <__best_effort_wfe_or_timeout_veneer+0x4>
20001614:	10001415 	.word	0x10001415

20001618 <striped_spin_lock_num>:
20001618:	00000010                                ....

2000161c <irq_handler_chain_slots>:
2000161c:	00000000 	.word	0x00000000
20001620:	00010000 	.word	0x00010000
	...
2000162c:	00020000 	.word	0x00020000
	...
20001638:	00030000 	.word	0x00030000
	...
20001644:	00ff0000 	.word	0x00ff0000
20001648:	00000000 	.word	0x00000000

2000164c <irq_handler_chain_first_slot>:
2000164c:	b501      	push	{r0, lr}
2000164e:	6848      	ldr	r0, [r1, #4]
20001650:	3101      	adds	r1, #1
20001652:	468e      	mov	lr, r1
20001654:	4700      	bx	r0

20001656 <irq_handler_chain_remove_tail>:
20001656:	4670      	mov	r0, lr
20001658:	3809      	subs	r0, #9
2000165a:	4901      	ldr	r1, [pc, #4]	@ (20001660 <irq_handler_chain_remove_tail+0xa>)
2000165c:	4788      	blx	r1
2000165e:	bd01      	pop	{r0, pc}
20001660:	10000b55 	.word	0x10000b55

20001664 <default_alarm_pool>:
	...
20001678:	20001c28                                (.. 

2000167c <stdio_usb>:
2000167c:	10004f15 10004ec1 10004e39 10004da9     .O...N..9N...M..
2000168c:	00000000 00000100                       ........

20001694 <_usbd_qdef>:
20001694:	2000218c 000c0010 00000000 00000000     .!. ............
	...

200016b0 <_usbd_rhport>:
200016b0:	000000ff                                ....

200016b4 <__malloc_sbrk_base>:
200016b4:	ffffffff                                ....

200016b8 <__malloc_trim_threshold>:
200016b8:	00020000 00000000                       ........

200016c0 <__malloc_av_>:
	...
200016c8:	200016c0 200016c0 200016c8 200016c8     ... ... ... ... 
200016d8:	200016d0 200016d0 200016d8 200016d8     ... ... ... ... 
200016e8:	200016e0 200016e0 200016e8 200016e8     ... ... ... ... 
200016f8:	200016f0 200016f0 200016f8 200016f8     ... ... ... ... 
20001708:	20001700 20001700 20001708 20001708     ... ... ... ... 
20001718:	20001710 20001710 20001718 20001718     ... ... ... ... 
20001728:	20001720 20001720 20001728 20001728      ..  .. (.. (.. 
20001738:	20001730 20001730 20001738 20001738     0.. 0.. 8.. 8.. 
20001748:	20001740 20001740 20001748 20001748     @.. @.. H.. H.. 
20001758:	20001750 20001750 20001758 20001758     P.. P.. X.. X.. 
20001768:	20001760 20001760 20001768 20001768     `.. `.. h.. h.. 
20001778:	20001770 20001770 20001778 20001778     p.. p.. x.. x.. 
20001788:	20001780 20001780 20001788 20001788     ... ... ... ... 
20001798:	20001790 20001790 20001798 20001798     ... ... ... ... 
200017a8:	200017a0 200017a0 200017a8 200017a8     ... ... ... ... 
200017b8:	200017b0 200017b0 200017b8 200017b8     ... ... ... ... 
200017c8:	200017c0 200017c0 200017c8 200017c8     ... ... ... ... 
200017d8:	200017d0 200017d0 200017d8 200017d8     ... ... ... ... 
200017e8:	200017e0 200017e0 200017e8 200017e8     ... ... ... ... 
200017f8:	200017f0 200017f0 200017f8 200017f8     ... ... ... ... 
20001808:	20001800 20001800 20001808 20001808     ... ... ... ... 
20001818:	20001810 20001810 20001818 20001818     ... ... ... ... 
20001828:	20001820 20001820 20001828 20001828      ..  .. (.. (.. 
20001838:	20001830 20001830 20001838 20001838     0.. 0.. 8.. 8.. 
20001848:	20001840 20001840 20001848 20001848     @.. @.. H.. H.. 
20001858:	20001850 20001850 20001858 20001858     P.. P.. X.. X.. 
20001868:	20001860 20001860 20001868 20001868     `.. `.. h.. h.. 
20001878:	20001870 20001870 20001878 20001878     p.. p.. x.. x.. 
20001888:	20001880 20001880 20001888 20001888     ... ... ... ... 
20001898:	20001890 20001890 20001898 20001898     ... ... ... ... 
200018a8:	200018a0 200018a0 200018a8 200018a8     ... ... ... ... 
200018b8:	200018b0 200018b0 200018b8 200018b8     ... ... ... ... 
200018c8:	200018c0 200018c0 200018c8 200018c8     ... ... ... ... 
200018d8:	200018d0 200018d0 200018d8 200018d8     ... ... ... ... 
200018e8:	200018e0 200018e0 200018e8 200018e8     ... ... ... ... 
200018f8:	200018f0 200018f0 200018f8 200018f8     ... ... ... ... 
20001908:	20001900 20001900 20001908 20001908     ... ... ... ... 
20001918:	20001910 20001910 20001918 20001918     ... ... ... ... 
20001928:	20001920 20001920 20001928 20001928      ..  .. (.. (.. 
20001938:	20001930 20001930 20001938 20001938     0.. 0.. 8.. 8.. 
20001948:	20001940 20001940 20001948 20001948     @.. @.. H.. H.. 
20001958:	20001950 20001950 20001958 20001958     P.. P.. X.. X.. 
20001968:	20001960 20001960 20001968 20001968     `.. `.. h.. h.. 
20001978:	20001970 20001970 20001978 20001978     p.. p.. x.. x.. 
20001988:	20001980 20001980 20001988 20001988     ... ... ... ... 
20001998:	20001990 20001990 20001998 20001998     ... ... ... ... 
200019a8:	200019a0 200019a0 200019a8 200019a8     ... ... ... ... 
200019b8:	200019b0 200019b0 200019b8 200019b8     ... ... ... ... 
200019c8:	200019c0 200019c0 200019c8 200019c8     ... ... ... ... 
200019d8:	200019d0 200019d0 200019d8 200019d8     ... ... ... ... 
200019e8:	200019e0 200019e0 200019e8 200019e8     ... ... ... ... 
200019f8:	200019f0 200019f0 200019f8 200019f8     ... ... ... ... 
20001a08:	20001a00 20001a00 20001a08 20001a08     ... ... ... ... 
20001a18:	20001a10 20001a10 20001a18 20001a18     ... ... ... ... 
20001a28:	20001a20 20001a20 20001a28 20001a28      ..  .. (.. (.. 
20001a38:	20001a30 20001a30 20001a38 20001a38     0.. 0.. 8.. 8.. 
20001a48:	20001a40 20001a40 20001a48 20001a48     @.. @.. H.. H.. 
20001a58:	20001a50 20001a50 20001a58 20001a58     P.. P.. X.. X.. 
20001a68:	20001a60 20001a60 20001a68 20001a68     `.. `.. h.. h.. 
20001a78:	20001a70 20001a70 20001a78 20001a78     p.. p.. x.. x.. 
20001a88:	20001a80 20001a80 20001a88 20001a88     ... ... ... ... 
20001a98:	20001a90 20001a90 20001a98 20001a98     ... ... ... ... 
20001aa8:	20001aa0 20001aa0 20001aa8 20001aa8     ... ... ... ... 
20001ab8:	20001ab0 20001ab0 20001ab8 20001ab8     ... ... ... ... 

20001ac8 <__sglue>:
20001ac8:	00000000 00000003 20001e24              ........$.. 

20001ad4 <_impure_ptr>:
20001ad4:	20001ad8                                ... 

20001ad8 <_impure_data>:
20001ad8:	00000000 20001e24 20001e8c 20001ef4     ....$.. ... ... 
	...
20001b70:	00000001 00000000 abcd330e e66d1234     .........3..4.m.
20001b80:	0005deec 0000000b 00000000 00000000     ................
	...

20001c18 <malloc_mutex>:
	...

20001c20 <print_mutex>:
	...
